EXPORTS 
	?$TSS0@?1??on_game_present@VRConverter@vrc@@QEAA_NAEAUHookContext@3@@Z@4HA 	 DATA
	??_R0?AU?$output_adapter_protocol@D@detail@json_abi_v3_11_3@nlohmann@@@8 	 DATA
	??_R0?AU_Crt_new_delete@std@@@8 	 DATA
	??_R0?AU_Fmt_buffer_traits@std@@@8 	 DATA
	??_R0?AV<lambda_1>@?1??initialize@VRConverter@vrc@@QEAA_NXZ@@8 	 DATA
	??_R0?AV<lambda_2>@?1??initialize@VRConverter@vrc@@QEAA_NXZ@@8 	 DATA
	??_R0?AV?$_Fmt_buffer@D@std@@@8 	 DATA
	??_R0?AV?$_Fmt_iterator_buffer@V?$back_insert_iterator@V?$basic_string@DU?$char_traits@D@std@@V?$allocator@D@2@@std@@@std@@DU_Fmt_buffer_traits@2@@std@@@8 	 DATA
	??_R0?AV?$_Func_base@XAEBUFrameCapture@vrc@@@std@@@8 	 DATA
	??_R0?AV?$_Func_base@_NAEAUHookContext@vrc@@@std@@@8 	 DATA
	??_R0?AV?$_Func_impl_no_alloc@V<lambda_1>@?1??initialize@VRConverter@vrc@@QEAA_NXZ@_NAEAUHookContext@4@@std@@@8 	 DATA
	??_R0?AV?$_Func_impl_no_alloc@V<lambda_2>@?1??initialize@VRConverter@vrc@@QEAA_NXZ@XAEBUFrameCapture@4@@std@@@8 	 DATA
	??_R0?AV?$_Iosb@H@std@@@8 	 DATA
	??_R0?AV?$_Ref_count_obj2@V?$output_string_adapter@DV?$basic_string@DU?$char_traits@D@std@@V?$allocator@D@2@@std@@@detail@json_abi_v3_11_3@nlohmann@@@std@@@8 	 DATA
	??_R0?AV?$basic_filebuf@DU?$char_traits@D@std@@@std@@@8 	 DATA
	??_R0?AV?$basic_ifstream@DU?$char_traits@D@std@@@std@@@8 	 DATA
	??_R0?AV?$basic_ios@DU?$char_traits@D@std@@@std@@@8 	 DATA
	??_R0?AV?$basic_istream@DU?$char_traits@D@std@@@std@@@8 	 DATA
	??_R0?AV?$basic_ofstream@DU?$char_traits@D@std@@@std@@@8 	 DATA
	??_R0?AV?$basic_ostream@DU?$char_traits@D@std@@@std@@@8 	 DATA
	??_R0?AV?$basic_ostringstream@DU?$char_traits@D@std@@V?$allocator@D@2@@std@@@8 	 DATA
	??_R0?AV?$basic_streambuf@DU?$char_traits@D@std@@@std@@@8 	 DATA
	??_R0?AV?$basic_stringbuf@DU?$char_traits@D@std@@V?$allocator@D@2@@std@@@8 	 DATA
	??_R0?AV?$numpunct@D@std@@@8 	 DATA
	??_R0?AV?$output_string_adapter@DV?$basic_string@DU?$char_traits@D@std@@V?$allocator@D@2@@std@@@detail@json_abi_v3_11_3@nlohmann@@@8 	 DATA
	??_R0?AV_Facet_base@std@@@8 	 DATA
	??_R0?AV_Generic_error_category@std@@@8 	 DATA
	??_R0?AV_Ref_count_base@std@@@8 	 DATA
	??_R0?AV_System_error@std@@@8 	 DATA
	??_R0?AV_System_error_category@std@@@8 	 DATA
	??_R0?AVbad_alloc@std@@@8 	 DATA
	??_R0?AVbad_array_new_length@std@@@8 	 DATA
	??_R0?AVbad_cast@std@@@8 	 DATA
	??_R0?AVerror_category@std@@@8 	 DATA
	??_R0?AVexception@detail@json_abi_v3_11_3@nlohmann@@@8 	 DATA
	??_R0?AVexception@std@@@8 	 DATA
	??_R0?AVfacet@locale@std@@@8 	 DATA
	??_R0?AVfilesystem_error@filesystem@std@@@8 	 DATA
	??_R0?AVformat_error@std@@@8 	 DATA
	??_R0?AVinvalid_iterator@detail@json_abi_v3_11_3@nlohmann@@@8 	 DATA
	??_R0?AVios_base@std@@@8 	 DATA
	??_R0?AVother_error@detail@json_abi_v3_11_3@nlohmann@@@8 	 DATA
	??_R0?AVout_of_range@detail@json_abi_v3_11_3@nlohmann@@@8 	 DATA
	??_R0?AVparse_error@detail@json_abi_v3_11_3@nlohmann@@@8 	 DATA
	??_R0?AVruntime_error@std@@@8 	 DATA
	??_R0?AVsystem_error@std@@@8 	 DATA
	??_R0?AVtype_error@detail@json_abi_v3_11_3@nlohmann@@@8 	 DATA
	?EmptyString@ImGuiTextBuffer@@2PADA 	 DATA
	?GImGui@@3PEAUImGuiContext@@EA 	 DATA
	?_OptionsStorage@?1??__local_stdio_printf_options@@9@4_KA 	 DATA
	?_OptionsStorage@?1??__local_stdio_scanf_options@@9@4_KA 	 DATA
	?_Psave@?$_Facetptr@V?$codecvt@DDU_Mbstatet@@@std@@@std@@2PEBVfacet@locale@2@EB 	 DATA
	?_Psave@?$_Facetptr@V?$numpunct@D@std@@@std@@2PEBVfacet@locale@2@EB 	 DATA
	?_Psave@?$_Facetptr@V?$time_put@DV?$ostreambuf_iterator@DU?$char_traits@D@std@@@std@@@std@@@std@@2PEBVfacet@locale@2@EB 	 DATA
	?_Static@?1???$_Immortalize_memcpy_image@V_Generic_error_category@std@@@std@@YAAEBV_Generic_error_category@1@XZ@4V21@B 	 DATA
	?_Static@?1???$_Immortalize_memcpy_image@V_System_error_category@std@@@std@@YAAEBV_System_error_category@1@XZ@4V21@B 	 DATA
	?_Stinit@?1??_Init@?$basic_filebuf@DU?$char_traits@D@std@@@std@@IEAAXPEAU_iobuf@@W4_Initfl@23@@Z@4U_Mbstatet@@A 	 DATA
	?conv@?1??instance@VRConverter@vrc@@SAAEAV23@XZ@4V23@A 	 DATA
	?file_@Log@vrc@@0V?$basic_ofstream@DU?$char_traits@D@std@@@std@@A 	 DATA
	?from_json@json_abi_v3_11_3@nlohmann@@3AEBUfrom_json_fn@detail@12@EB 	 DATA
	?g_module_handle@vrc@@3PEAUHINSTANCE__@@EA 	 DATA
	?initialized_@Log@vrc@@0_NA 	 DATA
	?last_poll@?1??on_game_present@VRConverter@vrc@@QEAA_NAEAUHookContext@3@@Z@4V?$time_point@Usteady_clock@chrono@std@@V?$duration@_JU?$ratio@$00$0DLJKMKAA@@std@@@23@@chrono@std@@A 	 DATA
	?min_level_@Log@vrc@@0W4LogLevel@2@A 	 DATA
	?mutex_@Log@vrc@@0Vmutex@std@@A 	 DATA
	?to_json@json_abi_v3_11_3@nlohmann@@3AEBUto_json_fn@detail@12@EB 	 DATA
	_Avx2WmemEnabledWeakValue 	 DATA
	??$?0$$BY05$$CBD@?$basic_format_args@V?$basic_format_context@V?$back_insert_iterator@V?$_Fmt_buffer@D@std@@@std@@D@std@@@std@@QEAA@AEBV?$_Format_arg_store@V?$basic_format_context@V?$back_insert_iterator@V?$_Fmt_buffer@D@std@@@std@@D@std@@$$BY05$$CBD@1@@Z
	??$?0$$BY08D$0A@@path@filesystem@std@@QEAA@AEAY08$$CBDW4format@012@@Z
	??$?0$$BY0BA@D$0A@@path@filesystem@std@@QEAA@AEAY0BA@$$CBDW4format@012@@Z
	??$?0$$BY0BAE@D$0A@@path@filesystem@std@@QEAA@AEAY0BAE@$$CBDW4format@012@@Z
	??$?0$$BY0BB@D$0A@@path@filesystem@std@@QEAA@AEAY0BB@$$CBDW4format@012@@Z
	??$?0$$BY0IA@D@?$basic_format_args@V?$basic_format_context@V?$back_insert_iterator@V?$_Fmt_buffer@D@std@@@std@@D@std@@@std@@QEAA@AEBV?$_Format_arg_store@V?$basic_format_context@V?$back_insert_iterator@V?$_Fmt_buffer@D@std@@@std@@D@std@@$$BY0IA@D@1@@Z
	??$?0$$BY0IA@DGGI@?$basic_format_args@V?$basic_format_context@V?$back_insert_iterator@V?$_Fmt_buffer@D@std@@@std@@D@std@@@std@@QEAA@AEBV?$_Format_arg_store@V?$basic_format_context@V?$back_insert_iterator@V?$_Fmt_buffer@D@std@@@std@@D@std@@$$BY0IA@DGGI@1@@Z
	??$?0$$BY0M@D$0A@@path@filesystem@std@@QEAA@AEAY0M@$$CBDW4format@012@@Z
	??$?0$$CBV?$basic_string@DU?$char_traits@D@std@@V?$allocator@D@2@@std@@@?$basic_format_args@V?$basic_format_context@V?$back_insert_iterator@V?$_Fmt_buffer@D@std@@@std@@D@std@@@std@@QEAA@AEBV?$_Format_arg_store@V?$basic_format_context@V?$back_insert_iterator@V?$_Fmt_buffer@D@std@@@std@@D@std@@$$CBV?$basic_string@DU?$char_traits@D@std@@V?$allocator@D@2@@2@@1@@Z
	??$?0$$CBV?$basic_string@DU?$char_traits@D@std@@V?$allocator@D@2@@std@@PEBD@?$basic_format_args@V?$basic_format_context@V?$back_insert_iterator@V?$_Fmt_buffer@D@std@@@std@@D@std@@@std@@QEAA@AEBV?$_Format_arg_store@V?$basic_format_context@V?$back_insert_iterator@V?$_Fmt_buffer@D@std@@@std@@D@std@@$$CBV?$basic_string@DU?$char_traits@D@std@@V?$allocator@D@2@@2@PEBD@1@@Z
	??$?0$$CBV?$basic_string@DU?$char_traits@D@std@@V?$allocator@D@2@@std@@_K@?$basic_format_args@V?$basic_format_context@V?$back_insert_iterator@V?$_Fmt_buffer@D@std@@@std@@D@std@@@std@@QEAA@AEBV?$_Format_arg_store@V?$basic_format_context@V?$back_insert_iterator@V?$_Fmt_buffer@D@std@@@std@@D@std@@$$CBV?$basic_string@DU?$char_traits@D@std@@V?$allocator@D@2@@2@_K@1@@Z
	??$?0$$QEAV?$basic_string@DU?$char_traits@D@std@@V?$allocator@D@2@@std@@$$Z$$V@?$pair@$$CBV?$basic_string@DU?$char_traits@D@std@@V?$allocator@D@2@@std@@UConfigProfile@vrc@@@std@@QEAA@Upiecewise_construct_t@1@V?$tuple@$$QEAV?$basic_string@DU?$char_traits@D@std@@V?$allocator@D@2@@std@@@1@V?$tuple@$$V@1@@Z
	??$?0$$QEAW4InputAction@vrc@@$$Z$$V@?$pair@$$CBW4InputAction@vrc@@M@std@@QEAA@Upiecewise_construct_t@1@V?$tuple@$$QEAW4InputAction@vrc@@@1@V?$tuple@$$V@1@@Z
	??$?0$$V@?$_Compressed_pair@V?$allocator@D@std@@V?$_String_val@U?$_Simple_types@D@std@@@2@$00@std@@QEAA@U_Zero_then_variadic_args_t@1@@Z
	??$?0$$V@?$_Compressed_pair@V?$allocator@D@std@@V?$_Vector_val@U?$_Simple_types@D@std@@@2@$00@std@@QEAA@U_Zero_then_variadic_args_t@1@@Z
	??$?0$$V@?$_Compressed_pair@V?$allocator@E@std@@V?$_Vector_val@U?$_Simple_types@E@std@@@2@$00@std@@QEAA@U_Zero_then_variadic_args_t@1@@Z
	??$?0$$V@?$_Compressed_pair@V?$allocator@N@std@@V?$_Vector_val@U?$_Simple_types@N@std@@@2@$00@std@@QEAA@U_Zero_then_variadic_args_t@1@@Z
	??$?0$$V@?$_Compressed_pair@V?$allocator@PEAV?$basic_json@Vmap@std@@Vvector@2@V?$basic_string@DU?$char_traits@D@std@@V?$allocator@D@2@@2@_N_J_KNVallocator@2@Uadl_serializer@json_abi_v3_11_3@nlohmann@@V?$vector@EV?$allocator@E@std@@@2@X@json_abi_v3_11_3@nlohmann@@@std@@V?$_Vector_val@U?$_Simple_types@PEAV?$basic_json@Vmap@std@@Vvector@2@V?$basic_string@DU?$char_traits@D@std@@V?$allocator@D@2@@2@_N_J_KNVallocator@2@Uadl_serializer@json_abi_v3_11_3@nlohmann@@V?$vector@EV?$allocator@E@std@@@2@X@json_abi_v3_11_3@nlohmann@@@std@@@2@$00@std@@QEAA@U_Zero_then_variadic_args_t@1@@Z
	??$?0$$V@?$_Compressed_pair@V?$allocator@PEAX@std@@V?$_Vector_val@U?$_Simple_types@PEAX@std@@@2@$00@std@@QEAA@U_Zero_then_variadic_args_t@1@@Z
	??$?0$$V@?$_Compressed_pair@V?$allocator@PEBD@std@@V?$_Vector_val@U?$_Simple_types@PEBD@std@@@2@$00@std@@QEAA@U_Zero_then_variadic_args_t@1@@Z
	??$?0$$V@?$_Compressed_pair@V?$allocator@U?$_Tree_node@U?$pair@$$CBV?$basic_string@DU?$char_traits@D@std@@V?$allocator@D@2@@std@@V?$basic_json@Vmap@std@@Vvector@2@V?$basic_string@DU?$char_traits@D@std@@V?$allocator@D@2@@2@_N_J_KNVallocator@2@Uadl_serializer@json_abi_v3_11_3@nlohmann@@V?$vector@EV?$allocator@E@std@@@2@X@json_abi_v3_11_3@nlohmann@@@std@@PEAX@std@@@std@@V?$_Tree_val@U?$_Tree_simple_types@U?$pair@$$CBV?$basic_string@DU?$char_traits@D@std@@V?$allocator@D@2@@std@@V?$basic_json@Vmap@std@@Vvector@2@V?$basic_string@DU?$char_traits@D@std@@V?$allocator@D@2@@2@_N_J_KNVallocator@2@Uadl_serializer@json_abi_v3_11_3@nlohmann@@V?$vector@EV?$allocator@E@std@@@2@X@json_abi_v3_11_3@nlohmann@@@std@@@std@@@2@$00@std@@QEAA@U_Zero_then_variadic_args_t@1@@Z
	??$?0$$V@?$_Compressed_pair@V?$allocator@UBinding@vrc@@@std@@V?$_Vector_val@U?$_Simple_types@UBinding@vrc@@@std@@@2@$00@std@@QEAA@U_Zero_then_variadic_args_t@1@@Z
	??$?0$$V@?$_Compressed_pair@V?$allocator@UD3D12_CPU_DESCRIPTOR_HANDLE@@@std@@V?$_Vector_val@U?$_Simple_types@UD3D12_CPU_DESCRIPTOR_HANDLE@@@std@@@2@$00@std@@QEAA@U_Zero_then_variadic_args_t@1@@Z
	??$?0$$V@?$_Compressed_pair@V?$allocator@ULatencySnapshot@vrc@@@std@@V?$_Deque_val@U?$_Deque_simple_types@ULatencySnapshot@vrc@@@std@@@2@$00@std@@QEAA@U_Zero_then_variadic_args_t@1@@Z
	??$?0$$V@?$_Compressed_pair@V?$allocator@UPerfSample@vrc@@@std@@V?$_Deque_val@U?$_Deque_simple_types@UPerfSample@vrc@@@std@@@2@$00@std@@QEAA@U_Zero_then_variadic_args_t@1@@Z
	??$?0$$V@?$_Compressed_pair@V?$allocator@URotationSample@LatencyCompensator@vrc@@@std@@V?$_Deque_val@U?$_Deque_simple_types@URotationSample@LatencyCompensator@vrc@@@std@@@2@$00@std@@QEAA@U_Zero_then_variadic_args_t@1@@Z
	??$?0$$V@?$_Compressed_pair@V?$allocator@UTrackingSample@vrc@@@std@@V?$_Deque_val@U?$_Deque_simple_types@UTrackingSample@vrc@@@std@@@2@$00@std@@QEAA@U_Zero_then_variadic_args_t@1@@Z
	??$?0$$V@?$_Compressed_pair@V?$allocator@UXrActionSuggestedBinding@@@std@@V?$_Vector_val@U?$_Simple_types@UXrActionSuggestedBinding@@@std@@@2@$00@std@@QEAA@U_Zero_then_variadic_args_t@1@@Z
	??$?0$$V@?$_Compressed_pair@V?$allocator@UXrSwapchainImageD3D11KHR@@@std@@V?$_Vector_val@U?$_Simple_types@UXrSwapchainImageD3D11KHR@@@std@@@2@$00@std@@QEAA@U_Zero_then_variadic_args_t@1@@Z
	??$?0$$V@?$_Compressed_pair@V?$allocator@UXrSwapchainImageD3D12KHR@@@std@@V?$_Vector_val@U?$_Simple_types@UXrSwapchainImageD3D12KHR@@@std@@@2@$00@std@@QEAA@U_Zero_then_variadic_args_t@1@@Z
	??$?0$$V@?$_Compressed_pair@V?$allocator@V?$basic_json@Vmap@std@@Vvector@2@V?$basic_string@DU?$char_traits@D@std@@V?$allocator@D@2@@2@_N_J_KNVallocator@2@Uadl_serializer@json_abi_v3_11_3@nlohmann@@V?$vector@EV?$allocator@E@std@@@2@X@json_abi_v3_11_3@nlohmann@@@std@@V?$_Vector_val@U?$_Simple_types@V?$basic_json@Vmap@std@@Vvector@2@V?$basic_string@DU?$char_traits@D@std@@V?$allocator@D@2@@2@_N_J_KNVallocator@2@Uadl_serializer@json_abi_v3_11_3@nlohmann@@V?$vector@EV?$allocator@E@std@@@2@X@json_abi_v3_11_3@nlohmann@@@std@@@2@$00@std@@QEAA@U_Zero_then_variadic_args_t@1@@Z
	??$?0$$V@?$_Compressed_pair@V?$allocator@V?$basic_string@DU?$char_traits@D@std@@V?$allocator@D@2@@std@@@std@@V?$_Vector_val@U?$_Simple_types@V?$basic_string@DU?$char_traits@D@std@@V?$allocator@D@2@@std@@@std@@@2@$00@std@@QEAA@U_Zero_then_variadic_args_t@1@@Z
	??$?0$$V@?$_Compressed_pair@V?$allocator@_W@std@@V?$_String_val@U?$_Simple_types@_W@std@@@2@$00@std@@QEAA@U_Zero_then_variadic_args_t@1@@Z
	??$?0AEANN$0A@@?$basic_json@Vmap@std@@Vvector@2@V?$basic_string@DU?$char_traits@D@std@@V?$allocator@D@2@@2@_N_J_KNVallocator@2@Uadl_serializer@json_abi_v3_11_3@nlohmann@@V?$vector@EV?$allocator@E@std@@@2@X@json_abi_v3_11_3@nlohmann@@QEAA@AEAN@Z
	??$?0AEAPEADW4errc@std@@$0A@@?$pair@PEADW4errc@std@@@std@@QEAA@AEAPEAD$$QEAW4errc@1@@Z
	??$?0AEAPEANAEAPEAN$0A@@?$pair@PEANPEAN@std@@QEAA@AEAPEAN0@Z
	??$?0AEAPEAU?$_List_node@U?$pair@$$CBG_N@std@@PEAX@std@@_N$0A@@?$pair@PEAU?$_List_node@U?$pair@$$CBG_N@std@@PEAX@std@@_N@std@@QEAA@AEAPEAU?$_List_node@U?$pair@$$CBG_N@std@@PEAX@1@$$QEA_N@Z
	??$?0AEAPEAU?$_List_node@U?$pair@$$CBV?$basic_string@DU?$char_traits@D@std@@V?$allocator@D@2@@std@@UConfigProfile@vrc@@@std@@PEAX@std@@_N$0A@@?$pair@PEAU?$_List_node@U?$pair@$$CBV?$basic_string@DU?$char_traits@D@std@@V?$allocator@D@2@@std@@UConfigProfile@vrc@@@std@@PEAX@std@@_N@std@@QEAA@AEAPEAU?$_List_node@U?$pair@$$CBV?$basic_string@DU?$char_traits@D@std@@V?$allocator@D@2@@std@@UConfigProfile@vrc@@@std@@PEAX@1@$$QEA_N@Z
	??$?0AEAPEAU?$_List_node@U?$pair@$$CBV?$basic_string@DU?$char_traits@D@std@@V?$allocator@D@2@@std@@UInputProfile@vrc@@@std@@PEAX@std@@_N$0A@@?$pair@PEAU?$_List_node@U?$pair@$$CBV?$basic_string@DU?$char_traits@D@std@@V?$allocator@D@2@@std@@UInputProfile@vrc@@@std@@PEAX@std@@_N@std@@QEAA@AEAPEAU?$_List_node@U?$pair@$$CBV?$basic_string@DU?$char_traits@D@std@@V?$allocator@D@2@@std@@UInputProfile@vrc@@@std@@PEAX@1@$$QEA_N@Z
	??$?0AEAPEAU?$_List_node@U?$pair@$$CBV?$basic_string@DU?$char_traits@D@std@@V?$allocator@D@2@@std@@V?$function@$$A6AXXZ@2@@std@@PEAX@std@@_N$0A@@?$pair@PEAU?$_List_node@U?$pair@$$CBV?$basic_string@DU?$char_traits@D@std@@V?$allocator@D@2@@std@@V?$function@$$A6AXXZ@2@@std@@PEAX@std@@_N@std@@QEAA@AEAPEAU?$_List_node@U?$pair@$$CBV?$basic_string@DU?$char_traits@D@std@@V?$allocator@D@2@@std@@V?$function@$$A6AXXZ@2@@std@@PEAX@1@$$QEA_N@Z
	??$?0AEAPEAU?$_List_node@U?$pair@$$CBW4InputAction@vrc@@M@std@@PEAX@std@@_N$0A@@?$pair@PEAU?$_List_node@U?$pair@$$CBW4InputAction@vrc@@M@std@@PEAX@std@@_N@std@@QEAA@AEAPEAU?$_List_node@U?$pair@$$CBW4InputAction@vrc@@M@std@@PEAX@1@$$QEA_N@Z
	??$?0AEAPEAU?$_Tree_node@U?$pair@$$CBV?$basic_string@DU?$char_traits@D@std@@V?$allocator@D@2@@std@@V?$basic_json@Vmap@std@@Vvector@2@V?$basic_string@DU?$char_traits@D@std@@V?$allocator@D@2@@2@_N_J_KNVallocator@2@Uadl_serializer@json_abi_v3_11_3@nlohmann@@V?$vector@EV?$allocator@E@std@@@2@X@json_abi_v3_11_3@nlohmann@@@std@@PEAX@std@@_N$0A@@?$pair@PEAU?$_Tree_node@U?$pair@$$CBV?$basic_string@DU?$char_traits@D@std@@V?$allocator@D@2@@std@@V?$basic_json@Vmap@std@@Vvector@2@V?$basic_string@DU?$char_traits@D@std@@V?$allocator@D@2@@2@_N_J_KNVallocator@2@Uadl_serializer@json_abi_v3_11_3@nlohmann@@V?$vector@EV?$allocator@E@std@@@2@X@json_abi_v3_11_3@nlohmann@@@std@@PEAX@std@@_N@std@@QEAA@AEAPEAU?$_Tree_node@U?$pair@$$CBV?$basic_string@DU?$char_traits@D@std@@V?$allocator@D@2@@std@@V?$basic_json@Vmap@std@@Vvector@2@V?$basic_string@DU?$char_traits@D@std@@V?$allocator@D@2@@2@_N_J_KNVallocator@2@Uadl_serializer@json_abi_v3_11_3@nlohmann@@V?$vector@EV?$allocator@E@std@@@2@X@json_abi_v3_11_3@nlohmann@@@std@@PEAX@1@$$QEA_N@Z
	??$?0AEAPEAV?$tuple@P8OpenXRContext@vrc@@EAAXXZPEAV12@@std@@@?$_Compressed_pair@U?$default_delete@V?$tuple@P8OpenXRContext@vrc@@EAAXXZPEAV12@@std@@@std@@PEAV?$tuple@P8OpenXRContext@vrc@@EAAXXZPEAV12@@2@$00@std@@QEAA@U_Zero_then_variadic_args_t@1@AEAPEAV?$tuple@P8OpenXRContext@vrc@@EAAXXZPEAV12@@1@@Z
	??$?0AEAPEAV_Facet_base@std@@@?$_Compressed_pair@U?$default_delete@V_Facet_base@std@@@std@@PEAV_Facet_base@2@$00@std@@QEAA@U_Zero_then_variadic_args_t@1@AEAPEAV_Facet_base@1@@Z
	??$?0AEAPEAXAEAP6AJPEAUIDXGISwapChain@@II@Z$0A@@?$pair@PEAXP6AJPEAUIDXGISwapChain@@II@Z@std@@QEAA@AEAPEAXAEAP6AJPEAUIDXGISwapChain@@II@Z@Z
	??$?0AEAV?$basic_string@DU?$char_traits@D@std@@V?$allocator@D@2@@std@@@?$_Ref_count_obj2@V?$output_string_adapter@DV?$basic_string@DU?$char_traits@D@std@@V?$allocator@D@2@@std@@@detail@json_abi_v3_11_3@nlohmann@@@std@@QEAA@AEAV?$basic_string@DU?$char_traits@D@std@@V?$allocator@D@2@@1@@Z
	??$?0AEAV?$basic_string@DU?$char_traits@D@std@@V?$allocator@D@2@@std@@V01@$0A@@?$basic_json@Vmap@std@@Vvector@2@V?$basic_string@DU?$char_traits@D@std@@V?$allocator@D@2@@2@_N_J_KNVallocator@2@Uadl_serializer@json_abi_v3_11_3@nlohmann@@V?$vector@EV?$allocator@E@std@@@2@X@json_abi_v3_11_3@nlohmann@@QEAA@AEAV?$basic_string@DU?$char_traits@D@std@@V?$allocator@D@2@@std@@@Z
	??$?0AEA_J_J$0A@@?$basic_json@Vmap@std@@Vvector@2@V?$basic_string@DU?$char_traits@D@std@@V?$allocator@D@2@@2@_N_J_KNVallocator@2@Uadl_serializer@json_abi_v3_11_3@nlohmann@@V?$vector@EV?$allocator@E@std@@@2@X@json_abi_v3_11_3@nlohmann@@QEAA@AEA_J@Z
	??$?0AEA_K_K$0A@@?$basic_json@Vmap@std@@Vvector@2@V?$basic_string@DU?$char_traits@D@std@@V?$allocator@D@2@@2@_N_J_KNVallocator@2@Uadl_serializer@json_abi_v3_11_3@nlohmann@@V?$vector@EV?$allocator@E@std@@@2@X@json_abi_v3_11_3@nlohmann@@QEAA@AEA_K@Z
	??$?0AEA_N_N$0A@@?$basic_json@Vmap@std@@Vvector@2@V?$basic_string@DU?$char_traits@D@std@@V?$allocator@D@2@@2@_N_J_KNVallocator@2@Uadl_serializer@json_abi_v3_11_3@nlohmann@@V?$vector@EV?$allocator@E@std@@@2@X@json_abi_v3_11_3@nlohmann@@QEAA@AEA_N@Z
	??$?0AEBG$$Z$$V@?$pair@$$CBG_N@std@@QEAA@Upiecewise_construct_t@1@V?$tuple@AEBG@1@V?$tuple@$$V@1@@Z
	??$?0AEBG$0A@@?$tuple@AEBG@std@@QEAA@AEBG@Z
	??$?0AEBG@?$_Tuple_val@AEBG@std@@QEAA@AEBG@Z
	??$?0AEBMM$0A@@?$basic_json@Vmap@std@@Vvector@2@V?$basic_string@DU?$char_traits@D@std@@V?$allocator@D@2@@2@_N_J_KNVallocator@2@Uadl_serializer@json_abi_v3_11_3@nlohmann@@V?$vector@EV?$allocator@E@std@@@2@X@json_abi_v3_11_3@nlohmann@@QEAA@AEBM@Z
	??$?0AEBQEADW4errc@std@@$0A@@?$pair@PEADW4errc@std@@@std@@QEAA@AEBQEAD$$QEAW4errc@1@@Z
	??$?0AEBQEAU?$_Tree_node@U?$pair@$$CBV?$basic_string@DU?$char_traits@D@std@@V?$allocator@D@2@@std@@V?$basic_json@Vmap@std@@Vvector@2@V?$basic_string@DU?$char_traits@D@std@@V?$allocator@D@2@@2@_N_J_KNVallocator@2@Uadl_serializer@json_abi_v3_11_3@nlohmann@@V?$vector@EV?$allocator@E@std@@@2@X@json_abi_v3_11_3@nlohmann@@@std@@PEAX@std@@_N$0A@@?$pair@PEAU?$_Tree_node@U?$pair@$$CBV?$basic_string@DU?$char_traits@D@std@@V?$allocator@D@2@@std@@V?$basic_json@Vmap@std@@Vvector@2@V?$basic_string@DU?$char_traits@D@std@@V?$allocator@D@2@@2@_N_J_KNVallocator@2@Uadl_serializer@json_abi_v3_11_3@nlohmann@@V?$vector@EV?$allocator@E@std@@@2@X@json_abi_v3_11_3@nlohmann@@@std@@PEAX@std@@_N@std@@QEAA@AEBQEAU?$_Tree_node@U?$pair@$$CBV?$basic_string@DU?$char_traits@D@std@@V?$allocator@D@2@@std@@V?$basic_json@Vmap@std@@Vvector@2@V?$basic_string@DU?$char_traits@D@std@@V?$allocator@D@2@@2@_N_J_KNVallocator@2@Uadl_serializer@json_abi_v3_11_3@nlohmann@@V?$vector@EV?$allocator@E@std@@@2@X@json_abi_v3_11_3@nlohmann@@@std@@PEAX@1@$$QEA_N@Z
	??$?0AEBU?$less@X@std@@U_Zero_then_variadic_args_t@1@@?$_Compressed_pair@U?$less@X@std@@V?$_Compressed_pair@V?$allocator@U?$_Tree_node@U?$pair@$$CBV?$basic_string@DU?$char_traits@D@std@@V?$allocator@D@2@@std@@V?$basic_json@Vmap@std@@Vvector@2@V?$basic_string@DU?$char_traits@D@std@@V?$allocator@D@2@@2@_N_J_KNVallocator@2@Uadl_serializer@json_abi_v3_11_3@nlohmann@@V?$vector@EV?$allocator@E@std@@@2@X@json_abi_v3_11_3@nlohmann@@@std@@PEAX@std@@@std@@V?$_Tree_val@U?$_Tree_simple_types@U?$pair@$$CBV?$basic_string@DU?$char_traits@D@std@@V?$allocator@D@2@@std@@V?$basic_json@Vmap@std@@Vvector@2@V?$basic_string@DU?$char_traits@D@std@@V?$allocator@D@2@@2@_N_J_KNVallocator@2@Uadl_serializer@json_abi_v3_11_3@nlohmann@@V?$vector@EV?$allocator@E@std@@@2@X@json_abi_v3_11_3@nlohmann@@@std@@@std@@@2@$00@2@$00@std@@QEAA@U_One_then_variadic_args_t@1@AEBU?$less@X@1@$$QEAU_Zero_then_variadic_args_t@1@@Z
	??$?0AEBUpiecewise_construct_t@std@@V?$tuple@$$QEAV?$basic_string@DU?$char_traits@D@std@@V?$allocator@D@2@@std@@@1@V?$tuple@$$V@1@@?$_List_node_emplace_op2@V?$allocator@U?$_List_node@U?$pair@$$CBV?$basic_string@DU?$char_traits@D@std@@V?$allocator@D@2@@std@@UConfigProfile@vrc@@@std@@PEAX@std@@@std@@@std@@QEAA@AEAV?$allocator@U?$_List_node@U?$pair@$$CBV?$basic_string@DU?$char_traits@D@std@@V?$allocator@D@2@@std@@UConfigProfile@vrc@@@std@@PEAX@std@@@1@AEBUpiecewise_construct_t@1@$$QEAV?$tuple@$$QEAV?$basic_string@DU?$char_traits@D@std@@V?$allocator@D@2@@std@@@1@$$QEAV?$tuple@$$V@1@@Z
	??$?0AEBUpiecewise_construct_t@std@@V?$tuple@$$QEAW4InputAction@vrc@@@1@V?$tuple@$$V@1@@?$_List_node_emplace_op2@V?$allocator@U?$_List_node@U?$pair@$$CBW4InputAction@vrc@@M@std@@PEAX@std@@@std@@@std@@QEAA@AEAV?$allocator@U?$_List_node@U?$pair@$$CBW4InputAction@vrc@@M@std@@PEAX@std@@@1@AEBUpiecewise_construct_t@1@$$QEAV?$tuple@$$QEAW4InputAction@vrc@@@1@$$QEAV?$tuple@$$V@1@@Z
	??$?0AEBUpiecewise_construct_t@std@@V?$tuple@AEBG@1@V?$tuple@$$V@1@@?$_List_node_emplace_op2@V?$allocator@U?$_List_node@U?$pair@$$CBG_N@std@@PEAX@std@@@std@@@std@@QEAA@AEAV?$allocator@U?$_List_node@U?$pair@$$CBG_N@std@@PEAX@std@@@1@AEBUpiecewise_construct_t@1@$$QEAV?$tuple@AEBG@1@$$QEAV?$tuple@$$V@1@@Z
	??$?0AEBUpiecewise_construct_t@std@@V?$tuple@AEBV?$basic_string@DU?$char_traits@D@std@@V?$allocator@D@2@@std@@@1@V?$tuple@$$V@1@@?$_List_node_emplace_op2@V?$allocator@U?$_List_node@U?$pair@$$CBV?$basic_string@DU?$char_traits@D@std@@V?$allocator@D@2@@std@@UConfigProfile@vrc@@@std@@PEAX@std@@@std@@@std@@QEAA@AEAV?$allocator@U?$_List_node@U?$pair@$$CBV?$basic_string@DU?$char_traits@D@std@@V?$allocator@D@2@@std@@UConfigProfile@vrc@@@std@@PEAX@std@@@1@AEBUpiecewise_construct_t@1@$$QEAV?$tuple@AEBV?$basic_string@DU?$char_traits@D@std@@V?$allocator@D@2@@std@@@1@$$QEAV?$tuple@$$V@1@@Z
	??$?0AEBUpiecewise_construct_t@std@@V?$tuple@AEBV?$basic_string@DU?$char_traits@D@std@@V?$allocator@D@2@@std@@@1@V?$tuple@$$V@1@@?$_List_node_emplace_op2@V?$allocator@U?$_List_node@U?$pair@$$CBV?$basic_string@DU?$char_traits@D@std@@V?$allocator@D@2@@std@@UInputProfile@vrc@@@std@@PEAX@std@@@std@@@std@@QEAA@AEAV?$allocator@U?$_List_node@U?$pair@$$CBV?$basic_string@DU?$char_traits@D@std@@V?$allocator@D@2@@std@@UInputProfile@vrc@@@std@@PEAX@std@@@1@AEBUpiecewise_construct_t@1@$$QEAV?$tuple@AEBV?$basic_string@DU?$char_traits@D@std@@V?$allocator@D@2@@std@@@1@$$QEAV?$tuple@$$V@1@@Z
	??$?0AEBUpiecewise_construct_t@std@@V?$tuple@AEBV?$basic_string@DU?$char_traits@D@std@@V?$allocator@D@2@@std@@@1@V?$tuple@$$V@1@@?$_List_node_emplace_op2@V?$allocator@U?$_List_node@U?$pair@$$CBV?$basic_string@DU?$char_traits@D@std@@V?$allocator@D@2@@std@@V?$function@$$A6AXXZ@2@@std@@PEAX@std@@@std@@@std@@QEAA@AEAV?$allocator@U?$_List_node@U?$pair@$$CBV?$basic_string@DU?$char_traits@D@std@@V?$allocator@D@2@@std@@V?$function@$$A6AXXZ@2@@std@@PEAX@std@@@1@AEBUpiecewise_construct_t@1@$$QEAV?$tuple@AEBV?$basic_string@DU?$char_traits@D@std@@V?$allocator@D@2@@std@@@1@$$QEAV?$tuple@$$V@1@@Z
	??$?0AEBUpiecewise_construct_t@std@@V?$tuple@AEBV?$basic_string@DU?$char_traits@D@std@@V?$allocator@D@2@@std@@@1@V?$tuple@$$V@1@@?$_Tree_temp_node@V?$allocator@U?$_Tree_node@U?$pair@$$CBV?$basic_string@DU?$char_traits@D@std@@V?$allocator@D@2@@std@@V?$basic_json@Vmap@std@@Vvector@2@V?$basic_string@DU?$char_traits@D@std@@V?$allocator@D@2@@2@_N_J_KNVallocator@2@Uadl_serializer@json_abi_v3_11_3@nlohmann@@V?$vector@EV?$allocator@E@std@@@2@X@json_abi_v3_11_3@nlohmann@@@std@@PEAX@std@@@std@@@std@@QEAA@AEAV?$allocator@U?$_Tree_node@U?$pair@$$CBV?$basic_string@DU?$char_traits@D@std@@V?$allocator@D@2@@std@@V?$basic_json@Vmap@std@@Vvector@2@V?$basic_string@DU?$char_traits@D@std@@V?$allocator@D@2@@2@_N_J_KNVallocator@2@Uadl_serializer@json_abi_v3_11_3@nlohmann@@V?$vector@EV?$allocator@E@std@@@2@X@json_abi_v3_11_3@nlohmann@@@std@@PEAX@std@@@1@PEAU?$_Tree_node@U?$pair@$$CBV?$basic_string@DU?$char_traits@D@std@@V?$allocator@D@2@@std@@V?$basic_json@Vmap@std@@Vvector@2@V?$basic_string@DU?$char_traits@D@std@@V?$allocator@D@2@@2@_N_J_KNVallocator@2@Uadl_serializer@json_abi_v3_11_3@nlohmann@@V?$vector@EV?$allocator@E@std@@@2@X@json_abi_v3_11_3@nlohmann@@@std@@PEAX@1@AEBUpiecewise_construct_t@1@$$QEAV?$tuple@AEBV?$basic_string@DU?$char_traits@D@std@@V?$allocator@D@2@@std@@@1@$$QEAV?$tuple@$$V@1@@Z
	??$?0AEBUpiecewise_construct_t@std@@V?$tuple@AEBW4InputAction@vrc@@@1@V?$tuple@$$V@1@@?$_List_node_emplace_op2@V?$allocator@U?$_List_node@U?$pair@$$CBW4InputAction@vrc@@M@std@@PEAX@std@@@std@@@std@@QEAA@AEAV?$allocator@U?$_List_node@U?$pair@$$CBW4InputAction@vrc@@M@std@@PEAX@std@@@1@AEBUpiecewise_construct_t@1@$$QEAV?$tuple@AEBW4InputAction@vrc@@@1@$$QEAV?$tuple@$$V@1@@Z
	??$?0AEBV<lambda_1>@?1???$create@V?$basic_string@DU?$char_traits@D@std@@V?$allocator@D@2@@std@@AEAY00$$CBD@?$basic_json@Vmap@std@@Vvector@2@V?$basic_string@DU?$char_traits@D@std@@V?$allocator@D@2@@2@_N_J_KNVallocator@2@Uadl_serializer@json_abi_v3_11_3@nlohmann@@V?$vector@EV?$allocator@E@std@@@2@X@json_abi_v3_11_3@nlohmann@@CAPEAV?$basic_string@DU?$char_traits@D@std@@V?$allocator@D@2@@std@@AEAY00$$CBD@Z@AEAPEAV45@@?$_Compressed_pair@V<lambda_1>@?1???$create@V?$basic_string@DU?$char_traits@D@std@@V?$allocator@D@2@@std@@AEAY00$$CBD@?$basic_json@Vmap@std@@Vvector@2@V?$basic_string@DU?$char_traits@D@std@@V?$allocator@D@2@@2@_N_J_KNVallocator@2@Uadl_serializer@json_abi_v3_11_3@nlohmann@@V?$vector@EV?$allocator@E@std@@@2@X@json_abi_v3_11_3@nlohmann@@CAPEAV?$basic_string@DU?$char_traits@D@std@@V?$allocator@D@2@@std@@AEAY00$$CBD@Z@PEAV56@$0A@@std@@QEAA@U_One_then_variadic_args_t@1@AEBV<lambda_1>@?1???$create@V?$basic_string@DU?$char_traits@D@std@@V?$allocator@D@2@@std@@AEAY00$$CBD@?$basic_json@Vmap@std@@Vvector@2@V?$basic_string@DU?$char_traits@D@std@@V?$allocator@D@2@@2@_N_J_KNVallocator@2@Uadl_serializer@json_abi_v3_11_3@nlohmann@@V?$vector@EV?$allocator@E@std@@@2@X@json_abi_v3_11_3@nlohmann@@CAPEAV?$basic_string@DU?$char_traits@D@std@@V?$allocator@D@2@@1@AEAY00$$CBD@Z@AEAPEAV71@@Z
	??$?0AEBV<lambda_1>@?1???$create@V?$basic_string@DU?$char_traits@D@std@@V?$allocator@D@2@@std@@AEBV12@@?$basic_json@Vmap@std@@Vvector@2@V?$basic_string@DU?$char_traits@D@std@@V?$allocator@D@2@@2@_N_J_KNVallocator@2@Uadl_serializer@json_abi_v3_11_3@nlohmann@@V?$vector@EV?$allocator@E@std@@@2@X@json_abi_v3_11_3@nlohmann@@CAPEAV?$basic_string@DU?$char_traits@D@std@@V?$allocator@D@2@@std@@AEBV45@@Z@AEAPEAV45@@?$_Compressed_pair@V<lambda_1>@?1???$create@V?$basic_string@DU?$char_traits@D@std@@V?$allocator@D@2@@std@@AEBV12@@?$basic_json@Vmap@std@@Vvector@2@V?$basic_string@DU?$char_traits@D@std@@V?$allocator@D@2@@2@_N_J_KNVallocator@2@Uadl_serializer@json_abi_v3_11_3@nlohmann@@V?$vector@EV?$allocator@E@std@@@2@X@json_abi_v3_11_3@nlohmann@@CAPEAV?$basic_string@DU?$char_traits@D@std@@V?$allocator@D@2@@std@@AEBV56@@Z@PEAV56@$0A@@std@@QEAA@U_One_then_variadic_args_t@1@AEBV<lambda_1>@?1???$create@V?$basic_string@DU?$char_traits@D@std@@V?$allocator@D@2@@std@@AEBV12@@?$basic_json@Vmap@std@@Vvector@2@V?$basic_string@DU?$char_traits@D@std@@V?$allocator@D@2@@2@_N_J_KNVallocator@2@Uadl_serializer@json_abi_v3_11_3@nlohmann@@V?$vector@EV?$allocator@E@std@@@2@X@json_abi_v3_11_3@nlohmann@@CAPEAV?$basic_string@DU?$char_traits@D@std@@V?$allocator@D@2@@1@AEBV71@@Z@AEAPEAV71@@Z
	??$?0AEBV<lambda_1>@?1???$create@V?$byte_container_with_subtype@V?$vector@EV?$allocator@E@std@@@std@@@json_abi_v3_11_3@nlohmann@@$$V@?$basic_json@Vmap@std@@Vvector@2@V?$basic_string@DU?$char_traits@D@std@@V?$allocator@D@2@@2@_N_J_KNVallocator@2@Uadl_serializer@json_abi_v3_11_3@nlohmann@@V?$vector@EV?$allocator@E@std@@@2@X@json_abi_v3_11_3@nlohmann@@CAPEAV?$byte_container_with_subtype@V?$vector@EV?$allocator@E@std@@@std@@@23@XZ@AEAPEAV423@@?$_Compressed_pair@V<lambda_1>@?1???$create@V?$byte_container_with_subtype@V?$vector@EV?$allocator@E@std@@@std@@@json_abi_v3_11_3@nlohmann@@$$V@?$basic_json@Vmap@std@@Vvector@2@V?$basic_string@DU?$char_traits@D@std@@V?$allocator@D@2@@2@_N_J_KNVallocator@2@Uadl_serializer@json_abi_v3_11_3@nlohmann@@V?$vector@EV?$allocator@E@std@@@2@X@json_abi_v3_11_3@nlohmann@@CAPEAV?$byte_container_with_subtype@V?$vector@EV?$allocator@E@std@@@std@@@34@XZ@PEAV534@$0A@@std@@QEAA@U_One_then_variadic_args_t@1@AEBV<lambda_1>@?1???$create@V?$byte_container_with_subtype@V?$vector@EV?$allocator@E@std@@@std@@@json_abi_v3_11_3@nlohmann@@$$V@?$basic_json@Vmap@std@@Vvector@2@V?$basic_string@DU?$char_traits@D@std@@V?$allocator@D@2@@2@_N_J_KNVallocator@2@Uadl_serializer@json_abi_v3_11_3@nlohmann@@V?$vector@EV?$allocator@E@std@@@2@X@json_abi_v3_11_3@nlohmann@@CAPEAV?$byte_container_with_subtype@V?$vector@EV?$allocator@E@std@@@std@@@56@XZ@AEAPEAV756@@Z
	??$?0AEBV<lambda_1>@?1???$create@V?$byte_container_with_subtype@V?$vector@EV?$allocator@E@std@@@std@@@json_abi_v3_11_3@nlohmann@@AEBV123@@?$basic_json@Vmap@std@@Vvector@2@V?$basic_string@DU?$char_traits@D@std@@V?$allocator@D@2@@2@_N_J_KNVallocator@2@Uadl_serializer@json_abi_v3_11_3@nlohmann@@V?$vector@EV?$allocator@E@std@@@2@X@json_abi_v3_11_3@nlohmann@@CAPEAV?$byte_container_with_subtype@V?$vector@EV?$allocator@E@std@@@std@@@23@AEBV423@@Z@AEAPEAV423@@?$_Compressed_pair@V<lambda_1>@?1???$create@V?$byte_container_with_subtype@V?$vector@EV?$allocator@E@std@@@std@@@json_abi_v3_11_3@nlohmann@@AEBV123@@?$basic_json@Vmap@std@@Vvector@2@V?$basic_string@DU?$char_traits@D@std@@V?$allocator@D@2@@2@_N_J_KNVallocator@2@Uadl_serializer@json_abi_v3_11_3@nlohmann@@V?$vector@EV?$allocator@E@std@@@2@X@json_abi_v3_11_3@nlohmann@@CAPEAV?$byte_container_with_subtype@V?$vector@EV?$allocator@E@std@@@std@@@34@AEBV534@@Z@PEAV534@$0A@@std@@QEAA@U_One_then_variadic_args_t@1@AEBV<lambda_1>@?1???$create@V?$byte_container_with_subtype@V?$vector@EV?$allocator@E@std@@@std@@@json_abi_v3_11_3@nlohmann@@AEBV123@@?$basic_json@Vmap@std@@Vvector@2@V?$basic_string@DU?$char_traits@D@std@@V?$allocator@D@2@@2@_N_J_KNVallocator@2@Uadl_serializer@json_abi_v3_11_3@nlohmann@@V?$vector@EV?$allocator@E@std@@@2@X@json_abi_v3_11_3@nlohmann@@CAPEAV?$byte_container_with_subtype@V?$vector@EV?$allocator@E@std@@@std@@@56@AEBV756@@Z@AEAPEAV756@@Z
	??$?0AEBV<lambda_1>@?1???$create@V?$vector@V?$basic_json@Vmap@std@@Vvector@2@V?$basic_string@DU?$char_traits@D@std@@V?$allocator@D@2@@2@_N_J_KNVallocator@2@Uadl_serializer@json_abi_v3_11_3@nlohmann@@V?$vector@EV?$allocator@E@std@@@2@X@json_abi_v3_11_3@nlohmann@@V?$allocator@V?$basic_json@Vmap@std@@Vvector@2@V?$basic_string@DU?$char_traits@D@std@@V?$allocator@D@2@@2@_N_J_KNVallocator@2@Uadl_serializer@json_abi_v3_11_3@nlohmann@@V?$vector@EV?$allocator@E@std@@@2@X@json_abi_v3_11_3@nlohmann@@@std@@@std@@$$V@?$basic_json@Vmap@std@@Vvector@2@V?$basic_string@DU?$char_traits@D@std@@V?$allocator@D@2@@2@_N_J_KNVallocator@2@Uadl_serializer@json_abi_v3_11_3@nlohmann@@V?$vector@EV?$allocator@E@std@@@2@X@json_abi_v3_11_3@nlohmann@@CAPEAV?$vector@V?$basic_json@Vmap@std@@Vvector@2@V?$basic_string@DU?$char_traits@D@std@@V?$allocator@D@2@@2@_N_J_KNVallocator@2@Uadl_serializer@json_abi_v3_11_3@nlohmann@@V?$vector@EV?$allocator@E@std@@@2@X@json_abi_v3_11_3@nlohmann@@V?$allocator@V?$basic_json@Vmap@std@@Vvector@2@V?$basic_string@DU?$char_traits@D@std@@V?$allocator@D@2@@2@_N_J_KNVallocator@2@Uadl_serializer@json_abi_v3_11_3@nlohmann@@V?$vector@EV?$allocator@E@std@@@2@X@json_abi_v3_11_3@nlohmann@@@std@@@std@@XZ@AEAPEAV45@@?$_Compressed_pair@V<lambda_1>@?1???$create@V?$vector@V?$basic_json@Vmap@std@@Vvector@2@V?$basic_string@DU?$char_traits@D@std@@V?$allocator@D@2@@2@_N_J_KNVallocator@2@Uadl_serializer@json_abi_v3_11_3@nlohmann@@V?$vector@EV?$allocator@E@std@@@2@X@json_abi_v3_11_3@nlohmann@@V?$allocator@V?$basic_json@Vmap@std@@Vvector@2@V?$basic_string@DU?$char_traits@D@std@@V?$allocator@D@2@@2@_N_J_KNVallocator@2@Uadl_serializer@json_abi_v3_11_3@nlohmann@@V?$vector@EV?$allocator@E@std@@@2@X@json_abi_v3_11_3@nlohmann@@@std@@@std@@$$V@?$basic_json@Vmap@std@@Vvector@2@V?$basic_string@DU?$char_traits@D@std@@V?$allocator@D@2@@2@_N_J_KNVallocator@2@Uadl_serializer@json_abi_v3_11_3@nlohmann@@V?$vector@EV?$allocator@E@std@@@2@X@json_abi_v3_11_3@nlohmann@@CAPEAV?$vector@V?$basic_json@Vmap@std@@Vvector@2@V?$basic_string@DU?$char_traits@D@std@@V?$allocator@D@2@@2@_N_J_KNVallocator@2@Uadl_serializer@json_abi_v3_11_3@nlohmann@@V?$vector@EV?$allocator@E@std@@@2@X@json_abi_v3_11_3@nlohmann@@V?$allocator@V?$basic_json@Vmap@std@@Vvector@2@V?$basic_string@DU?$char_traits@D@std@@V?$allocator@D@2@@2@_N_J_KNVallocator@2@Uadl_serializer@json_abi_v3_11_3@nlohmann@@V?$vector@EV?$allocator@E@std@@@2@X@json_abi_v3_11_3@nlohmann@@@std@@@std@@XZ@PEAV56@$0A@@std@@QEAA@U_One_then_variadic_args_t@1@AEBV<lambda_1>@?1???$create@V?$vector@V?$basic_json@Vmap@std@@Vvector@2@V?$basic_string@DU?$char_traits@D@std@@V?$allocator@D@2@@2@_N_J_KNVallocator@2@Uadl_serializer@json_abi_v3_11_3@nlohmann@@V?$vector@EV?$allocator@E@std@@@2@X@json_abi_v3_11_3@nlohmann@@V?$allocator@V?$basic_json@Vmap@std@@Vvector@2@V?$basic_string@DU?$char_traits@D@std@@V?$allocator@D@2@@2@_N_J_KNVallocator@2@Uadl_serializer@json_abi_v3_11_3@nlohmann@@V?$vector@EV?$allocator@E@std@@@2@X@json_abi_v3_11_3@nlohmann@@@std@@@std@@$$V@?$basic_json@Vmap@std@@Vvector@2@V?$basic_string@DU?$char_traits@D@std@@V?$allocator@D@2@@2@_N_J_KNVallocator@2@Uadl_serializer@json_abi_v3_11_3@nlohmann@@V?$vector@EV?$allocator@E@std@@@2@X@json_abi_v3_11_3@nlohmann@@CAPEAV?$vector@V?$basic_json@Vmap@std@@Vvector@2@V?$basic_string@DU?$char_traits@D@std@@V?$allocator@D@2@@2@_N_J_KNVallocator@2@Uadl_serializer@json_abi_v3_11_3@nlohmann@@V?$vector@EV?$allocator@E@std@@@2@X@json_abi_v3_11_3@nlohmann@@V?$allocator@V?$basic_json@Vmap@std@@Vvector@2@V?$basic_string@DU?$char_traits@D@std@@V?$allocator@D@2@@2@_N_J_KNVallocator@2@Uadl_serializer@json_abi_v3_11_3@nlohmann@@V?$vector@EV?$allocator@E@std@@@2@X@json_abi_v3_11_3@nlohmann@@@std@@@1@XZ@AEAPEAV71@@Z
	??$?0AEBV<lambda_1>@?1???$create@V?$vector@V?$basic_json@Vmap@std@@Vvector@2@V?$basic_string@DU?$char_traits@D@std@@V?$allocator@D@2@@2@_N_J_KNVallocator@2@Uadl_serializer@json_abi_v3_11_3@nlohmann@@V?$vector@EV?$allocator@E@std@@@2@X@json_abi_v3_11_3@nlohmann@@V?$allocator@V?$basic_json@Vmap@std@@Vvector@2@V?$basic_string@DU?$char_traits@D@std@@V?$allocator@D@2@@2@_N_J_KNVallocator@2@Uadl_serializer@json_abi_v3_11_3@nlohmann@@V?$vector@EV?$allocator@E@std@@@2@X@json_abi_v3_11_3@nlohmann@@@std@@@std@@AEBV12@@?$basic_json@Vmap@std@@Vvector@2@V?$basic_string@DU?$char_traits@D@std@@V?$allocator@D@2@@2@_N_J_KNVallocator@2@Uadl_serializer@json_abi_v3_11_3@nlohmann@@V?$vector@EV?$allocator@E@std@@@2@X@json_abi_v3_11_3@nlohmann@@CAPEAV?$vector@V?$basic_json@Vmap@std@@Vvector@2@V?$basic_string@DU?$char_traits@D@std@@V?$allocator@D@2@@2@_N_J_KNVallocator@2@Uadl_serializer@json_abi_v3_11_3@nlohmann@@V?$vector@EV?$allocator@E@std@@@2@X@json_abi_v3_11_3@nlohmann@@V?$allocator@V?$basic_json@Vmap@std@@Vvector@2@V?$basic_string@DU?$char_traits@D@std@@V?$allocator@D@2@@2@_N_J_KNVallocator@2@Uadl_serializer@json_abi_v3_11_3@nlohmann@@V?$vector@EV?$allocator@E@std@@@2@X@json_abi_v3_11_3@nlohmann@@@std@@@std@@AEBV45@@Z@AEAPEAV45@@?$_Compressed_pair@V<lambda_1>@?1???$create@V?$vector@V?$basic_json@Vmap@std@@Vvector@2@V?$basic_string@DU?$char_traits@D@std@@V?$allocator@D@2@@2@_N_J_KNVallocator@2@Uadl_serializer@json_abi_v3_11_3@nlohmann@@V?$vector@EV?$allocator@E@std@@@2@X@json_abi_v3_11_3@nlohmann@@V?$allocator@V?$basic_json@Vmap@std@@Vvector@2@V?$basic_string@DU?$char_traits@D@std@@V?$allocator@D@2@@2@_N_J_KNVallocator@2@Uadl_serializer@json_abi_v3_11_3@nlohmann@@V?$vector@EV?$allocator@E@std@@@2@X@json_abi_v3_11_3@nlohmann@@@std@@@std@@AEBV12@@?$basic_json@Vmap@std@@Vvector@2@V?$basic_string@DU?$char_traits@D@std@@V?$allocator@D@2@@2@_N_J_KNVallocator@2@Uadl_serializer@json_abi_v3_11_3@nlohmann@@V?$vector@EV?$allocator@E@std@@@2@X@json_abi_v3_11_3@nlohmann@@CAPEAV?$vector@V?$basic_json@Vmap@std@@Vvector@2@V?$basic_string@DU?$char_traits@D@std@@V?$allocator@D@2@@2@_N_J_KNVallocator@2@Uadl_serializer@json_abi_v3_11_3@nlohmann@@V?$vector@EV?$allocator@E@std@@@2@X@json_abi_v3_11_3@nlohmann@@V?$allocator@V?$basic_json@Vmap@std@@Vvector@2@V?$basic_string@DU?$char_traits@D@std@@V?$allocator@D@2@@2@_N_J_KNVallocator@2@Uadl_serializer@json_abi_v3_11_3@nlohmann@@V?$vector@EV?$allocator@E@std@@@2@X@json_abi_v3_11_3@nlohmann@@@std@@@std@@AEBV56@@Z@PEAV56@$0A@@std@@QEAA@U_One_then_variadic_args_t@1@AEBV<lambda_1>@?1???$create@V?$vector@V?$basic_json@Vmap@std@@Vvector@2@V?$basic_string@DU?$char_traits@D@std@@V?$allocator@D@2@@2@_N_J_KNVallocator@2@Uadl_serializer@json_abi_v3_11_3@nlohmann@@V?$vector@EV?$allocator@E@std@@@2@X@json_abi_v3_11_3@nlohmann@@V?$allocator@V?$basic_json@Vmap@std@@Vvector@2@V?$basic_string@DU?$char_traits@D@std@@V?$allocator@D@2@@2@_N_J_KNVallocator@2@Uadl_serializer@json_abi_v3_11_3@nlohmann@@V?$vector@EV?$allocator@E@std@@@2@X@json_abi_v3_11_3@nlohmann@@@std@@@std@@AEBV12@@?$basic_json@Vmap@std@@Vvector@2@V?$basic_string@DU?$char_traits@D@std@@V?$allocator@D@2@@2@_N_J_KNVallocator@2@Uadl_serializer@json_abi_v3_11_3@nlohmann@@V?$vector@EV?$allocator@E@std@@@2@X@json_abi_v3_11_3@nlohmann@@CAPEAV?$vector@V?$basic_json@Vmap@std@@Vvector@2@V?$basic_string@DU?$char_traits@D@std@@V?$allocator@D@2@@2@_N_J_KNVallocator@2@Uadl_serializer@json_abi_v3_11_3@nlohmann@@V?$vector@EV?$allocator@E@std@@@2@X@json_abi_v3_11_3@nlohmann@@V?$allocator@V?$basic_json@Vmap@std@@Vvector@2@V?$basic_string@DU?$char_traits@D@std@@V?$allocator@D@2@@2@_N_J_KNVallocator@2@Uadl_serializer@json_abi_v3_11_3@nlohmann@@V?$vector@EV?$allocator@E@std@@@2@X@json_abi_v3_11_3@nlohmann@@@std@@@1@AEBV71@@Z@AEAPEAV71@@Z
	??$?0AEBV<lambda_1>@?1??initialize@VRConverter@vrc@@QEAA_NXZ@$0A@@?$_Func_impl_no_alloc@V<lambda_1>@?1??initialize@VRConverter@vrc@@QEAA_NXZ@_NAEAUHookContext@4@@std@@QEAA@AEBV<lambda_1>@?1??initialize@VRConverter@vrc@@QEAA_NXZ@@Z
	??$?0AEBV<lambda_2>@?1??initialize@VRConverter@vrc@@QEAA_NXZ@$0A@@?$_Func_impl_no_alloc@V<lambda_2>@?1??initialize@VRConverter@vrc@@QEAA_NXZ@XAEBUFrameCapture@4@@std@@QEAA@AEBV<lambda_2>@?1??initialize@VRConverter@vrc@@QEAA_NXZ@@Z
	??$?0AEBV?$allocator@D@std@@$$V@?$_Compressed_pair@V?$allocator@D@std@@V?$_String_val@U?$_Simple_types@D@std@@@2@$00@std@@QEAA@U_One_then_variadic_args_t@1@AEBV?$allocator@D@1@@Z
	??$?0AEBV?$allocator@I@std@@$$V@?$_Compressed_pair@V?$allocator@I@std@@V?$_Vector_val@U?$_Simple_types@I@std@@@2@$00@std@@QEAA@U_One_then_variadic_args_t@1@AEBV?$allocator@I@1@@Z
	??$?0AEBV?$allocator@U?$pair@$$CBG_N@std@@@std@@$$V@?$_Compressed_pair@V?$allocator@U?$_List_node@U?$pair@$$CBG_N@std@@PEAX@std@@@std@@V?$_List_val@U?$_List_simple_types@U?$pair@$$CBG_N@std@@@std@@@2@$00@std@@QEAA@U_One_then_variadic_args_t@1@AEBV?$allocator@U?$pair@$$CBG_N@std@@@1@@Z
	??$?0AEBV?$allocator@U?$pair@$$CBG_N@std@@@std@@$$V@?$_Compressed_pair@V?$allocator@V?$_List_unchecked_iterator@V?$_List_val@U?$_List_simple_types@U?$pair@$$CBG_N@std@@@std@@@std@@@std@@@std@@V?$_Vector_val@U?$_Simple_types@V?$_List_unchecked_iterator@V?$_List_val@U?$_List_simple_types@U?$pair@$$CBG_N@std@@@std@@@std@@@std@@@std@@@2@$00@std@@QEAA@U_One_then_variadic_args_t@1@AEBV?$allocator@U?$pair@$$CBG_N@std@@@1@@Z
	??$?0AEBV?$allocator@U?$pair@$$CBG_N@std@@@std@@$0A@@?$_Hash_vec@V?$allocator@V?$_List_unchecked_iterator@V?$_List_val@U?$_List_simple_types@U?$pair@$$CBG_N@std@@@std@@@std@@@std@@@std@@@std@@QEAA@AEBV?$allocator@U?$pair@$$CBG_N@std@@@1@@Z
	??$?0AEBV?$allocator@U?$pair@$$CBV?$basic_string@DU?$char_traits@D@std@@V?$allocator@D@2@@std@@UConfigProfile@vrc@@@std@@@std@@$$V@?$_Compressed_pair@V?$allocator@U?$_List_node@U?$pair@$$CBV?$basic_string@DU?$char_traits@D@std@@V?$allocator@D@2@@std@@UConfigProfile@vrc@@@std@@PEAX@std@@@std@@V?$_List_val@U?$_List_simple_types@U?$pair@$$CBV?$basic_string@DU?$char_traits@D@std@@V?$allocator@D@2@@std@@UConfigProfile@vrc@@@std@@@std@@@2@$00@std@@QEAA@U_One_then_variadic_args_t@1@AEBV?$allocator@U?$pair@$$CBV?$basic_string@DU?$char_traits@D@std@@V?$allocator@D@2@@std@@UConfigProfile@vrc@@@std@@@1@@Z
	??$?0AEBV?$allocator@U?$pair@$$CBV?$basic_string@DU?$char_traits@D@std@@V?$allocator@D@2@@std@@UConfigProfile@vrc@@@std@@@std@@$$V@?$_Compressed_pair@V?$allocator@V?$_List_unchecked_iterator@V?$_List_val@U?$_List_simple_types@U?$pair@$$CBV?$basic_string@DU?$char_traits@D@std@@V?$allocator@D@2@@std@@UConfigProfile@vrc@@@std@@@std@@@std@@@std@@@std@@V?$_Vector_val@U?$_Simple_types@V?$_List_unchecked_iterator@V?$_List_val@U?$_List_simple_types@U?$pair@$$CBV?$basic_string@DU?$char_traits@D@std@@V?$allocator@D@2@@std@@UConfigProfile@vrc@@@std@@@std@@@std@@@std@@@std@@@2@$00@std@@QEAA@U_One_then_variadic_args_t@1@AEBV?$allocator@U?$pair@$$CBV?$basic_string@DU?$char_traits@D@std@@V?$allocator@D@2@@std@@UConfigProfile@vrc@@@std@@@1@@Z
	??$?0AEBV?$allocator@U?$pair@$$CBV?$basic_string@DU?$char_traits@D@std@@V?$allocator@D@2@@std@@UConfigProfile@vrc@@@std@@@std@@$0A@@?$_Hash_vec@V?$allocator@V?$_List_unchecked_iterator@V?$_List_val@U?$_List_simple_types@U?$pair@$$CBV?$basic_string@DU?$char_traits@D@std@@V?$allocator@D@2@@std@@UConfigProfile@vrc@@@std@@@std@@@std@@@std@@@std@@@std@@QEAA@AEBV?$allocator@U?$pair@$$CBV?$basic_string@DU?$char_traits@D@std@@V?$allocator@D@2@@std@@UConfigProfile@vrc@@@std@@@1@@Z
	??$?0AEBV?$allocator@U?$pair@$$CBV?$basic_string@DU?$char_traits@D@std@@V?$allocator@D@2@@std@@UInputProfile@vrc@@@std@@@std@@$$V@?$_Compressed_pair@V?$allocator@U?$_List_node@U?$pair@$$CBV?$basic_string@DU?$char_traits@D@std@@V?$allocator@D@2@@std@@UInputProfile@vrc@@@std@@PEAX@std@@@std@@V?$_List_val@U?$_List_simple_types@U?$pair@$$CBV?$basic_string@DU?$char_traits@D@std@@V?$allocator@D@2@@std@@UInputProfile@vrc@@@std@@@std@@@2@$00@std@@QEAA@U_One_then_variadic_args_t@1@AEBV?$allocator@U?$pair@$$CBV?$basic_string@DU?$char_traits@D@std@@V?$allocator@D@2@@std@@UInputProfile@vrc@@@std@@@1@@Z
	??$?0AEBV?$allocator@U?$pair@$$CBV?$basic_string@DU?$char_traits@D@std@@V?$allocator@D@2@@std@@UInputProfile@vrc@@@std@@@std@@$$V@?$_Compressed_pair@V?$allocator@V?$_List_unchecked_iterator@V?$_List_val@U?$_List_simple_types@U?$pair@$$CBV?$basic_string@DU?$char_traits@D@std@@V?$allocator@D@2@@std@@UInputProfile@vrc@@@std@@@std@@@std@@@std@@@std@@V?$_Vector_val@U?$_Simple_types@V?$_List_unchecked_iterator@V?$_List_val@U?$_List_simple_types@U?$pair@$$CBV?$basic_string@DU?$char_traits@D@std@@V?$allocator@D@2@@std@@UInputProfile@vrc@@@std@@@std@@@std@@@std@@@std@@@2@$00@std@@QEAA@U_One_then_variadic_args_t@1@AEBV?$allocator@U?$pair@$$CBV?$basic_string@DU?$char_traits@D@std@@V?$allocator@D@2@@std@@UInputProfile@vrc@@@std@@@1@@Z
	??$?0AEBV?$allocator@U?$pair@$$CBV?$basic_string@DU?$char_traits@D@std@@V?$allocator@D@2@@std@@UInputProfile@vrc@@@std@@@std@@$0A@@?$_Hash_vec@V?$allocator@V?$_List_unchecked_iterator@V?$_List_val@U?$_List_simple_types@U?$pair@$$CBV?$basic_string@DU?$char_traits@D@std@@V?$allocator@D@2@@std@@UInputProfile@vrc@@@std@@@std@@@std@@@std@@@std@@@std@@QEAA@AEBV?$allocator@U?$pair@$$CBV?$basic_string@DU?$char_traits@D@std@@V?$allocator@D@2@@std@@UInputProfile@vrc@@@std@@@1@@Z
	??$?0AEBV?$allocator@U?$pair@$$CBV?$basic_string@DU?$char_traits@D@std@@V?$allocator@D@2@@std@@V?$function@$$A6AXXZ@2@@std@@@std@@$$V@?$_Compressed_pair@V?$allocator@U?$_List_node@U?$pair@$$CBV?$basic_string@DU?$char_traits@D@std@@V?$allocator@D@2@@std@@V?$function@$$A6AXXZ@2@@std@@PEAX@std@@@std@@V?$_List_val@U?$_List_simple_types@U?$pair@$$CBV?$basic_string@DU?$char_traits@D@std@@V?$allocator@D@2@@std@@V?$function@$$A6AXXZ@2@@std@@@std@@@2@$00@std@@QEAA@U_One_then_variadic_args_t@1@AEBV?$allocator@U?$pair@$$CBV?$basic_string@DU?$char_traits@D@std@@V?$allocator@D@2@@std@@V?$function@$$A6AXXZ@2@@std@@@1@@Z
	??$?0AEBV?$allocator@U?$pair@$$CBV?$basic_string@DU?$char_traits@D@std@@V?$allocator@D@2@@std@@V?$function@$$A6AXXZ@2@@std@@@std@@$$V@?$_Compressed_pair@V?$allocator@V?$_List_unchecked_iterator@V?$_List_val@U?$_List_simple_types@U?$pair@$$CBV?$basic_string@DU?$char_traits@D@std@@V?$allocator@D@2@@std@@V?$function@$$A6AXXZ@2@@std@@@std@@@std@@@std@@@std@@V?$_Vector_val@U?$_Simple_types@V?$_List_unchecked_iterator@V?$_List_val@U?$_List_simple_types@U?$pair@$$CBV?$basic_string@DU?$char_traits@D@std@@V?$allocator@D@2@@std@@V?$function@$$A6AXXZ@2@@std@@@std@@@std@@@std@@@std@@@2@$00@std@@QEAA@U_One_then_variadic_args_t@1@AEBV?$allocator@U?$pair@$$CBV?$basic_string@DU?$char_traits@D@std@@V?$allocator@D@2@@std@@V?$function@$$A6AXXZ@2@@std@@@1@@Z
	??$?0AEBV?$allocator@U?$pair@$$CBV?$basic_string@DU?$char_traits@D@std@@V?$allocator@D@2@@std@@V?$function@$$A6AXXZ@2@@std@@@std@@$0A@@?$_Hash_vec@V?$allocator@V?$_List_unchecked_iterator@V?$_List_val@U?$_List_simple_types@U?$pair@$$CBV?$basic_string@DU?$char_traits@D@std@@V?$allocator@D@2@@std@@V?$function@$$A6AXXZ@2@@std@@@std@@@std@@@std@@@std@@@std@@QEAA@AEBV?$allocator@U?$pair@$$CBV?$basic_string@DU?$char_traits@D@std@@V?$allocator@D@2@@std@@V?$function@$$A6AXXZ@2@@std@@@1@@Z
	??$?0AEBV?$allocator@U?$pair@$$CBW4InputAction@vrc@@M@std@@@std@@$$V@?$_Compressed_pair@V?$allocator@U?$_List_node@U?$pair@$$CBW4InputAction@vrc@@M@std@@PEAX@std@@@std@@V?$_List_val@U?$_List_simple_types@U?$pair@$$CBW4InputAction@vrc@@M@std@@@std@@@2@$00@std@@QEAA@U_One_then_variadic_args_t@1@AEBV?$allocator@U?$pair@$$CBW4InputAction@vrc@@M@std@@@1@@Z
	??$?0AEBV?$allocator@U?$pair@$$CBW4InputAction@vrc@@M@std@@@std@@$$V@?$_Compressed_pair@V?$allocator@V?$_List_unchecked_iterator@V?$_List_val@U?$_List_simple_types@U?$pair@$$CBW4InputAction@vrc@@M@std@@@std@@@std@@@std@@@std@@V?$_Vector_val@U?$_Simple_types@V?$_List_unchecked_iterator@V?$_List_val@U?$_List_simple_types@U?$pair@$$CBW4InputAction@vrc@@M@std@@@std@@@std@@@std@@@std@@@2@$00@std@@QEAA@U_One_then_variadic_args_t@1@AEBV?$allocator@U?$pair@$$CBW4InputAction@vrc@@M@std@@@1@@Z
	??$?0AEBV?$allocator@U?$pair@$$CBW4InputAction@vrc@@M@std@@@std@@$0A@@?$_Hash_vec@V?$allocator@V?$_List_unchecked_iterator@V?$_List_val@U?$_List_simple_types@U?$pair@$$CBW4InputAction@vrc@@M@std@@@std@@@std@@@std@@@std@@@std@@QEAA@AEBV?$allocator@U?$pair@$$CBW4InputAction@vrc@@M@std@@@1@@Z
	??$?0AEBV?$allocator@UXrExtensionProperties@@@std@@$$V@?$_Compressed_pair@V?$allocator@UXrExtensionProperties@@@std@@V?$_Vector_val@U?$_Simple_types@UXrExtensionProperties@@@std@@@2@$00@std@@QEAA@U_One_then_variadic_args_t@1@AEBV?$allocator@UXrExtensionProperties@@@1@@Z
	??$?0AEBV?$allocator@UXrViewConfigurationView@@@std@@$$V@?$_Compressed_pair@V?$allocator@UXrViewConfigurationView@@@std@@V?$_Vector_val@U?$_Simple_types@UXrViewConfigurationView@@@std@@@2@$00@std@@QEAA@U_One_then_variadic_args_t@1@AEBV?$allocator@UXrViewConfigurationView@@@1@@Z
	??$?0AEBV?$allocator@V?$basic_json@Vmap@std@@Vvector@2@V?$basic_string@DU?$char_traits@D@std@@V?$allocator@D@2@@2@_N_J_KNVallocator@2@Uadl_serializer@json_abi_v3_11_3@nlohmann@@V?$vector@EV?$allocator@E@std@@@2@X@json_abi_v3_11_3@nlohmann@@@std@@$$V@?$_Compressed_pair@V?$allocator@V?$basic_json@Vmap@std@@Vvector@2@V?$basic_string@DU?$char_traits@D@std@@V?$allocator@D@2@@2@_N_J_KNVallocator@2@Uadl_serializer@json_abi_v3_11_3@nlohmann@@V?$vector@EV?$allocator@E@std@@@2@X@json_abi_v3_11_3@nlohmann@@@std@@V?$_Vector_val@U?$_Simple_types@V?$basic_json@Vmap@std@@Vvector@2@V?$basic_string@DU?$char_traits@D@std@@V?$allocator@D@2@@2@_N_J_KNVallocator@2@Uadl_serializer@json_abi_v3_11_3@nlohmann@@V?$vector@EV?$allocator@E@std@@@2@X@json_abi_v3_11_3@nlohmann@@@std@@@2@$00@std@@QEAA@U_One_then_variadic_args_t@1@AEBV?$allocator@V?$basic_json@Vmap@std@@Vvector@2@V?$basic_string@DU?$char_traits@D@std@@V?$allocator@D@2@@2@_N_J_KNVallocator@2@Uadl_serializer@json_abi_v3_11_3@nlohmann@@V?$vector@EV?$allocator@E@std@@@2@X@json_abi_v3_11_3@nlohmann@@@1@@Z
	??$?0AEBV?$allocator@_W@std@@$$V@?$_Compressed_pair@V?$allocator@_W@std@@V?$_String_val@U?$_Simple_types@_W@std@@@2@$00@std@@QEAA@U_One_then_variadic_args_t@1@AEBV?$allocator@_W@1@@Z
	??$?0AEBV?$basic_string@DU?$char_traits@D@std@@V?$allocator@D@2@@std@@$$Z$$V@?$pair@$$CBV?$basic_string@DU?$char_traits@D@std@@V?$allocator@D@2@@std@@UConfigProfile@vrc@@@std@@QEAA@Upiecewise_construct_t@1@V?$tuple@AEBV?$basic_string@DU?$char_traits@D@std@@V?$allocator@D@2@@std@@@1@V?$tuple@$$V@1@@Z
	??$?0AEBV?$basic_string@DU?$char_traits@D@std@@V?$allocator@D@2@@std@@$$Z$$V@?$pair@$$CBV?$basic_string@DU?$char_traits@D@std@@V?$allocator@D@2@@std@@UInputProfile@vrc@@@std@@QEAA@Upiecewise_construct_t@1@V?$tuple@AEBV?$basic_string@DU?$char_traits@D@std@@V?$allocator@D@2@@std@@@1@V?$tuple@$$V@1@@Z
	??$?0AEBV?$basic_string@DU?$char_traits@D@std@@V?$allocator@D@2@@std@@$$Z$$V@?$pair@$$CBV?$basic_string@DU?$char_traits@D@std@@V?$allocator@D@2@@std@@V?$basic_json@Vmap@std@@Vvector@2@V?$basic_string@DU?$char_traits@D@std@@V?$allocator@D@2@@2@_N_J_KNVallocator@2@Uadl_serializer@json_abi_v3_11_3@nlohmann@@V?$vector@EV?$allocator@E@std@@@2@X@json_abi_v3_11_3@nlohmann@@@std@@QEAA@Upiecewise_construct_t@1@V?$tuple@AEBV?$basic_string@DU?$char_traits@D@std@@V?$allocator@D@2@@std@@@1@V?$tuple@$$V@1@@Z
	??$?0AEBV?$basic_string@DU?$char_traits@D@std@@V?$allocator@D@2@@std@@$$Z$$V@?$pair@$$CBV?$basic_string@DU?$char_traits@D@std@@V?$allocator@D@2@@std@@V?$function@$$A6AXXZ@2@@std@@QEAA@Upiecewise_construct_t@1@V?$tuple@AEBV?$basic_string@DU?$char_traits@D@std@@V?$allocator@D@2@@std@@@1@V?$tuple@$$V@1@@Z
	??$?0AEBV?$basic_string@DU?$char_traits@D@std@@V?$allocator@D@2@@std@@$0A@@?$tuple@AEBV?$basic_string@DU?$char_traits@D@std@@V?$allocator@D@2@@std@@@std@@QEAA@AEBV?$basic_string@DU?$char_traits@D@std@@V?$allocator@D@2@@1@@Z
	??$?0AEBV?$basic_string@DU?$char_traits@D@std@@V?$allocator@D@2@@std@@@?$_Tuple_val@AEBV?$basic_string@DU?$char_traits@D@std@@V?$allocator@D@2@@std@@@std@@QEAA@AEBV?$basic_string@DU?$char_traits@D@std@@V?$allocator@D@2@@1@@Z
	??$?0AEBV?$basic_string@DU?$char_traits@D@std@@V?$allocator@D@2@@std@@V01@$0A@@?$basic_json@Vmap@std@@Vvector@2@V?$basic_string@DU?$char_traits@D@std@@V?$allocator@D@2@@2@_N_J_KNVallocator@2@Uadl_serializer@json_abi_v3_11_3@nlohmann@@V?$vector@EV?$allocator@E@std@@@2@X@json_abi_v3_11_3@nlohmann@@QEAA@AEBV?$basic_string@DU?$char_traits@D@std@@V?$allocator@D@2@@std@@@Z
	??$?0AEBW4InputAction@vrc@@$$Z$$V@?$pair@$$CBW4InputAction@vrc@@M@std@@QEAA@Upiecewise_construct_t@1@V?$tuple@AEBW4InputAction@vrc@@@1@V?$tuple@$$V@1@@Z
	??$?0AEBW4InputAction@vrc@@$0A@@?$tuple@AEBW4InputAction@vrc@@@std@@QEAA@AEBW4InputAction@vrc@@@Z
	??$?0AEBW4InputAction@vrc@@@?$_Tuple_val@AEBW4InputAction@vrc@@@std@@QEAA@AEBW4InputAction@vrc@@@Z
	??$?0AEB_N_N$0A@@?$basic_json@Vmap@std@@Vvector@2@V?$basic_string@DU?$char_traits@D@std@@V?$allocator@D@2@@2@_N_J_KNVallocator@2@Uadl_serializer@json_abi_v3_11_3@nlohmann@@V?$vector@EV?$allocator@E@std@@@2@X@json_abi_v3_11_3@nlohmann@@QEAA@AEB_N@Z
	??$?0EE@?$basic_format_args@V?$basic_format_context@V?$back_insert_iterator@V?$_Fmt_buffer@D@std@@@std@@D@std@@@std@@QEAA@AEBV?$_Format_arg_store@V?$basic_format_context@V?$back_insert_iterator@V?$_Fmt_buffer@D@std@@@std@@D@std@@EE@1@@Z
	??$?0EEEEEEEEEEEE@?$basic_format_args@V?$basic_format_context@V?$back_insert_iterator@V?$_Fmt_buffer@D@std@@@std@@D@std@@@std@@QEAA@AEBV?$_Format_arg_store@V?$basic_format_context@V?$back_insert_iterator@V?$_Fmt_buffer@D@std@@@std@@D@std@@EEEEEEEEEEEE@1@@Z
	??$?0EEEEEEEEEEEEEEEEEEEE@?$basic_format_args@V?$basic_format_context@V?$back_insert_iterator@V?$_Fmt_buffer@D@std@@@std@@D@std@@@std@@QEAA@AEBV?$_Format_arg_store@V?$basic_format_context@V?$back_insert_iterator@V?$_Fmt_buffer@D@std@@@std@@D@std@@EEEEEEEEEEEEEEEEEEEE@1@@Z
	??$?0H@?$basic_format_args@V?$basic_format_context@V?$back_insert_iterator@V?$_Fmt_buffer@D@std@@@std@@D@std@@@std@@QEAA@AEBV?$_Format_arg_store@V?$basic_format_context@V?$back_insert_iterator@V?$_Fmt_buffer@D@std@@@std@@D@std@@H@1@@Z
	??$?0HH@?$basic_format_args@V?$basic_format_context@V?$back_insert_iterator@V?$_Fmt_buffer@D@std@@@std@@D@std@@@std@@QEAA@AEBV?$_Format_arg_store@V?$basic_format_context@V?$back_insert_iterator@V?$_Fmt_buffer@D@std@@@std@@D@std@@HH@1@@Z
	??$?0HPEAX@?$basic_format_args@V?$basic_format_context@V?$back_insert_iterator@V?$_Fmt_buffer@D@std@@@std@@D@std@@@std@@QEAA@AEBV?$_Format_arg_store@V?$basic_format_context@V?$back_insert_iterator@V?$_Fmt_buffer@D@std@@@std@@D@std@@HPEAX@1@@Z
	??$?0I$$CBV?$basic_string@DU?$char_traits@D@std@@V?$allocator@D@2@@std@@@?$basic_format_args@V?$basic_format_context@V?$back_insert_iterator@V?$_Fmt_buffer@D@std@@@std@@D@std@@@std@@QEAA@AEBV?$_Format_arg_store@V?$basic_format_context@V?$back_insert_iterator@V?$_Fmt_buffer@D@std@@@std@@D@std@@I$$CBV?$basic_string@DU?$char_traits@D@std@@V?$allocator@D@2@@2@@1@@Z
	??$?0I@?$basic_format_args@V?$basic_format_context@V?$back_insert_iterator@V?$_Fmt_buffer@D@std@@@std@@D@std@@@std@@QEAA@AEBV?$_Format_arg_store@V?$basic_format_context@V?$back_insert_iterator@V?$_Fmt_buffer@D@std@@@std@@D@std@@I@1@@Z
	??$?0IH@?$basic_format_args@V?$basic_format_context@V?$back_insert_iterator@V?$_Fmt_buffer@D@std@@@std@@D@std@@@std@@QEAA@AEBV?$_Format_arg_store@V?$basic_format_context@V?$back_insert_iterator@V?$_Fmt_buffer@D@std@@@std@@D@std@@IH@1@@Z
	??$?0IHHI@?$basic_format_args@V?$basic_format_context@V?$back_insert_iterator@V?$_Fmt_buffer@D@std@@@std@@D@std@@@std@@QEAA@AEBV?$_Format_arg_store@V?$basic_format_context@V?$back_insert_iterator@V?$_Fmt_buffer@D@std@@@std@@D@std@@IHHI@1@@Z
	??$?0IH_K@?$basic_format_args@V?$basic_format_context@V?$back_insert_iterator@V?$_Fmt_buffer@D@std@@@std@@D@std@@@std@@QEAA@AEBV?$_Format_arg_store@V?$basic_format_context@V?$back_insert_iterator@V?$_Fmt_buffer@D@std@@@std@@D@std@@IH_K@1@@Z
	??$?0II$0A@@?$basic_json@Vmap@std@@Vvector@2@V?$basic_string@DU?$char_traits@D@std@@V?$allocator@D@2@@2@_N_J_KNVallocator@2@Uadl_serializer@json_abi_v3_11_3@nlohmann@@V?$vector@EV?$allocator@E@std@@@2@X@json_abi_v3_11_3@nlohmann@@QEAA@$$QEAI@Z
	??$?0II@?$basic_format_args@V?$basic_format_context@V?$back_insert_iterator@V?$_Fmt_buffer@D@std@@@std@@D@std@@@std@@QEAA@AEBV?$_Format_arg_store@V?$basic_format_context@V?$back_insert_iterator@V?$_Fmt_buffer@D@std@@@std@@D@std@@II@1@@Z
	??$?0III@?$basic_format_args@V?$basic_format_context@V?$back_insert_iterator@V?$_Fmt_buffer@D@std@@@std@@D@std@@@std@@QEAA@AEBV?$_Format_arg_store@V?$basic_format_context@V?$back_insert_iterator@V?$_Fmt_buffer@D@std@@@std@@D@std@@III@1@@Z
	??$?0I_K@?$basic_format_args@V?$basic_format_context@V?$back_insert_iterator@V?$_Fmt_buffer@D@std@@@std@@D@std@@@std@@QEAA@AEBV?$_Format_arg_store@V?$basic_format_context@V?$back_insert_iterator@V?$_Fmt_buffer@D@std@@@std@@D@std@@I_K@1@@Z
	??$?0J@?$basic_format_args@V?$basic_format_context@V?$back_insert_iterator@V?$_Fmt_buffer@D@std@@@std@@D@std@@@std@@QEAA@AEBV?$_Format_arg_store@V?$basic_format_context@V?$back_insert_iterator@V?$_Fmt_buffer@D@std@@@std@@D@std@@J@1@@Z
	??$?0K@?$basic_format_args@V?$basic_format_context@V?$back_insert_iterator@V?$_Fmt_buffer@D@std@@@std@@D@std@@@std@@QEAA@AEBV?$_Format_arg_store@V?$basic_format_context@V?$back_insert_iterator@V?$_Fmt_buffer@D@std@@@std@@D@std@@K@1@@Z
	??$?0KPEAXK@?$basic_format_args@V?$basic_format_context@V?$back_insert_iterator@V?$_Fmt_buffer@D@std@@@std@@D@std@@@std@@QEAA@AEBV?$_Format_arg_store@V?$basic_format_context@V?$back_insert_iterator@V?$_Fmt_buffer@D@std@@@std@@D@std@@KPEAXK@1@@Z
	??$?0M@?$_Compressed_pair@U?$equal_to@G@std@@M$00@std@@QEAA@U_Zero_then_variadic_args_t@1@$$QEAM@Z
	??$?0M@?$_Compressed_pair@U?$equal_to@V?$basic_string@DU?$char_traits@D@std@@V?$allocator@D@2@@std@@@std@@M$00@std@@QEAA@U_Zero_then_variadic_args_t@1@$$QEAM@Z
	??$?0M@?$_Compressed_pair@U?$equal_to@W4InputAction@vrc@@@std@@M$00@std@@QEAA@U_Zero_then_variadic_args_t@1@$$QEAM@Z
	??$?0M@?$basic_format_args@V?$basic_format_context@V?$back_insert_iterator@V?$_Fmt_buffer@D@std@@@std@@D@std@@@std@@QEAA@AEBV?$_Format_arg_store@V?$basic_format_context@V?$back_insert_iterator@V?$_Fmt_buffer@D@std@@@std@@D@std@@M@1@@Z
	??$?0MM@?$basic_format_args@V?$basic_format_context@V?$back_insert_iterator@V?$_Fmt_buffer@D@std@@@std@@D@std@@@std@@QEAA@AEBV?$_Format_arg_store@V?$basic_format_context@V?$back_insert_iterator@V?$_Fmt_buffer@D@std@@@std@@D@std@@MM@1@@Z
	??$?0P8OpenXRContext@vrc@@EAAXXZ@?$_Tuple_val@P8OpenXRContext@vrc@@EAAXXZ@std@@QEAA@$$QEAP8OpenXRContext@vrc@@EAAXXZ@Z
	??$?0P8OpenXRContext@vrc@@EAAXXZPEAV01@$0A@@?$tuple@P8OpenXRContext@vrc@@EAAXXZPEAV12@@std@@QEAA@$$QEAP8OpenXRContext@vrc@@EAAXXZ$$QEAPEAV23@@Z
	??$?0P8OpenXRContext@vrc@@EAAXXZPEAV01@$0A@@thread@std@@QEAA@$$QEAP8OpenXRContext@vrc@@EAAXXZ$$QEAPEAV23@@Z
	??$?0PEAD$0A@@?$basic_string@DU?$char_traits@D@std@@V?$allocator@D@2@@std@@QEAA@PEAD0AEBV?$allocator@D@1@@Z
	??$?0PEAD$0A@@path@filesystem@std@@QEAA@AEBQEADW4format@012@@Z
	??$?0PEADPEAX@?$basic_format_args@V?$basic_format_context@V?$back_insert_iterator@V?$_Fmt_buffer@D@std@@@std@@D@std@@@std@@QEAA@AEBV?$_Format_arg_store@V?$basic_format_context@V?$back_insert_iterator@V?$_Fmt_buffer@D@std@@@std@@D@std@@PEADPEAX@1@@Z
	??$?0PEADW4errc@std@@$0A@@?$pair@PEADW4errc@std@@@std@@QEAA@$$QEAPEAD$$QEAW4errc@1@@Z
	??$?0PEAU?$_List_node@U?$pair@$$CBG_N@std@@PEAX@std@@_N$0A@@?$pair@PEAU?$_List_node@U?$pair@$$CBG_N@std@@PEAX@std@@_N@std@@QEAA@$$QEAPEAU?$_List_node@U?$pair@$$CBG_N@std@@PEAX@1@$$QEA_N@Z
	??$?0PEAU?$_List_node@U?$pair@$$CBV?$basic_string@DU?$char_traits@D@std@@V?$allocator@D@2@@std@@UConfigProfile@vrc@@@std@@PEAX@std@@_N$0A@@?$pair@PEAU?$_List_node@U?$pair@$$CBV?$basic_string@DU?$char_traits@D@std@@V?$allocator@D@2@@std@@UConfigProfile@vrc@@@std@@PEAX@std@@_N@std@@QEAA@$$QEAPEAU?$_List_node@U?$pair@$$CBV?$basic_string@DU?$char_traits@D@std@@V?$allocator@D@2@@std@@UConfigProfile@vrc@@@std@@PEAX@1@$$QEA_N@Z
	??$?0PEAU?$_List_node@U?$pair@$$CBV?$basic_string@DU?$char_traits@D@std@@V?$allocator@D@2@@std@@UInputProfile@vrc@@@std@@PEAX@std@@_N$0A@@?$pair@PEAU?$_List_node@U?$pair@$$CBV?$basic_string@DU?$char_traits@D@std@@V?$allocator@D@2@@std@@UInputProfile@vrc@@@std@@PEAX@std@@_N@std@@QEAA@$$QEAPEAU?$_List_node@U?$pair@$$CBV?$basic_string@DU?$char_traits@D@std@@V?$allocator@D@2@@std@@UInputProfile@vrc@@@std@@PEAX@1@$$QEA_N@Z
	??$?0PEAU?$_List_node@U?$pair@$$CBV?$basic_string@DU?$char_traits@D@std@@V?$allocator@D@2@@std@@V?$function@$$A6AXXZ@2@@std@@PEAX@std@@_N$0A@@?$pair@PEAU?$_List_node@U?$pair@$$CBV?$basic_string@DU?$char_traits@D@std@@V?$allocator@D@2@@std@@V?$function@$$A6AXXZ@2@@std@@PEAX@std@@_N@std@@QEAA@$$QEAPEAU?$_List_node@U?$pair@$$CBV?$basic_string@DU?$char_traits@D@std@@V?$allocator@D@2@@std@@V?$function@$$A6AXXZ@2@@std@@PEAX@1@$$QEA_N@Z
	??$?0PEAU?$_List_node@U?$pair@$$CBW4InputAction@vrc@@M@std@@PEAX@std@@_N$0A@@?$pair@PEAU?$_List_node@U?$pair@$$CBW4InputAction@vrc@@M@std@@PEAX@std@@_N@std@@QEAA@$$QEAPEAU?$_List_node@U?$pair@$$CBW4InputAction@vrc@@M@std@@PEAX@1@$$QEA_N@Z
	??$?0PEAU?$_Tree_node@U?$pair@$$CBV?$basic_string@DU?$char_traits@D@std@@V?$allocator@D@2@@std@@V?$basic_json@Vmap@std@@Vvector@2@V?$basic_string@DU?$char_traits@D@std@@V?$allocator@D@2@@2@_N_J_KNVallocator@2@Uadl_serializer@json_abi_v3_11_3@nlohmann@@V?$vector@EV?$allocator@E@std@@@2@X@json_abi_v3_11_3@nlohmann@@@std@@PEAX@std@@_N$0A@@?$pair@PEAU?$_Tree_node@U?$pair@$$CBV?$basic_string@DU?$char_traits@D@std@@V?$allocator@D@2@@std@@V?$basic_json@Vmap@std@@Vvector@2@V?$basic_string@DU?$char_traits@D@std@@V?$allocator@D@2@@2@_N_J_KNVallocator@2@Uadl_serializer@json_abi_v3_11_3@nlohmann@@V?$vector@EV?$allocator@E@std@@@2@X@json_abi_v3_11_3@nlohmann@@@std@@PEAX@std@@_N@std@@QEAA@$$QEAPEAU?$_Tree_node@U?$pair@$$CBV?$basic_string@DU?$char_traits@D@std@@V?$allocator@D@2@@std@@V?$basic_json@Vmap@std@@Vvector@2@V?$basic_string@DU?$char_traits@D@std@@V?$allocator@D@2@@2@_N_J_KNVallocator@2@Uadl_serializer@json_abi_v3_11_3@nlohmann@@V?$vector@EV?$allocator@E@std@@@2@X@json_abi_v3_11_3@nlohmann@@@std@@PEAX@1@$$QEA_N@Z
	??$?0PEAVOpenXRContext@vrc@@@?$_Tuple_val@PEAVOpenXRContext@vrc@@@std@@QEAA@$$QEAPEAVOpenXRContext@vrc@@@Z
	??$?0PEAX@?$basic_format_args@V?$basic_format_context@V?$back_insert_iterator@V?$_Fmt_buffer@D@std@@@std@@D@std@@@std@@QEAA@AEBV?$_Format_arg_store@V?$basic_format_context@V?$back_insert_iterator@V?$_Fmt_buffer@D@std@@@std@@D@std@@PEAX@1@@Z
	??$?0PEAXPEAX@?$basic_format_args@V?$basic_format_context@V?$back_insert_iterator@V?$_Fmt_buffer@D@std@@@std@@D@std@@@std@@QEAA@AEBV?$_Format_arg_store@V?$basic_format_context@V?$back_insert_iterator@V?$_Fmt_buffer@D@std@@@std@@D@std@@PEAXPEAX@1@@Z
	??$?0PEBD@?$basic_format_args@V?$basic_format_context@V?$back_insert_iterator@V?$_Fmt_buffer@D@std@@@std@@D@std@@@std@@QEAA@AEBV?$_Format_arg_store@V?$basic_format_context@V?$back_insert_iterator@V?$_Fmt_buffer@D@std@@@std@@D@std@@PEBD@1@@Z
	??$?0PEBDH@?$basic_format_args@V?$basic_format_context@V?$back_insert_iterator@V?$_Fmt_buffer@D@std@@@std@@D@std@@@std@@QEAA@AEBV?$_Format_arg_store@V?$basic_format_context@V?$back_insert_iterator@V?$_Fmt_buffer@D@std@@@std@@D@std@@PEBDH@1@@Z
	??$?0PEBDI@?$basic_format_args@V?$basic_format_context@V?$back_insert_iterator@V?$_Fmt_buffer@D@std@@@std@@D@std@@@std@@QEAA@AEBV?$_Format_arg_store@V?$basic_format_context@V?$back_insert_iterator@V?$_Fmt_buffer@D@std@@@std@@D@std@@PEBDI@1@@Z
	??$?0PEBDPEAX@?$basic_format_args@V?$basic_format_context@V?$back_insert_iterator@V?$_Fmt_buffer@D@std@@@std@@D@std@@@std@@QEAA@AEBV?$_Format_arg_store@V?$basic_format_context@V?$back_insert_iterator@V?$_Fmt_buffer@D@std@@@std@@D@std@@PEBDPEAX@1@@Z
	??$?0PEBDPEBD@?$basic_format_args@V?$basic_format_context@V?$back_insert_iterator@V?$_Fmt_buffer@D@std@@@std@@D@std@@@std@@QEAA@AEBV?$_Format_arg_store@V?$basic_format_context@V?$back_insert_iterator@V?$_Fmt_buffer@D@std@@@std@@D@std@@PEBDPEBD@1@@Z
	??$?0PEBDPEBD@?$basic_string_view@DU?$char_traits@D@std@@@std@@QEAA@PEBD0@Z
	??$?0PEBV?$json_ref@V?$basic_json@Vmap@std@@Vvector@2@V?$basic_string@DU?$char_traits@D@std@@V?$allocator@D@2@@2@_N_J_KNVallocator@2@Uadl_serializer@json_abi_v3_11_3@nlohmann@@V?$vector@EV?$allocator@E@std@@@2@X@json_abi_v3_11_3@nlohmann@@@detail@json_abi_v3_11_3@nlohmann@@$0A@@?$vector@V?$basic_json@Vmap@std@@Vvector@2@V?$basic_string@DU?$char_traits@D@std@@V?$allocator@D@2@@2@_N_J_KNVallocator@2@Uadl_serializer@json_abi_v3_11_3@nlohmann@@V?$vector@EV?$allocator@E@std@@@2@X@json_abi_v3_11_3@nlohmann@@V?$allocator@V?$basic_json@Vmap@std@@Vvector@2@V?$basic_string@DU?$char_traits@D@std@@V?$allocator@D@2@@2@_N_J_KNVallocator@2@Uadl_serializer@json_abi_v3_11_3@nlohmann@@V?$vector@EV?$allocator@E@std@@@2@X@json_abi_v3_11_3@nlohmann@@@std@@@std@@QEAA@PEBV?$json_ref@V?$basic_json@Vmap@std@@Vvector@2@V?$basic_string@DU?$char_traits@D@std@@V?$allocator@D@2@@2@_N_J_KNVallocator@2@Uadl_serializer@json_abi_v3_11_3@nlohmann@@V?$vector@EV?$allocator@E@std@@@2@X@json_abi_v3_11_3@nlohmann@@@detail@json_abi_v3_11_3@nlohmann@@0AEBV?$allocator@V?$basic_json@Vmap@std@@Vvector@2@V?$basic_string@DU?$char_traits@D@std@@V?$allocator@D@2@@2@_N_J_KNVallocator@2@Uadl_serializer@json_abi_v3_11_3@nlohmann@@V?$vector@EV?$allocator@E@std@@@2@X@json_abi_v3_11_3@nlohmann@@@1@@Z
	??$?0U?$default_delete@V?$tuple@P8OpenXRContext@vrc@@EAAXXZPEAV12@@std@@@std@@$0A@@?$unique_ptr@V?$tuple@P8OpenXRContext@vrc@@EAAXXZPEAV12@@std@@U?$default_delete@V?$tuple@P8OpenXRContext@vrc@@EAAXXZPEAV12@@std@@@2@@std@@QEAA@PEAV?$tuple@P8OpenXRContext@vrc@@EAAXXZPEAV12@@1@@Z
	??$?0U?$default_delete@V_Facet_base@std@@@std@@$0A@@?$unique_ptr@V_Facet_base@std@@U?$default_delete@V_Facet_base@std@@@2@@std@@QEAA@PEAV_Facet_base@1@@Z
	??$?0U?$less@X@std@@U_One_then_variadic_args_t@1@V?$allocator@U?$_Tree_node@U?$pair@$$CBV?$basic_string@DU?$char_traits@D@std@@V?$allocator@D@2@@std@@V?$basic_json@Vmap@std@@Vvector@2@V?$basic_string@DU?$char_traits@D@std@@V?$allocator@D@2@@2@_N_J_KNVallocator@2@Uadl_serializer@json_abi_v3_11_3@nlohmann@@V?$vector@EV?$allocator@E@std@@@2@X@json_abi_v3_11_3@nlohmann@@@std@@PEAX@std@@@1@@?$_Compressed_pair@U?$less@X@std@@V?$_Compressed_pair@V?$allocator@U?$_Tree_node@U?$pair@$$CBV?$basic_string@DU?$char_traits@D@std@@V?$allocator@D@2@@std@@V?$basic_json@Vmap@std@@Vvector@2@V?$basic_string@DU?$char_traits@D@std@@V?$allocator@D@2@@2@_N_J_KNVallocator@2@Uadl_serializer@json_abi_v3_11_3@nlohmann@@V?$vector@EV?$allocator@E@std@@@2@X@json_abi_v3_11_3@nlohmann@@@std@@PEAX@std@@@std@@V?$_Tree_val@U?$_Tree_simple_types@U?$pair@$$CBV?$basic_string@DU?$char_traits@D@std@@V?$allocator@D@2@@std@@V?$basic_json@Vmap@std@@Vvector@2@V?$basic_string@DU?$char_traits@D@std@@V?$allocator@D@2@@2@_N_J_KNVallocator@2@Uadl_serializer@json_abi_v3_11_3@nlohmann@@V?$vector@EV?$allocator@E@std@@@2@X@json_abi_v3_11_3@nlohmann@@@std@@@std@@@2@$00@2@$00@std@@QEAA@U_One_then_variadic_args_t@1@$$QEAU?$less@X@1@$$QEAU21@$$QEAV?$allocator@U?$_Tree_node@U?$pair@$$CBV?$basic_string@DU?$char_traits@D@std@@V?$allocator@D@2@@std@@V?$basic_json@Vmap@std@@Vvector@2@V?$basic_string@DU?$char_traits@D@std@@V?$allocator@D@2@@2@_N_J_KNVallocator@2@Uadl_serializer@json_abi_v3_11_3@nlohmann@@V?$vector@EV?$allocator@E@std@@@2@X@json_abi_v3_11_3@nlohmann@@@std@@PEAX@std@@@1@@Z
	??$?0U?$pair@$$CBG_N@std@@@?$allocator@U?$_List_node@U?$pair@$$CBG_N@std@@PEAX@std@@@std@@QEAA@AEBV?$allocator@U?$pair@$$CBG_N@std@@@1@@Z
	??$?0U?$pair@$$CBG_N@std@@@?$allocator@V?$_List_unchecked_iterator@V?$_List_val@U?$_List_simple_types@U?$pair@$$CBG_N@std@@@std@@@std@@@std@@@std@@QEAA@AEBV?$allocator@U?$pair@$$CBG_N@std@@@1@@Z
	??$?0U?$pair@$$CBV?$basic_string@DU?$char_traits@D@std@@V?$allocator@D@2@@std@@UConfigProfile@vrc@@@std@@@?$allocator@U?$_List_node@U?$pair@$$CBV?$basic_string@DU?$char_traits@D@std@@V?$allocator@D@2@@std@@UConfigProfile@vrc@@@std@@PEAX@std@@@std@@QEAA@AEBV?$allocator@U?$pair@$$CBV?$basic_string@DU?$char_traits@D@std@@V?$allocator@D@2@@std@@UConfigProfile@vrc@@@std@@@1@@Z
	??$?0U?$pair@$$CBV?$basic_string@DU?$char_traits@D@std@@V?$allocator@D@2@@std@@UConfigProfile@vrc@@@std@@@?$allocator@V?$_List_unchecked_iterator@V?$_List_val@U?$_List_simple_types@U?$pair@$$CBV?$basic_string@DU?$char_traits@D@std@@V?$allocator@D@2@@std@@UConfigProfile@vrc@@@std@@@std@@@std@@@std@@@std@@QEAA@AEBV?$allocator@U?$pair@$$CBV?$basic_string@DU?$char_traits@D@std@@V?$allocator@D@2@@std@@UConfigProfile@vrc@@@std@@@1@@Z
	??$?0U?$pair@$$CBV?$basic_string@DU?$char_traits@D@std@@V?$allocator@D@2@@std@@UInputProfile@vrc@@@std@@@?$allocator@U?$_List_node@U?$pair@$$CBV?$basic_string@DU?$char_traits@D@std@@V?$allocator@D@2@@std@@UInputProfile@vrc@@@std@@PEAX@std@@@std@@QEAA@AEBV?$allocator@U?$pair@$$CBV?$basic_string@DU?$char_traits@D@std@@V?$allocator@D@2@@std@@UInputProfile@vrc@@@std@@@1@@Z
	??$?0U?$pair@$$CBV?$basic_string@DU?$char_traits@D@std@@V?$allocator@D@2@@std@@UInputProfile@vrc@@@std@@@?$allocator@V?$_List_unchecked_iterator@V?$_List_val@U?$_List_simple_types@U?$pair@$$CBV?$basic_string@DU?$char_traits@D@std@@V?$allocator@D@2@@std@@UInputProfile@vrc@@@std@@@std@@@std@@@std@@@std@@QEAA@AEBV?$allocator@U?$pair@$$CBV?$basic_string@DU?$char_traits@D@std@@V?$allocator@D@2@@std@@UInputProfile@vrc@@@std@@@1@@Z
	??$?0U?$pair@$$CBV?$basic_string@DU?$char_traits@D@std@@V?$allocator@D@2@@std@@V?$function@$$A6AXXZ@2@@std@@@?$allocator@U?$_List_node@U?$pair@$$CBV?$basic_string@DU?$char_traits@D@std@@V?$allocator@D@2@@std@@V?$function@$$A6AXXZ@2@@std@@PEAX@std@@@std@@QEAA@AEBV?$allocator@U?$pair@$$CBV?$basic_string@DU?$char_traits@D@std@@V?$allocator@D@2@@std@@V?$function@$$A6AXXZ@2@@std@@@1@@Z
	??$?0U?$pair@$$CBV?$basic_string@DU?$char_traits@D@std@@V?$allocator@D@2@@std@@V?$function@$$A6AXXZ@2@@std@@@?$allocator@V?$_List_unchecked_iterator@V?$_List_val@U?$_List_simple_types@U?$pair@$$CBV?$basic_string@DU?$char_traits@D@std@@V?$allocator@D@2@@std@@V?$function@$$A6AXXZ@2@@std@@@std@@@std@@@std@@@std@@QEAA@AEBV?$allocator@U?$pair@$$CBV?$basic_string@DU?$char_traits@D@std@@V?$allocator@D@2@@std@@V?$function@$$A6AXXZ@2@@std@@@1@@Z
	??$?0U?$pair@$$CBW4InputAction@vrc@@M@std@@@?$allocator@U?$_List_node@U?$pair@$$CBW4InputAction@vrc@@M@std@@PEAX@std@@@std@@QEAA@AEBV?$allocator@U?$pair@$$CBW4InputAction@vrc@@M@std@@@1@@Z
	??$?0U?$pair@$$CBW4InputAction@vrc@@M@std@@@?$allocator@V?$_List_unchecked_iterator@V?$_List_val@U?$_List_simple_types@U?$pair@$$CBW4InputAction@vrc@@M@std@@@std@@@std@@@std@@@std@@QEAA@AEBV?$allocator@U?$pair@$$CBW4InputAction@vrc@@M@std@@@1@@Z
	??$?0ULatencySnapshot@vrc@@@?$allocator@PEAULatencySnapshot@vrc@@@std@@QEAA@AEBV?$allocator@ULatencySnapshot@vrc@@@1@@Z
	??$?0ULatencySnapshot@vrc@@@?$allocator@U_Container_proxy@std@@@std@@QEAA@AEBV?$allocator@ULatencySnapshot@vrc@@@1@@Z
	??$?0UPerfSample@vrc@@@?$allocator@PEAUPerfSample@vrc@@@std@@QEAA@AEBV?$allocator@UPerfSample@vrc@@@1@@Z
	??$?0UPerfSample@vrc@@@?$allocator@U_Container_proxy@std@@@std@@QEAA@AEBV?$allocator@UPerfSample@vrc@@@1@@Z
	??$?0URotationSample@LatencyCompensator@vrc@@@?$allocator@PEAURotationSample@LatencyCompensator@vrc@@@std@@QEAA@AEBV?$allocator@URotationSample@LatencyCompensator@vrc@@@1@@Z
	??$?0URotationSample@LatencyCompensator@vrc@@@?$allocator@U_Container_proxy@std@@@std@@QEAA@AEBV?$allocator@URotationSample@LatencyCompensator@vrc@@@1@@Z
	??$?0UTrackingSample@vrc@@@?$allocator@PEAUTrackingSample@vrc@@@std@@QEAA@AEBV?$allocator@UTrackingSample@vrc@@@1@@Z
	??$?0UTrackingSample@vrc@@@?$allocator@U_Container_proxy@std@@@std@@QEAA@AEBV?$allocator@UTrackingSample@vrc@@@1@@Z
	??$?0U_Exact_args_t@std@@$0A@@?$tuple@$$V@std@@QEAA@U_Exact_args_t@1@@Z
	??$?0U_Exact_args_t@std@@AEBG$$V$0A@@?$tuple@AEBG@std@@QEAA@U_Exact_args_t@1@AEBG@Z
	??$?0U_Exact_args_t@std@@AEBV?$basic_string@DU?$char_traits@D@std@@V?$allocator@D@2@@1@$$V$0A@@?$tuple@AEBV?$basic_string@DU?$char_traits@D@std@@V?$allocator@D@2@@std@@@std@@QEAA@U_Exact_args_t@1@AEBV?$basic_string@DU?$char_traits@D@std@@V?$allocator@D@2@@1@@Z
	??$?0U_Exact_args_t@std@@AEBW4InputAction@vrc@@$$V$0A@@?$tuple@AEBW4InputAction@vrc@@@std@@QEAA@U_Exact_args_t@1@AEBW4InputAction@vrc@@@Z
	??$?0U_Exact_args_t@std@@P8OpenXRContext@vrc@@EAAXXZPEAV23@$0A@@?$tuple@P8OpenXRContext@vrc@@EAAXXZPEAV12@@std@@QEAA@U_Exact_args_t@1@$$QEAP8OpenXRContext@vrc@@EAAXXZ$$QEAPEAV34@@Z
	??$?0U_Exact_args_t@std@@PEAVOpenXRContext@vrc@@$$V$0A@@?$tuple@PEAVOpenXRContext@vrc@@@std@@QEAA@U_Exact_args_t@1@$$QEAPEAVOpenXRContext@vrc@@@Z
	??$?0U_Exact_args_t@std@@V?$basic_string@DU?$char_traits@D@std@@V?$allocator@D@2@@1@$$V$0A@@?$tuple@$$QEAV?$basic_string@DU?$char_traits@D@std@@V?$allocator@D@2@@std@@@std@@QEAA@U_Exact_args_t@1@$$QEAV?$basic_string@DU?$char_traits@D@std@@V?$allocator@D@2@@1@@Z
	??$?0U_Exact_args_t@std@@W4InputAction@vrc@@$$V$0A@@?$tuple@$$QEAW4InputAction@vrc@@@std@@QEAA@U_Exact_args_t@1@$$QEAW4InputAction@vrc@@@Z
	??$?0U_Zero_then_variadic_args_t@std@@M@?$_Compressed_pair@U?$hash@G@std@@V?$_Compressed_pair@U?$equal_to@G@std@@M$00@2@$00@std@@QEAA@U_Zero_then_variadic_args_t@1@$$QEAU21@$$QEAM@Z
	??$?0U_Zero_then_variadic_args_t@std@@M@?$_Compressed_pair@U?$hash@V?$basic_string@DU?$char_traits@D@std@@V?$allocator@D@2@@std@@@std@@V?$_Compressed_pair@U?$equal_to@V?$basic_string@DU?$char_traits@D@std@@V?$allocator@D@2@@std@@@std@@M$00@2@$00@std@@QEAA@U_Zero_then_variadic_args_t@1@$$QEAU21@$$QEAM@Z
	??$?0U_Zero_then_variadic_args_t@std@@M@?$_Compressed_pair@U?$hash@W4InputAction@vrc@@@std@@V?$_Compressed_pair@U?$equal_to@W4InputAction@vrc@@@std@@M$00@2@$00@std@@QEAA@U_Zero_then_variadic_args_t@1@$$QEAU21@$$QEAM@Z
	??$?0V<lambda_1>@?1???$create@V?$basic_string@DU?$char_traits@D@std@@V?$allocator@D@2@@std@@AEAY00$$CBD@?$basic_json@Vmap@std@@Vvector@2@V?$basic_string@DU?$char_traits@D@std@@V?$allocator@D@2@@2@_N_J_KNVallocator@2@Uadl_serializer@json_abi_v3_11_3@nlohmann@@V?$vector@EV?$allocator@E@std@@@2@X@json_abi_v3_11_3@nlohmann@@CAPEAV?$basic_string@DU?$char_traits@D@std@@V?$allocator@D@2@@std@@AEAY00$$CBD@Z@$0A@@?$unique_ptr@V?$basic_string@DU?$char_traits@D@std@@V?$allocator@D@2@@std@@V<lambda_1>@?1???$create@V?$basic_string@DU?$char_traits@D@std@@V?$allocator@D@2@@std@@AEAY00$$CBD@?$basic_json@Vmap@std@@Vvector@2@V?$basic_string@DU?$char_traits@D@std@@V?$allocator@D@2@@2@_N_J_KNVallocator@2@Uadl_serializer@json_abi_v3_11_3@nlohmann@@V?$vector@EV?$allocator@E@std@@@2@X@json_abi_v3_11_3@nlohmann@@CAPEAV12@AEAY00$$CBD@Z@@std@@QEAA@PEAV?$basic_string@DU?$char_traits@D@std@@V?$allocator@D@2@@1@AEBV<lambda_1>@?1???$create@V?$basic_string@DU?$char_traits@D@std@@V?$allocator@D@2@@std@@AEAY00$$CBD@?$basic_json@Vmap@std@@Vvector@2@V?$basic_string@DU?$char_traits@D@std@@V?$allocator@D@2@@2@_N_J_KNVallocator@2@Uadl_serializer@json_abi_v3_11_3@nlohmann@@V?$vector@EV?$allocator@E@std@@@2@X@json_abi_v3_11_3@nlohmann@@CAPEAV21@AEAY00$$CBD@Z@@Z
	??$?0V<lambda_1>@?1???$create@V?$basic_string@DU?$char_traits@D@std@@V?$allocator@D@2@@std@@AEBV12@@?$basic_json@Vmap@std@@Vvector@2@V?$basic_string@DU?$char_traits@D@std@@V?$allocator@D@2@@2@_N_J_KNVallocator@2@Uadl_serializer@json_abi_v3_11_3@nlohmann@@V?$vector@EV?$allocator@E@std@@@2@X@json_abi_v3_11_3@nlohmann@@CAPEAV?$basic_string@DU?$char_traits@D@std@@V?$allocator@D@2@@std@@AEBV45@@Z@$0A@@?$unique_ptr@V?$basic_string@DU?$char_traits@D@std@@V?$allocator@D@2@@std@@V<lambda_1>@?1???$create@V?$basic_string@DU?$char_traits@D@std@@V?$allocator@D@2@@std@@AEBV12@@?$basic_json@Vmap@std@@Vvector@2@V?$basic_string@DU?$char_traits@D@std@@V?$allocator@D@2@@2@_N_J_KNVallocator@2@Uadl_serializer@json_abi_v3_11_3@nlohmann@@V?$vector@EV?$allocator@E@std@@@2@X@json_abi_v3_11_3@nlohmann@@CAPEAV12@AEBV12@@Z@@std@@QEAA@PEAV?$basic_string@DU?$char_traits@D@std@@V?$allocator@D@2@@1@AEBV<lambda_1>@?1???$create@V?$basic_string@DU?$char_traits@D@std@@V?$allocator@D@2@@std@@AEBV12@@?$basic_json@Vmap@std@@Vvector@2@V?$basic_string@DU?$char_traits@D@std@@V?$allocator@D@2@@2@_N_J_KNVallocator@2@Uadl_serializer@json_abi_v3_11_3@nlohmann@@V?$vector@EV?$allocator@E@std@@@2@X@json_abi_v3_11_3@nlohmann@@CAPEAV21@AEBV21@@Z@@Z
	??$?0V<lambda_1>@?1???$create@V?$byte_container_with_subtype@V?$vector@EV?$allocator@E@std@@@std@@@json_abi_v3_11_3@nlohmann@@$$V@?$basic_json@Vmap@std@@Vvector@2@V?$basic_string@DU?$char_traits@D@std@@V?$allocator@D@2@@2@_N_J_KNVallocator@2@Uadl_serializer@json_abi_v3_11_3@nlohmann@@V?$vector@EV?$allocator@E@std@@@2@X@json_abi_v3_11_3@nlohmann@@CAPEAV?$byte_container_with_subtype@V?$vector@EV?$allocator@E@std@@@std@@@23@XZ@$0A@@?$unique_ptr@V?$byte_container_with_subtype@V?$vector@EV?$allocator@E@std@@@std@@@json_abi_v3_11_3@nlohmann@@V<lambda_1>@?1???$create@V?$byte_container_with_subtype@V?$vector@EV?$allocator@E@std@@@std@@@json_abi_v3_11_3@nlohmann@@$$V@?$basic_json@Vmap@std@@Vvector@2@V?$basic_string@DU?$char_traits@D@std@@V?$allocator@D@2@@2@_N_J_KNVallocator@2@Uadl_serializer@json_abi_v3_11_3@nlohmann@@V?$vector@EV?$allocator@E@std@@@2@X@23@CAPEAV123@XZ@@std@@QEAA@PEAV?$byte_container_with_subtype@V?$vector@EV?$allocator@E@std@@@std@@@json_abi_v3_11_3@nlohmann@@AEBV<lambda_1>@?1???$create@V?$byte_container_with_subtype@V?$vector@EV?$allocator@E@std@@@std@@@json_abi_v3_11_3@nlohmann@@$$V@?$basic_json@Vmap@std@@Vvector@2@V?$basic_string@DU?$char_traits@D@std@@V?$allocator@D@2@@2@_N_J_KNVallocator@2@Uadl_serializer@json_abi_v3_11_3@nlohmann@@V?$vector@EV?$allocator@E@std@@@2@X@34@CAPEAV234@XZ@@Z
	??$?0V<lambda_1>@?1???$create@V?$byte_container_with_subtype@V?$vector@EV?$allocator@E@std@@@std@@@json_abi_v3_11_3@nlohmann@@AEBV123@@?$basic_json@Vmap@std@@Vvector@2@V?$basic_string@DU?$char_traits@D@std@@V?$allocator@D@2@@2@_N_J_KNVallocator@2@Uadl_serializer@json_abi_v3_11_3@nlohmann@@V?$vector@EV?$allocator@E@std@@@2@X@json_abi_v3_11_3@nlohmann@@CAPEAV?$byte_container_with_subtype@V?$vector@EV?$allocator@E@std@@@std@@@23@AEBV423@@Z@$0A@@?$unique_ptr@V?$byte_container_with_subtype@V?$vector@EV?$allocator@E@std@@@std@@@json_abi_v3_11_3@nlohmann@@V<lambda_1>@?1???$create@V?$byte_container_with_subtype@V?$vector@EV?$allocator@E@std@@@std@@@json_abi_v3_11_3@nlohmann@@AEBV123@@?$basic_json@Vmap@std@@Vvector@2@V?$basic_string@DU?$char_traits@D@std@@V?$allocator@D@2@@2@_N_J_KNVallocator@2@Uadl_serializer@json_abi_v3_11_3@nlohmann@@V?$vector@EV?$allocator@E@std@@@2@X@23@CAPEAV123@AEBV123@@Z@@std@@QEAA@PEAV?$byte_container_with_subtype@V?$vector@EV?$allocator@E@std@@@std@@@json_abi_v3_11_3@nlohmann@@AEBV<lambda_1>@?1???$create@V?$byte_container_with_subtype@V?$vector@EV?$allocator@E@std@@@std@@@json_abi_v3_11_3@nlohmann@@AEBV123@@?$basic_json@Vmap@std@@Vvector@2@V?$basic_string@DU?$char_traits@D@std@@V?$allocator@D@2@@2@_N_J_KNVallocator@2@Uadl_serializer@json_abi_v3_11_3@nlohmann@@V?$vector@EV?$allocator@E@std@@@2@X@34@CAPEAV234@AEBV234@@Z@@Z
	??$?0V<lambda_1>@?1???$create@V?$vector@V?$basic_json@Vmap@std@@Vvector@2@V?$basic_string@DU?$char_traits@D@std@@V?$allocator@D@2@@2@_N_J_KNVallocator@2@Uadl_serializer@json_abi_v3_11_3@nlohmann@@V?$vector@EV?$allocator@E@std@@@2@X@json_abi_v3_11_3@nlohmann@@V?$allocator@V?$basic_json@Vmap@std@@Vvector@2@V?$basic_string@DU?$char_traits@D@std@@V?$allocator@D@2@@2@_N_J_KNVallocator@2@Uadl_serializer@json_abi_v3_11_3@nlohmann@@V?$vector@EV?$allocator@E@std@@@2@X@json_abi_v3_11_3@nlohmann@@@std@@@std@@$$V@?$basic_json@Vmap@std@@Vvector@2@V?$basic_string@DU?$char_traits@D@std@@V?$allocator@D@2@@2@_N_J_KNVallocator@2@Uadl_serializer@json_abi_v3_11_3@nlohmann@@V?$vector@EV?$allocator@E@std@@@2@X@json_abi_v3_11_3@nlohmann@@CAPEAV?$vector@V?$basic_json@Vmap@std@@Vvector@2@V?$basic_string@DU?$char_traits@D@std@@V?$allocator@D@2@@2@_N_J_KNVallocator@2@Uadl_serializer@json_abi_v3_11_3@nlohmann@@V?$vector@EV?$allocator@E@std@@@2@X@json_abi_v3_11_3@nlohmann@@V?$allocator@V?$basic_json@Vmap@std@@Vvector@2@V?$basic_string@DU?$char_traits@D@std@@V?$allocator@D@2@@2@_N_J_KNVallocator@2@Uadl_serializer@json_abi_v3_11_3@nlohmann@@V?$vector@EV?$allocator@E@std@@@2@X@json_abi_v3_11_3@nlohmann@@@std@@@std@@XZ@$0A@@?$unique_ptr@V?$vector@V?$basic_json@Vmap@std@@Vvector@2@V?$basic_string@DU?$char_traits@D@std@@V?$allocator@D@2@@2@_N_J_KNVallocator@2@Uadl_serializer@json_abi_v3_11_3@nlohmann@@V?$vector@EV?$allocator@E@std@@@2@X@json_abi_v3_11_3@nlohmann@@V?$allocator@V?$basic_json@Vmap@std@@Vvector@2@V?$basic_string@DU?$char_traits@D@std@@V?$allocator@D@2@@2@_N_J_KNVallocator@2@Uadl_serializer@json_abi_v3_11_3@nlohmann@@V?$vector@EV?$allocator@E@std@@@2@X@json_abi_v3_11_3@nlohmann@@@std@@@std@@V<lambda_1>@?1???$create@V?$vector@V?$basic_json@Vmap@std@@Vvector@2@V?$basic_string@DU?$char_traits@D@std@@V?$allocator@D@2@@2@_N_J_KNVallocator@2@Uadl_serializer@json_abi_v3_11_3@nlohmann@@V?$vector@EV?$allocator@E@std@@@2@X@json_abi_v3_11_3@nlohmann@@V?$allocator@V?$basic_json@Vmap@std@@Vvector@2@V?$basic_string@DU?$char_traits@D@std@@V?$allocator@D@2@@2@_N_J_KNVallocator@2@Uadl_serializer@json_abi_v3_11_3@nlohmann@@V?$vector@EV?$allocator@E@std@@@2@X@json_abi_v3_11_3@nlohmann@@@std@@@std@@$$V@?$basic_json@Vmap@std@@Vvector@2@V?$basic_string@DU?$char_traits@D@std@@V?$allocator@D@2@@2@_N_J_KNVallocator@2@Uadl_serializer@json_abi_v3_11_3@nlohmann@@V?$vector@EV?$allocator@E@std@@@2@X@json_abi_v3_11_3@nlohmann@@CAPEAV12@XZ@@std@@QEAA@PEAV?$vector@V?$basic_json@Vmap@std@@Vvector@2@V?$basic_string@DU?$char_traits@D@std@@V?$allocator@D@2@@2@_N_J_KNVallocator@2@Uadl_serializer@json_abi_v3_11_3@nlohmann@@V?$vector@EV?$allocator@E@std@@@2@X@json_abi_v3_11_3@nlohmann@@V?$allocator@V?$basic_json@Vmap@std@@Vvector@2@V?$basic_string@DU?$char_traits@D@std@@V?$allocator@D@2@@2@_N_J_KNVallocator@2@Uadl_serializer@json_abi_v3_11_3@nlohmann@@V?$vector@EV?$allocator@E@std@@@2@X@json_abi_v3_11_3@nlohmann@@@std@@@1@AEBV<lambda_1>@?1???$create@V?$vector@V?$basic_json@Vmap@std@@Vvector@2@V?$basic_string@DU?$char_traits@D@std@@V?$allocator@D@2@@2@_N_J_KNVallocator@2@Uadl_serializer@json_abi_v3_11_3@nlohmann@@V?$vector@EV?$allocator@E@std@@@2@X@json_abi_v3_11_3@nlohmann@@V?$allocator@V?$basic_json@Vmap@std@@Vvector@2@V?$basic_string@DU?$char_traits@D@std@@V?$allocator@D@2@@2@_N_J_KNVallocator@2@Uadl_serializer@json_abi_v3_11_3@nlohmann@@V?$vector@EV?$allocator@E@std@@@2@X@json_abi_v3_11_3@nlohmann@@@std@@@std@@$$V@?$basic_json@Vmap@std@@Vvector@2@V?$basic_string@DU?$char_traits@D@std@@V?$allocator@D@2@@2@_N_J_KNVallocator@2@Uadl_serializer@json_abi_v3_11_3@nlohmann@@V?$vector@EV?$allocator@E@std@@@2@X@json_abi_v3_11_3@nlohmann@@CAPEAV21@XZ@@Z
	??$?0V<lambda_1>@?1???$create@V?$vector@V?$basic_json@Vmap@std@@Vvector@2@V?$basic_string@DU?$char_traits@D@std@@V?$allocator@D@2@@2@_N_J_KNVallocator@2@Uadl_serializer@json_abi_v3_11_3@nlohmann@@V?$vector@EV?$allocator@E@std@@@2@X@json_abi_v3_11_3@nlohmann@@V?$allocator@V?$basic_json@Vmap@std@@Vvector@2@V?$basic_string@DU?$char_traits@D@std@@V?$allocator@D@2@@2@_N_J_KNVallocator@2@Uadl_serializer@json_abi_v3_11_3@nlohmann@@V?$vector@EV?$allocator@E@std@@@2@X@json_abi_v3_11_3@nlohmann@@@std@@@std@@AEBV12@@?$basic_json@Vmap@std@@Vvector@2@V?$basic_string@DU?$char_traits@D@std@@V?$allocator@D@2@@2@_N_J_KNVallocator@2@Uadl_serializer@json_abi_v3_11_3@nlohmann@@V?$vector@EV?$allocator@E@std@@@2@X@json_abi_v3_11_3@nlohmann@@CAPEAV?$vector@V?$basic_json@Vmap@std@@Vvector@2@V?$basic_string@DU?$char_traits@D@std@@V?$allocator@D@2@@2@_N_J_KNVallocator@2@Uadl_serializer@json_abi_v3_11_3@nlohmann@@V?$vector@EV?$allocator@E@std@@@2@X@json_abi_v3_11_3@nlohmann@@V?$allocator@V?$basic_json@Vmap@std@@Vvector@2@V?$basic_string@DU?$char_traits@D@std@@V?$allocator@D@2@@2@_N_J_KNVallocator@2@Uadl_serializer@json_abi_v3_11_3@nlohmann@@V?$vector@EV?$allocator@E@std@@@2@X@json_abi_v3_11_3@nlohmann@@@std@@@std@@AEBV45@@Z@$0A@@?$unique_ptr@V?$vector@V?$basic_json@Vmap@std@@Vvector@2@V?$basic_string@DU?$char_traits@D@std@@V?$allocator@D@2@@2@_N_J_KNVallocator@2@Uadl_serializer@json_abi_v3_11_3@nlohmann@@V?$vector@EV?$allocator@E@std@@@2@X@json_abi_v3_11_3@nlohmann@@V?$allocator@V?$basic_json@Vmap@std@@Vvector@2@V?$basic_string@DU?$char_traits@D@std@@V?$allocator@D@2@@2@_N_J_KNVallocator@2@Uadl_serializer@json_abi_v3_11_3@nlohmann@@V?$vector@EV?$allocator@E@std@@@2@X@json_abi_v3_11_3@nlohmann@@@std@@@std@@V<lambda_1>@?1???$create@V?$vector@V?$basic_json@Vmap@std@@Vvector@2@V?$basic_string@DU?$char_traits@D@std@@V?$allocator@D@2@@2@_N_J_KNVallocator@2@Uadl_serializer@json_abi_v3_11_3@nlohmann@@V?$vector@EV?$allocator@E@std@@@2@X@json_abi_v3_11_3@nlohmann@@V?$allocator@V?$basic_json@Vmap@std@@Vvector@2@V?$basic_string@DU?$char_traits@D@std@@V?$allocator@D@2@@2@_N_J_KNVallocator@2@Uadl_serializer@json_abi_v3_11_3@nlohmann@@V?$vector@EV?$allocator@E@std@@@2@X@json_abi_v3_11_3@nlohmann@@@std@@@std@@AEBV12@@?$basic_json@Vmap@std@@Vvector@2@V?$basic_string@DU?$char_traits@D@std@@V?$allocator@D@2@@2@_N_J_KNVallocator@2@Uadl_serializer@json_abi_v3_11_3@nlohmann@@V?$vector@EV?$allocator@E@std@@@2@X@json_abi_v3_11_3@nlohmann@@CAPEAV12@AEBV12@@Z@@std@@QEAA@PEAV?$vector@V?$basic_json@Vmap@std@@Vvector@2@V?$basic_string@DU?$char_traits@D@std@@V?$allocator@D@2@@2@_N_J_KNVallocator@2@Uadl_serializer@json_abi_v3_11_3@nlohmann@@V?$vector@EV?$allocator@E@std@@@2@X@json_abi_v3_11_3@nlohmann@@V?$allocator@V?$basic_json@Vmap@std@@Vvector@2@V?$basic_string@DU?$char_traits@D@std@@V?$allocator@D@2@@2@_N_J_KNVallocator@2@Uadl_serializer@json_abi_v3_11_3@nlohmann@@V?$vector@EV?$allocator@E@std@@@2@X@json_abi_v3_11_3@nlohmann@@@std@@@1@AEBV<lambda_1>@?1???$create@V?$vector@V?$basic_json@Vmap@std@@Vvector@2@V?$basic_string@DU?$char_traits@D@std@@V?$allocator@D@2@@2@_N_J_KNVallocator@2@Uadl_serializer@json_abi_v3_11_3@nlohmann@@V?$vector@EV?$allocator@E@std@@@2@X@json_abi_v3_11_3@nlohmann@@V?$allocator@V?$basic_json@Vmap@std@@Vvector@2@V?$basic_string@DU?$char_traits@D@std@@V?$allocator@D@2@@2@_N_J_KNVallocator@2@Uadl_serializer@json_abi_v3_11_3@nlohmann@@V?$vector@EV?$allocator@E@std@@@2@X@json_abi_v3_11_3@nlohmann@@@std@@@std@@AEBV12@@?$basic_json@Vmap@std@@Vvector@2@V?$basic_string@DU?$char_traits@D@std@@V?$allocator@D@2@@2@_N_J_KNVallocator@2@Uadl_serializer@json_abi_v3_11_3@nlohmann@@V?$vector@EV?$allocator@E@std@@@2@X@json_abi_v3_11_3@nlohmann@@CAPEAV21@AEBV21@@Z@@Z
	??$?0V<lambda_1>@?1??initialize@VRConverter@vrc@@QEAA_NXZ@$0A@@?$_Func_impl_no_alloc@V<lambda_1>@?1??initialize@VRConverter@vrc@@QEAA_NXZ@_NAEAUHookContext@4@@std@@QEAA@$$QEAV<lambda_1>@?1??initialize@VRConverter@vrc@@QEAA_NXZ@@Z
	??$?0V<lambda_1>@?1??initialize@VRConverter@vrc@@QEAA_NXZ@$0A@@?$function@$$A6A_NAEAUHookContext@vrc@@@Z@std@@QEAA@$$QEAV<lambda_1>@?1??initialize@VRConverter@vrc@@QEAA_NXZ@@Z
	??$?0V<lambda_2>@?1??initialize@VRConverter@vrc@@QEAA_NXZ@$0A@@?$_Func_impl_no_alloc@V<lambda_2>@?1??initialize@VRConverter@vrc@@QEAA_NXZ@XAEBUFrameCapture@4@@std@@QEAA@$$QEAV<lambda_2>@?1??initialize@VRConverter@vrc@@QEAA_NXZ@@Z
	??$?0V<lambda_2>@?1??initialize@VRConverter@vrc@@QEAA_NXZ@$0A@@?$function@$$A6AXAEBUFrameCapture@vrc@@@Z@std@@QEAA@$$QEAV<lambda_2>@?1??initialize@VRConverter@vrc@@QEAA_NXZ@@Z
	??$?0V?$_Tree_iterator@V?$_Tree_val@U?$_Tree_simple_types@U?$pair@$$CBV?$basic_string@DU?$char_traits@D@std@@V?$allocator@D@2@@std@@V?$basic_json@Vmap@std@@Vvector@2@V?$basic_string@DU?$char_traits@D@std@@V?$allocator@D@2@@2@_N_J_KNVallocator@2@Uadl_serializer@json_abi_v3_11_3@nlohmann@@V?$vector@EV?$allocator@E@std@@@2@X@json_abi_v3_11_3@nlohmann@@@std@@@std@@@std@@@std@@AEB_N$0A@@?$pair@V?$_Tree_iterator@V?$_Tree_val@U?$_Tree_simple_types@U?$pair@$$CBV?$basic_string@DU?$char_traits@D@std@@V?$allocator@D@2@@std@@V?$basic_json@Vmap@std@@Vvector@2@V?$basic_string@DU?$char_traits@D@std@@V?$allocator@D@2@@2@_N_J_KNVallocator@2@Uadl_serializer@json_abi_v3_11_3@nlohmann@@V?$vector@EV?$allocator@E@std@@@2@X@json_abi_v3_11_3@nlohmann@@@std@@@std@@@std@@@std@@_N@std@@QEAA@$$QEAV?$_Tree_iterator@V?$_Tree_val@U?$_Tree_simple_types@U?$pair@$$CBV?$basic_string@DU?$char_traits@D@std@@V?$allocator@D@2@@std@@V?$basic_json@Vmap@std@@Vvector@2@V?$basic_string@DU?$char_traits@D@std@@V?$allocator@D@2@@2@_N_J_KNVallocator@2@Uadl_serializer@json_abi_v3_11_3@nlohmann@@V?$vector@EV?$allocator@E@std@@@2@X@json_abi_v3_11_3@nlohmann@@@std@@@std@@@std@@@1@AEB_N@Z
	??$?0V?$allocator@D@std@@$$V@?$_Compressed_pair@V?$allocator@D@std@@V?$_String_val@U?$_Simple_types@D@std@@@2@$00@std@@QEAA@U_One_then_variadic_args_t@1@$$QEAV?$allocator@D@1@@Z
	??$?0V?$allocator@E@std@@$$V@?$_Compressed_pair@V?$allocator@E@std@@V?$_Vector_val@U?$_Simple_types@E@std@@@2@$00@std@@QEAA@U_One_then_variadic_args_t@1@$$QEAV?$allocator@E@1@@Z
	??$?0V?$allocator@U?$_Tree_node@U?$pair@$$CBV?$basic_string@DU?$char_traits@D@std@@V?$allocator@D@2@@std@@V?$basic_json@Vmap@std@@Vvector@2@V?$basic_string@DU?$char_traits@D@std@@V?$allocator@D@2@@2@_N_J_KNVallocator@2@Uadl_serializer@json_abi_v3_11_3@nlohmann@@V?$vector@EV?$allocator@E@std@@@2@X@json_abi_v3_11_3@nlohmann@@@std@@PEAX@std@@@std@@$$V@?$_Compressed_pair@V?$allocator@U?$_Tree_node@U?$pair@$$CBV?$basic_string@DU?$char_traits@D@std@@V?$allocator@D@2@@std@@V?$basic_json@Vmap@std@@Vvector@2@V?$basic_string@DU?$char_traits@D@std@@V?$allocator@D@2@@2@_N_J_KNVallocator@2@Uadl_serializer@json_abi_v3_11_3@nlohmann@@V?$vector@EV?$allocator@E@std@@@2@X@json_abi_v3_11_3@nlohmann@@@std@@PEAX@std@@@std@@V?$_Tree_val@U?$_Tree_simple_types@U?$pair@$$CBV?$basic_string@DU?$char_traits@D@std@@V?$allocator@D@2@@std@@V?$basic_json@Vmap@std@@Vvector@2@V?$basic_string@DU?$char_traits@D@std@@V?$allocator@D@2@@2@_N_J_KNVallocator@2@Uadl_serializer@json_abi_v3_11_3@nlohmann@@V?$vector@EV?$allocator@E@std@@@2@X@json_abi_v3_11_3@nlohmann@@@std@@@std@@@2@$00@std@@QEAA@U_One_then_variadic_args_t@1@$$QEAV?$allocator@U?$_Tree_node@U?$pair@$$CBV?$basic_string@DU?$char_traits@D@std@@V?$allocator@D@2@@std@@V?$basic_json@Vmap@std@@Vvector@2@V?$basic_string@DU?$char_traits@D@std@@V?$allocator@D@2@@2@_N_J_KNVallocator@2@Uadl_serializer@json_abi_v3_11_3@nlohmann@@V?$vector@EV?$allocator@E@std@@@2@X@json_abi_v3_11_3@nlohmann@@@std@@PEAX@std@@@1@@Z
	??$?0V?$allocator@U?$_Tree_node@U?$pair@$$CBV?$basic_string@DU?$char_traits@D@std@@V?$allocator@D@2@@std@@V?$basic_json@Vmap@std@@Vvector@2@V?$basic_string@DU?$char_traits@D@std@@V?$allocator@D@2@@2@_N_J_KNVallocator@2@Uadl_serializer@json_abi_v3_11_3@nlohmann@@V?$vector@EV?$allocator@E@std@@@2@X@json_abi_v3_11_3@nlohmann@@@std@@PEAX@std@@@std@@@?$_Tree@V?$_Tmap_traits@V?$basic_string@DU?$char_traits@D@std@@V?$allocator@D@2@@std@@V?$basic_json@Vmap@std@@Vvector@2@V?$basic_string@DU?$char_traits@D@std@@V?$allocator@D@2@@2@_N_J_KNVallocator@2@Uadl_serializer@json_abi_v3_11_3@nlohmann@@V?$vector@EV?$allocator@E@std@@@2@X@json_abi_v3_11_3@nlohmann@@U?$less@X@2@V?$allocator@U?$pair@$$CBV?$basic_string@DU?$char_traits@D@std@@V?$allocator@D@2@@std@@V?$basic_json@Vmap@std@@Vvector@2@V?$basic_string@DU?$char_traits@D@std@@V?$allocator@D@2@@2@_N_J_KNVallocator@2@Uadl_serializer@json_abi_v3_11_3@nlohmann@@V?$vector@EV?$allocator@E@std@@@2@X@json_abi_v3_11_3@nlohmann@@@std@@@2@$0A@@std@@@std@@QEAA@AEBV01@$$QEAV?$allocator@U?$_Tree_node@U?$pair@$$CBV?$basic_string@DU?$char_traits@D@std@@V?$allocator@D@2@@std@@V?$basic_json@Vmap@std@@Vvector@2@V?$basic_string@DU?$char_traits@D@std@@V?$allocator@D@2@@2@_N_J_KNVallocator@2@Uadl_serializer@json_abi_v3_11_3@nlohmann@@V?$vector@EV?$allocator@E@std@@@2@X@json_abi_v3_11_3@nlohmann@@@std@@PEAX@std@@@1@@Z
	??$?0V?$allocator@UXrExtensionProperties@@@std@@$0A@@?$vector@UXrExtensionProperties@@V?$allocator@UXrExtensionProperties@@@std@@@std@@QEAA@_KAEBUXrExtensionProperties@@AEBV?$allocator@UXrExtensionProperties@@@1@@Z
	??$?0V?$allocator@UXrViewConfigurationView@@@std@@$0A@@?$vector@UXrViewConfigurationView@@V?$allocator@UXrViewConfigurationView@@@std@@@std@@QEAA@_KAEBUXrViewConfigurationView@@AEBV?$allocator@UXrViewConfigurationView@@@1@@Z
	??$?0V?$allocator@V?$basic_json@Vmap@std@@Vvector@2@V?$basic_string@DU?$char_traits@D@std@@V?$allocator@D@2@@2@_N_J_KNVallocator@2@Uadl_serializer@json_abi_v3_11_3@nlohmann@@V?$vector@EV?$allocator@E@std@@@2@X@json_abi_v3_11_3@nlohmann@@@std@@$$V@?$_Compressed_pair@V?$allocator@V?$basic_json@Vmap@std@@Vvector@2@V?$basic_string@DU?$char_traits@D@std@@V?$allocator@D@2@@2@_N_J_KNVallocator@2@Uadl_serializer@json_abi_v3_11_3@nlohmann@@V?$vector@EV?$allocator@E@std@@@2@X@json_abi_v3_11_3@nlohmann@@@std@@V?$_Vector_val@U?$_Simple_types@V?$basic_json@Vmap@std@@Vvector@2@V?$basic_string@DU?$char_traits@D@std@@V?$allocator@D@2@@2@_N_J_KNVallocator@2@Uadl_serializer@json_abi_v3_11_3@nlohmann@@V?$vector@EV?$allocator@E@std@@@2@X@json_abi_v3_11_3@nlohmann@@@std@@@2@$00@std@@QEAA@U_One_then_variadic_args_t@1@$$QEAV?$allocator@V?$basic_json@Vmap@std@@Vvector@2@V?$basic_string@DU?$char_traits@D@std@@V?$allocator@D@2@@2@_N_J_KNVallocator@2@Uadl_serializer@json_abi_v3_11_3@nlohmann@@V?$vector@EV?$allocator@E@std@@@2@X@json_abi_v3_11_3@nlohmann@@@1@@Z
	??$?0V?$allocator@_W@std@@$$V@?$_Compressed_pair@V?$allocator@_W@std@@V?$_String_val@U?$_Simple_types@_W@std@@@2@$00@std@@QEAA@U_One_then_variadic_args_t@1@$$QEAV?$allocator@_W@1@@Z
	??$?0V?$basic_string@DU?$char_traits@D@std@@V?$allocator@D@2@@std@@$$T$0A@@?$pair@$$CBV?$basic_string@DU?$char_traits@D@std@@V?$allocator@D@2@@std@@V?$basic_json@Vmap@std@@Vvector@2@V?$basic_string@DU?$char_traits@D@std@@V?$allocator@D@2@@2@_N_J_KNVallocator@2@Uadl_serializer@json_abi_v3_11_3@nlohmann@@V?$vector@EV?$allocator@E@std@@@2@X@json_abi_v3_11_3@nlohmann@@@std@@QEAA@$$QEAV?$basic_string@DU?$char_traits@D@std@@V?$allocator@D@2@@1@$$QEA$$T@Z
	??$?0V?$basic_string@DU?$char_traits@D@std@@V?$allocator@D@2@@std@@$$T@?$_Tree_temp_node@V?$allocator@U?$_Tree_node@U?$pair@$$CBV?$basic_string@DU?$char_traits@D@std@@V?$allocator@D@2@@std@@V?$basic_json@Vmap@std@@Vvector@2@V?$basic_string@DU?$char_traits@D@std@@V?$allocator@D@2@@2@_N_J_KNVallocator@2@Uadl_serializer@json_abi_v3_11_3@nlohmann@@V?$vector@EV?$allocator@E@std@@@2@X@json_abi_v3_11_3@nlohmann@@@std@@PEAX@std@@@std@@@std@@QEAA@AEAV?$allocator@U?$_Tree_node@U?$pair@$$CBV?$basic_string@DU?$char_traits@D@std@@V?$allocator@D@2@@std@@V?$basic_json@Vmap@std@@Vvector@2@V?$basic_string@DU?$char_traits@D@std@@V?$allocator@D@2@@2@_N_J_KNVallocator@2@Uadl_serializer@json_abi_v3_11_3@nlohmann@@V?$vector@EV?$allocator@E@std@@@2@X@json_abi_v3_11_3@nlohmann@@@std@@PEAX@std@@@1@PEAU?$_Tree_node@U?$pair@$$CBV?$basic_string@DU?$char_traits@D@std@@V?$allocator@D@2@@std@@V?$basic_json@Vmap@std@@Vvector@2@V?$basic_string@DU?$char_traits@D@std@@V?$allocator@D@2@@2@_N_J_KNVallocator@2@Uadl_serializer@json_abi_v3_11_3@nlohmann@@V?$vector@EV?$allocator@E@std@@@2@X@json_abi_v3_11_3@nlohmann@@@std@@PEAX@1@$$QEAV?$basic_string@DU?$char_traits@D@std@@V?$allocator@D@2@@1@$$QEA$$T@Z
	??$?0V?$basic_string@DU?$char_traits@D@std@@V?$allocator@D@2@@std@@$$V$0A@@?$tuple@$$QEAV?$basic_string@DU?$char_traits@D@std@@V?$allocator@D@2@@std@@@std@@QEAA@$$QEAV?$basic_string@DU?$char_traits@D@std@@V?$allocator@D@2@@1@@Z
	??$?0V?$basic_string@DU?$char_traits@D@std@@V?$allocator@D@2@@std@@$0A@@path@filesystem@std@@QEAA@AEBV?$basic_string@DU?$char_traits@D@std@@V?$allocator@D@2@@2@W4format@012@@Z
	??$?0V?$basic_string@DU?$char_traits@D@std@@V?$allocator@D@2@@std@@@?$_Tuple_val@$$QEAV?$basic_string@DU?$char_traits@D@std@@V?$allocator@D@2@@std@@@std@@QEAA@$$QEAV?$basic_string@DU?$char_traits@D@std@@V?$allocator@D@2@@1@@Z
	??$?0V?$basic_string@DU?$char_traits@D@std@@V?$allocator@D@2@@std@@@?$basic_format_args@V?$basic_format_context@V?$back_insert_iterator@V?$_Fmt_buffer@D@std@@@std@@D@std@@@std@@QEAA@AEBV?$_Format_arg_store@V?$basic_format_context@V?$back_insert_iterator@V?$_Fmt_buffer@D@std@@@std@@D@std@@V?$basic_string@DU?$char_traits@D@std@@V?$allocator@D@2@@2@@1@@Z
	??$?0V?$basic_string@DU?$char_traits@D@std@@V?$allocator@D@2@@std@@PEBD$$CBV01@@?$basic_format_args@V?$basic_format_context@V?$back_insert_iterator@V?$_Fmt_buffer@D@std@@@std@@D@std@@@std@@QEAA@AEBV?$_Format_arg_store@V?$basic_format_context@V?$back_insert_iterator@V?$_Fmt_buffer@D@std@@@std@@D@std@@V?$basic_string@DU?$char_traits@D@std@@V?$allocator@D@2@@2@PEBD$$CBV32@@1@@Z
	??$?0V?$basic_string@DU?$char_traits@D@std@@V?$allocator@D@2@@std@@V?$basic_json@Vmap@std@@Vvector@2@V?$basic_string@DU?$char_traits@D@std@@V?$allocator@D@2@@2@_N_J_KNVallocator@2@Uadl_serializer@json_abi_v3_11_3@nlohmann@@V?$vector@EV?$allocator@E@std@@@2@X@json_abi_v3_11_3@nlohmann@@$0A@@?$pair@$$CBV?$basic_string@DU?$char_traits@D@std@@V?$allocator@D@2@@std@@V?$basic_json@Vmap@std@@Vvector@2@V?$basic_string@DU?$char_traits@D@std@@V?$allocator@D@2@@2@_N_J_KNVallocator@2@Uadl_serializer@json_abi_v3_11_3@nlohmann@@V?$vector@EV?$allocator@E@std@@@2@X@json_abi_v3_11_3@nlohmann@@@std@@QEAA@$$QEAV?$basic_string@DU?$char_traits@D@std@@V?$allocator@D@2@@1@$$QEAV?$basic_json@Vmap@std@@Vvector@2@V?$basic_string@DU?$char_traits@D@std@@V?$allocator@D@2@@2@_N_J_KNVallocator@2@Uadl_serializer@json_abi_v3_11_3@nlohmann@@V?$vector@EV?$allocator@E@std@@@2@X@json_abi_v3_11_3@nlohmann@@@Z
	??$?0V?$basic_string@DU?$char_traits@D@std@@V?$allocator@D@2@@std@@V?$basic_json@Vmap@std@@Vvector@2@V?$basic_string@DU?$char_traits@D@std@@V?$allocator@D@2@@2@_N_J_KNVallocator@2@Uadl_serializer@json_abi_v3_11_3@nlohmann@@V?$vector@EV?$allocator@E@std@@@2@X@json_abi_v3_11_3@nlohmann@@@?$_Tree_temp_node@V?$allocator@U?$_Tree_node@U?$pair@$$CBV?$basic_string@DU?$char_traits@D@std@@V?$allocator@D@2@@std@@V?$basic_json@Vmap@std@@Vvector@2@V?$basic_string@DU?$char_traits@D@std@@V?$allocator@D@2@@2@_N_J_KNVallocator@2@Uadl_serializer@json_abi_v3_11_3@nlohmann@@V?$vector@EV?$allocator@E@std@@@2@X@json_abi_v3_11_3@nlohmann@@@std@@PEAX@std@@@std@@@std@@QEAA@AEAV?$allocator@U?$_Tree_node@U?$pair@$$CBV?$basic_string@DU?$char_traits@D@std@@V?$allocator@D@2@@std@@V?$basic_json@Vmap@std@@Vvector@2@V?$basic_string@DU?$char_traits@D@std@@V?$allocator@D@2@@2@_N_J_KNVallocator@2@Uadl_serializer@json_abi_v3_11_3@nlohmann@@V?$vector@EV?$allocator@E@std@@@2@X@json_abi_v3_11_3@nlohmann@@@std@@PEAX@std@@@1@PEAU?$_Tree_node@U?$pair@$$CBV?$basic_string@DU?$char_traits@D@std@@V?$allocator@D@2@@std@@V?$basic_json@Vmap@std@@Vvector@2@V?$basic_string@DU?$char_traits@D@std@@V?$allocator@D@2@@2@_N_J_KNVallocator@2@Uadl_serializer@json_abi_v3_11_3@nlohmann@@V?$vector@EV?$allocator@E@std@@@2@X@json_abi_v3_11_3@nlohmann@@@std@@PEAX@1@$$QEAV?$basic_string@DU?$char_traits@D@std@@V?$allocator@D@2@@1@$$QEAV?$basic_json@Vmap@std@@Vvector@2@V?$basic_string@DU?$char_traits@D@std@@V?$allocator@D@2@@2@_N_J_KNVallocator@2@Uadl_serializer@json_abi_v3_11_3@nlohmann@@V?$vector@EV?$allocator@E@std@@@2@X@json_abi_v3_11_3@nlohmann@@@Z
	??$?0V?$basic_string_view@_WU?$char_traits@_W@std@@@std@@$0A@@?$basic_string@_WU?$char_traits@_W@std@@V?$allocator@_W@2@@std@@QEAA@AEBV?$basic_string_view@_WU?$char_traits@_W@std@@@1@AEBV?$allocator@_W@1@@Z
	??$?0V?$basic_string_view@_WU?$char_traits@_W@std@@@std@@$0A@@path@filesystem@std@@QEAA@AEBV?$basic_string_view@_WU?$char_traits@_W@std@@@2@W4format@012@@Z
	??$?0V?$json_ref@V?$basic_json@Vmap@std@@Vvector@2@V?$basic_string@DU?$char_traits@D@std@@V?$allocator@D@2@@2@_N_J_KNVallocator@2@Uadl_serializer@json_abi_v3_11_3@nlohmann@@V?$vector@EV?$allocator@E@std@@@2@X@json_abi_v3_11_3@nlohmann@@@detail@json_abi_v3_11_3@nlohmann@@$0A@@?$basic_json@Vmap@std@@Vvector@2@V?$basic_string@DU?$char_traits@D@std@@V?$allocator@D@2@@2@_N_J_KNVallocator@2@Uadl_serializer@json_abi_v3_11_3@nlohmann@@V?$vector@EV?$allocator@E@std@@@2@X@json_abi_v3_11_3@nlohmann@@QEAA@AEBV?$json_ref@V?$basic_json@Vmap@std@@Vvector@2@V?$basic_string@DU?$char_traits@D@std@@V?$allocator@D@2@@2@_N_J_KNVallocator@2@Uadl_serializer@json_abi_v3_11_3@nlohmann@@V?$vector@EV?$allocator@E@std@@@2@X@json_abi_v3_11_3@nlohmann@@@detail@12@@Z
	??$?0V?$output_string_adapter@DV?$basic_string@DU?$char_traits@D@std@@V?$allocator@D@2@@std@@@detail@json_abi_v3_11_3@nlohmann@@$0A@@?$shared_ptr@U?$output_adapter_protocol@D@detail@json_abi_v3_11_3@nlohmann@@@std@@QEAA@$$QEAV?$shared_ptr@V?$output_string_adapter@DV?$basic_string@DU?$char_traits@D@std@@V?$allocator@D@2@@std@@@detail@json_abi_v3_11_3@nlohmann@@@1@@Z
	??$?0V?$tuple@$$QEAV?$basic_string@DU?$char_traits@D@std@@V?$allocator@D@2@@std@@@std@@V?$tuple@$$V@1@$0A@$$Z$S@?$pair@$$CBV?$basic_string@DU?$char_traits@D@std@@V?$allocator@D@2@@std@@UConfigProfile@vrc@@@std@@AEAA@AEAV?$tuple@$$QEAV?$basic_string@DU?$char_traits@D@std@@V?$allocator@D@2@@std@@@1@AEAV?$tuple@$$V@1@U?$integer_sequence@_K$0A@@1@U?$integer_sequence@_K$S@1@@Z
	??$?0V?$tuple@$$QEAW4InputAction@vrc@@@std@@V?$tuple@$$V@1@$0A@$$Z$S@?$pair@$$CBW4InputAction@vrc@@M@std@@AEAA@AEAV?$tuple@$$QEAW4InputAction@vrc@@@1@AEAV?$tuple@$$V@1@U?$integer_sequence@_K$0A@@1@U?$integer_sequence@_K$S@1@@Z
	??$?0V?$tuple@AEBG@std@@V?$tuple@$$V@1@$0A@$$Z$S@?$pair@$$CBG_N@std@@AEAA@AEAV?$tuple@AEBG@1@AEAV?$tuple@$$V@1@U?$integer_sequence@_K$0A@@1@U?$integer_sequence@_K$S@1@@Z
	??$?0V?$tuple@AEBV?$basic_string@DU?$char_traits@D@std@@V?$allocator@D@2@@std@@@std@@V?$tuple@$$V@1@$0A@$$Z$S@?$pair@$$CBV?$basic_string@DU?$char_traits@D@std@@V?$allocator@D@2@@std@@UConfigProfile@vrc@@@std@@AEAA@AEAV?$tuple@AEBV?$basic_string@DU?$char_traits@D@std@@V?$allocator@D@2@@std@@@1@AEAV?$tuple@$$V@1@U?$integer_sequence@_K$0A@@1@U?$integer_sequence@_K$S@1@@Z
	??$?0V?$tuple@AEBV?$basic_string@DU?$char_traits@D@std@@V?$allocator@D@2@@std@@@std@@V?$tuple@$$V@1@$0A@$$Z$S@?$pair@$$CBV?$basic_string@DU?$char_traits@D@std@@V?$allocator@D@2@@std@@UInputProfile@vrc@@@std@@AEAA@AEAV?$tuple@AEBV?$basic_string@DU?$char_traits@D@std@@V?$allocator@D@2@@std@@@1@AEAV?$tuple@$$V@1@U?$integer_sequence@_K$0A@@1@U?$integer_sequence@_K$S@1@@Z
	??$?0V?$tuple@AEBV?$basic_string@DU?$char_traits@D@std@@V?$allocator@D@2@@std@@@std@@V?$tuple@$$V@1@$0A@$$Z$S@?$pair@$$CBV?$basic_string@DU?$char_traits@D@std@@V?$allocator@D@2@@std@@V?$basic_json@Vmap@std@@Vvector@2@V?$basic_string@DU?$char_traits@D@std@@V?$allocator@D@2@@2@_N_J_KNVallocator@2@Uadl_serializer@json_abi_v3_11_3@nlohmann@@V?$vector@EV?$allocator@E@std@@@2@X@json_abi_v3_11_3@nlohmann@@@std@@AEAA@AEAV?$tuple@AEBV?$basic_string@DU?$char_traits@D@std@@V?$allocator@D@2@@std@@@1@AEAV?$tuple@$$V@1@U?$integer_sequence@_K$0A@@1@U?$integer_sequence@_K$S@1@@Z
	??$?0V?$tuple@AEBV?$basic_string@DU?$char_traits@D@std@@V?$allocator@D@2@@std@@@std@@V?$tuple@$$V@1@$0A@$$Z$S@?$pair@$$CBV?$basic_string@DU?$char_traits@D@std@@V?$allocator@D@2@@std@@V?$function@$$A6AXXZ@2@@std@@AEAA@AEAV?$tuple@AEBV?$basic_string@DU?$char_traits@D@std@@V?$allocator@D@2@@std@@@1@AEAV?$tuple@$$V@1@U?$integer_sequence@_K$0A@@1@U?$integer_sequence@_K$S@1@@Z
	??$?0V?$tuple@AEBW4InputAction@vrc@@@std@@V?$tuple@$$V@1@$0A@$$Z$S@?$pair@$$CBW4InputAction@vrc@@M@std@@AEAA@AEAV?$tuple@AEBW4InputAction@vrc@@@1@AEAV?$tuple@$$V@1@U?$integer_sequence@_K$0A@@1@U?$integer_sequence@_K$S@1@@Z
	??$?0Vpath@filesystem@std@@$0A@@?$basic_ifstream@DU?$char_traits@D@std@@@std@@QEAA@AEBVpath@filesystem@1@HH@Z
	??$?0Vpath@filesystem@std@@$0A@@?$basic_ofstream@DU?$char_traits@D@std@@@std@@QEAA@AEBVpath@filesystem@1@HH@Z
	??$?0W4InputAction@vrc@@$$V$0A@@?$tuple@$$QEAW4InputAction@vrc@@@std@@QEAA@$$QEAW4InputAction@vrc@@@Z
	??$?0W4InputAction@vrc@@@?$_Tuple_val@$$QEAW4InputAction@vrc@@@std@@QEAA@$$QEAW4InputAction@vrc@@@Z
	??$?0_J$0A@@?$duration@_JU?$ratio@$00$00@std@@@chrono@std@@QEAA@AEB_J@Z
	??$?0_J$0A@@?$duration@_JU?$ratio@$00$0DLJKMKAA@@std@@@chrono@std@@QEAA@AEB_J@Z
	??$?0_J$0A@@?$duration@_JU?$ratio@$00$0DOI@@std@@@chrono@std@@QEAA@AEB_J@Z
	??$?0_J$0A@@?$duration@_JU?$ratio@$00$0JIJGIA@@std@@@chrono@std@@QEAA@AEB_J@Z
	??$?0_J$0A@@?$duration@_JU?$ratio@$00$0PECEA@@std@@@chrono@std@@QEAA@AEB_J@Z
	??$?0_K@?$basic_format_args@V?$basic_format_context@V?$back_insert_iterator@V?$_Fmt_buffer@D@std@@@std@@D@std@@@std@@QEAA@AEBV?$_Format_arg_store@V?$basic_format_context@V?$back_insert_iterator@V?$_Fmt_buffer@D@std@@@std@@D@std@@_K@1@@Z
	??$?0_N$$T$0A@@?$pair@_NPEAV?$basic_json@Vmap@std@@Vvector@2@V?$basic_string@DU?$char_traits@D@std@@V?$allocator@D@2@@2@_N_J_KNVallocator@2@Uadl_serializer@json_abi_v3_11_3@nlohmann@@V?$vector@EV?$allocator@E@std@@@2@X@json_abi_v3_11_3@nlohmann@@@std@@QEAA@$$QEA_N$$QEA$$T@Z
	??$?0_N@?$allocator@I@std@@QEAA@AEBV?$allocator@_N@1@@Z
	??$?0_NAEAPEAV?$basic_json@Vmap@std@@Vvector@2@V?$basic_string@DU?$char_traits@D@std@@V?$allocator@D@2@@2@_N_J_KNVallocator@2@Uadl_serializer@json_abi_v3_11_3@nlohmann@@V?$vector@EV?$allocator@E@std@@@2@X@json_abi_v3_11_3@nlohmann@@$0A@@?$pair@_NPEAV?$basic_json@Vmap@std@@Vvector@2@V?$basic_string@DU?$char_traits@D@std@@V?$allocator@D@2@@2@_N_J_KNVallocator@2@Uadl_serializer@json_abi_v3_11_3@nlohmann@@V?$vector@EV?$allocator@E@std@@@2@X@json_abi_v3_11_3@nlohmann@@@std@@QEAA@$$QEA_NAEAPEAV?$basic_json@Vmap@std@@Vvector@2@V?$basic_string@DU?$char_traits@D@std@@V?$allocator@D@2@@2@_N_J_KNVallocator@2@Uadl_serializer@json_abi_v3_11_3@nlohmann@@V?$vector@EV?$allocator@E@std@@@2@X@json_abi_v3_11_3@nlohmann@@@Z
	??$?0_NPEAV?$basic_json@Vmap@std@@Vvector@2@V?$basic_string@DU?$char_traits@D@std@@V?$allocator@D@2@@2@_N_J_KNVallocator@2@Uadl_serializer@json_abi_v3_11_3@nlohmann@@V?$vector@EV?$allocator@E@std@@@2@X@json_abi_v3_11_3@nlohmann@@$0A@@?$pair@_NPEAV?$basic_json@Vmap@std@@Vvector@2@V?$basic_string@DU?$char_traits@D@std@@V?$allocator@D@2@@2@_N_J_KNVallocator@2@Uadl_serializer@json_abi_v3_11_3@nlohmann@@V?$vector@EV?$allocator@E@std@@@2@X@json_abi_v3_11_3@nlohmann@@@std@@QEAA@$$QEA_N$$QEAPEAV?$basic_json@Vmap@std@@Vvector@2@V?$basic_string@DU?$char_traits@D@std@@V?$allocator@D@2@@2@_N_J_KNVallocator@2@Uadl_serializer@json_abi_v3_11_3@nlohmann@@V?$vector@EV?$allocator@E@std@@@2@X@json_abi_v3_11_3@nlohmann@@@Z
	??$?6DU?$char_traits@D@std@@@std@@YAAEAV?$basic_ostream@DU?$char_traits@D@std@@@0@AEAV10@AEBU?$_Fillobj@D@0@@Z
	??$?6DU?$char_traits@D@std@@@std@@YAAEAV?$basic_ostream@DU?$char_traits@D@std@@@0@AEAV10@AEBU?$_Smanip@_J@0@@Z
	??$?6DU?$char_traits@D@std@@@std@@YAAEAV?$basic_ostream@DU?$char_traits@D@std@@@0@AEAV10@AEBU?$_Timeobj@DPEBUtm@@@0@@Z
	??$?6DU?$char_traits@D@std@@V?$allocator@D@1@@std@@YAAEAV?$basic_ostream@DU?$char_traits@D@std@@@0@AEAV10@AEBV?$basic_string@DU?$char_traits@D@std@@V?$allocator@D@2@@0@@Z
	??$?6U?$char_traits@D@std@@@std@@YAAEAV?$basic_ostream@DU?$char_traits@D@std@@@0@AEAV10@D@Z
	??$?6U?$char_traits@D@std@@@std@@YAAEAV?$basic_ostream@DU?$char_traits@D@std@@@0@AEAV10@PEBD@Z
	??$?8DU?$char_traits@D@std@@V?$allocator@D@1@@std@@YA_NAEBV?$basic_string@DU?$char_traits@D@std@@V?$allocator@D@2@@0@0@Z
	??$?8DU?$char_traits@D@std@@V?$allocator@D@1@@std@@YA_NAEBV?$basic_string@DU?$char_traits@D@std@@V?$allocator@D@2@@0@QEBD@Z
	??$?8V?$basic_string@DU?$char_traits@D@std@@V?$allocator@D@2@@std@@V<lambda_1>@?1???$create@V?$basic_string@DU?$char_traits@D@std@@V?$allocator@D@2@@std@@AEAY00$$CBD@?$basic_json@Vmap@std@@Vvector@2@V?$basic_string@DU?$char_traits@D@std@@V?$allocator@D@2@@2@_N_J_KNVallocator@2@Uadl_serializer@json_abi_v3_11_3@nlohmann@@V?$vector@EV?$allocator@E@std@@@2@X@json_abi_v3_11_3@nlohmann@@CAPEAV01@AEAY00$$CBD@Z@@std@@YA_NAEBV?$unique_ptr@V?$basic_string@DU?$char_traits@D@std@@V?$allocator@D@2@@std@@V<lambda_1>@?1???$create@V?$basic_string@DU?$char_traits@D@std@@V?$allocator@D@2@@std@@AEAY00$$CBD@?$basic_json@Vmap@std@@Vvector@2@V?$basic_string@DU?$char_traits@D@std@@V?$allocator@D@2@@2@_N_J_KNVallocator@2@Uadl_serializer@json_abi_v3_11_3@nlohmann@@V?$vector@EV?$allocator@E@std@@@2@X@json_abi_v3_11_3@nlohmann@@CAPEAV12@AEAY00$$CBD@Z@@0@$$T@Z
	??$?8V?$basic_string@DU?$char_traits@D@std@@V?$allocator@D@2@@std@@V<lambda_1>@?1???$create@V?$basic_string@DU?$char_traits@D@std@@V?$allocator@D@2@@std@@AEBV12@@?$basic_json@Vmap@std@@Vvector@2@V?$basic_string@DU?$char_traits@D@std@@V?$allocator@D@2@@2@_N_J_KNVallocator@2@Uadl_serializer@json_abi_v3_11_3@nlohmann@@V?$vector@EV?$allocator@E@std@@@2@X@json_abi_v3_11_3@nlohmann@@CAPEAV01@AEBV01@@Z@@std@@YA_NAEBV?$unique_ptr@V?$basic_string@DU?$char_traits@D@std@@V?$allocator@D@2@@std@@V<lambda_1>@?1???$create@V?$basic_string@DU?$char_traits@D@std@@V?$allocator@D@2@@std@@AEBV12@@?$basic_json@Vmap@std@@Vvector@2@V?$basic_string@DU?$char_traits@D@std@@V?$allocator@D@2@@2@_N_J_KNVallocator@2@Uadl_serializer@json_abi_v3_11_3@nlohmann@@V?$vector@EV?$allocator@E@std@@@2@X@json_abi_v3_11_3@nlohmann@@CAPEAV12@AEBV12@@Z@@0@$$T@Z
	??$?8V?$byte_container_with_subtype@V?$vector@EV?$allocator@E@std@@@std@@@json_abi_v3_11_3@nlohmann@@V<lambda_1>@?1???$create@V?$byte_container_with_subtype@V?$vector@EV?$allocator@E@std@@@std@@@json_abi_v3_11_3@nlohmann@@$$V@?$basic_json@Vmap@std@@Vvector@2@V?$basic_string@DU?$char_traits@D@std@@V?$allocator@D@2@@2@_N_J_KNVallocator@2@Uadl_serializer@json_abi_v3_11_3@nlohmann@@V?$vector@EV?$allocator@E@std@@@2@X@12@CAPEAV012@XZ@@std@@YA_NAEBV?$unique_ptr@V?$byte_container_with_subtype@V?$vector@EV?$allocator@E@std@@@std@@@json_abi_v3_11_3@nlohmann@@V<lambda_1>@?1???$create@V?$byte_container_with_subtype@V?$vector@EV?$allocator@E@std@@@std@@@json_abi_v3_11_3@nlohmann@@$$V@?$basic_json@Vmap@std@@Vvector@2@V?$basic_string@DU?$char_traits@D@std@@V?$allocator@D@2@@2@_N_J_KNVallocator@2@Uadl_serializer@json_abi_v3_11_3@nlohmann@@V?$vector@EV?$allocator@E@std@@@2@X@23@CAPEAV123@XZ@@0@$$T@Z
	??$?8V?$byte_container_with_subtype@V?$vector@EV?$allocator@E@std@@@std@@@json_abi_v3_11_3@nlohmann@@V<lambda_1>@?1???$create@V?$byte_container_with_subtype@V?$vector@EV?$allocator@E@std@@@std@@@json_abi_v3_11_3@nlohmann@@AEBV123@@?$basic_json@Vmap@std@@Vvector@2@V?$basic_string@DU?$char_traits@D@std@@V?$allocator@D@2@@2@_N_J_KNVallocator@2@Uadl_serializer@json_abi_v3_11_3@nlohmann@@V?$vector@EV?$allocator@E@std@@@2@X@12@CAPEAV012@AEBV012@@Z@@std@@YA_NAEBV?$unique_ptr@V?$byte_container_with_subtype@V?$vector@EV?$allocator@E@std@@@std@@@json_abi_v3_11_3@nlohmann@@V<lambda_1>@?1???$create@V?$byte_container_with_subtype@V?$vector@EV?$allocator@E@std@@@std@@@json_abi_v3_11_3@nlohmann@@AEBV123@@?$basic_json@Vmap@std@@Vvector@2@V?$basic_string@DU?$char_traits@D@std@@V?$allocator@D@2@@2@_N_J_KNVallocator@2@Uadl_serializer@json_abi_v3_11_3@nlohmann@@V?$vector@EV?$allocator@E@std@@@2@X@23@CAPEAV123@AEBV123@@Z@@0@$$T@Z
	??$?8V?$iter_impl@$$CBV?$basic_json@Vmap@std@@Vvector@2@V?$basic_string@DU?$char_traits@D@std@@V?$allocator@D@2@@2@_N_J_KNVallocator@2@Uadl_serializer@json_abi_v3_11_3@nlohmann@@V?$vector@EV?$allocator@E@std@@@2@X@json_abi_v3_11_3@nlohmann@@@detail@json_abi_v3_11_3@nlohmann@@$0A@@?$iter_impl@$$CBV?$basic_json@Vmap@std@@Vvector@2@V?$basic_string@DU?$char_traits@D@std@@V?$allocator@D@2@@2@_N_J_KNVallocator@2@Uadl_serializer@json_abi_v3_11_3@nlohmann@@V?$vector@EV?$allocator@E@std@@@2@X@json_abi_v3_11_3@nlohmann@@@detail@json_abi_v3_11_3@nlohmann@@QEBA_NAEBV0123@@Z
	??$?8V?$iter_impl@V?$basic_json@Vmap@std@@Vvector@2@V?$basic_string@DU?$char_traits@D@std@@V?$allocator@D@2@@2@_N_J_KNVallocator@2@Uadl_serializer@json_abi_v3_11_3@nlohmann@@V?$vector@EV?$allocator@E@std@@@2@X@json_abi_v3_11_3@nlohmann@@@detail@json_abi_v3_11_3@nlohmann@@$0A@@?$iter_impl@V?$basic_json@Vmap@std@@Vvector@2@V?$basic_string@DU?$char_traits@D@std@@V?$allocator@D@2@@2@_N_J_KNVallocator@2@Uadl_serializer@json_abi_v3_11_3@nlohmann@@V?$vector@EV?$allocator@E@std@@@2@X@json_abi_v3_11_3@nlohmann@@@detail@json_abi_v3_11_3@nlohmann@@QEBA_NAEBV0123@@Z
	??$?8V?$map@V?$basic_string@DU?$char_traits@D@std@@V?$allocator@D@2@@std@@V?$basic_json@Vmap@std@@Vvector@2@V?$basic_string@DU?$char_traits@D@std@@V?$allocator@D@2@@2@_N_J_KNVallocator@2@Uadl_serializer@json_abi_v3_11_3@nlohmann@@V?$vector@EV?$allocator@E@std@@@2@X@json_abi_v3_11_3@nlohmann@@U?$less@X@2@V?$allocator@U?$pair@$$CBV?$basic_string@DU?$char_traits@D@std@@V?$allocator@D@2@@std@@V?$basic_json@Vmap@std@@Vvector@2@V?$basic_string@DU?$char_traits@D@std@@V?$allocator@D@2@@2@_N_J_KNVallocator@2@Uadl_serializer@json_abi_v3_11_3@nlohmann@@V?$vector@EV?$allocator@E@std@@@2@X@json_abi_v3_11_3@nlohmann@@@std@@@2@@std@@V<lambda_1>@?1???$create@V?$map@V?$basic_string@DU?$char_traits@D@std@@V?$allocator@D@2@@std@@V?$basic_json@Vmap@std@@Vvector@2@V?$basic_string@DU?$char_traits@D@std@@V?$allocator@D@2@@2@_N_J_KNVallocator@2@Uadl_serializer@json_abi_v3_11_3@nlohmann@@V?$vector@EV?$allocator@E@std@@@2@X@json_abi_v3_11_3@nlohmann@@U?$less@X@2@V?$allocator@U?$pair@$$CBV?$basic_string@DU?$char_traits@D@std@@V?$allocator@D@2@@std@@V?$basic_json@Vmap@std@@Vvector@2@V?$basic_string@DU?$char_traits@D@std@@V?$allocator@D@2@@2@_N_J_KNVallocator@2@Uadl_serializer@json_abi_v3_11_3@nlohmann@@V?$vector@EV?$allocator@E@std@@@2@X@json_abi_v3_11_3@nlohmann@@@std@@@2@@std@@$$V@?$basic_json@Vmap@std@@Vvector@2@V?$basic_string@DU?$char_traits@D@std@@V?$allocator@D@2@@2@_N_J_KNVallocator@2@Uadl_serializer@json_abi_v3_11_3@nlohmann@@V?$vector@EV?$allocator@E@std@@@2@X@json_abi_v3_11_3@nlohmann@@CAPEAV01@XZ@@std@@YA_NAEBV?$unique_ptr@V?$map@V?$basic_string@DU?$char_traits@D@std@@V?$allocator@D@2@@std@@V?$basic_json@Vmap@std@@Vvector@2@V?$basic_string@DU?$char_traits@D@std@@V?$allocator@D@2@@2@_N_J_KNVallocator@2@Uadl_serializer@json_abi_v3_11_3@nlohmann@@V?$vector@EV?$allocator@E@std@@@2@X@json_abi_v3_11_3@nlohmann@@U?$less@X@2@V?$allocator@U?$pair@$$CBV?$basic_string@DU?$char_traits@D@std@@V?$allocator@D@2@@std@@V?$basic_json@Vmap@std@@Vvector@2@V?$basic_string@DU?$char_traits@D@std@@V?$allocator@D@2@@2@_N_J_KNVallocator@2@Uadl_serializer@json_abi_v3_11_3@nlohmann@@V?$vector@EV?$allocator@E@std@@@2@X@json_abi_v3_11_3@nlohmann@@@std@@@2@@std@@V<lambda_1>@?1???$create@V?$map@V?$basic_string@DU?$char_traits@D@std@@V?$allocator@D@2@@std@@V?$basic_json@Vmap@std@@Vvector@2@V?$basic_string@DU?$char_traits@D@std@@V?$allocator@D@2@@2@_N_J_KNVallocator@2@Uadl_serializer@json_abi_v3_11_3@nlohmann@@V?$vector@EV?$allocator@E@std@@@2@X@json_abi_v3_11_3@nlohmann@@U?$less@X@2@V?$allocator@U?$pair@$$CBV?$basic_string@DU?$char_traits@D@std@@V?$allocator@D@2@@std@@V?$basic_json@Vmap@std@@Vvector@2@V?$basic_string@DU?$char_traits@D@std@@V?$allocator@D@2@@2@_N_J_KNVallocator@2@Uadl_serializer@json_abi_v3_11_3@nlohmann@@V?$vector@EV?$allocator@E@std@@@2@X@json_abi_v3_11_3@nlohmann@@@std@@@2@@std@@$$V@?$basic_json@Vmap@std@@Vvector@2@V?$basic_string@DU?$char_traits@D@std@@V?$allocator@D@2@@2@_N_J_KNVallocator@2@Uadl_serializer@json_abi_v3_11_3@nlohmann@@V?$vector@EV?$allocator@E@std@@@2@X@json_abi_v3_11_3@nlohmann@@CAPEAV12@XZ@@0@$$T@Z
	??$?8V?$map@V?$basic_string@DU?$char_traits@D@std@@V?$allocator@D@2@@std@@V?$basic_json@Vmap@std@@Vvector@2@V?$basic_string@DU?$char_traits@D@std@@V?$allocator@D@2@@2@_N_J_KNVallocator@2@Uadl_serializer@json_abi_v3_11_3@nlohmann@@V?$vector@EV?$allocator@E@std@@@2@X@json_abi_v3_11_3@nlohmann@@U?$less@X@2@V?$allocator@U?$pair@$$CBV?$basic_string@DU?$char_traits@D@std@@V?$allocator@D@2@@std@@V?$basic_json@Vmap@std@@Vvector@2@V?$basic_string@DU?$char_traits@D@std@@V?$allocator@D@2@@2@_N_J_KNVallocator@2@Uadl_serializer@json_abi_v3_11_3@nlohmann@@V?$vector@EV?$allocator@E@std@@@2@X@json_abi_v3_11_3@nlohmann@@@std@@@2@@std@@V<lambda_1>@?1???$create@V?$map@V?$basic_string@DU?$char_traits@D@std@@V?$allocator@D@2@@std@@V?$basic_json@Vmap@std@@Vvector@2@V?$basic_string@DU?$char_traits@D@std@@V?$allocator@D@2@@2@_N_J_KNVallocator@2@Uadl_serializer@json_abi_v3_11_3@nlohmann@@V?$vector@EV?$allocator@E@std@@@2@X@json_abi_v3_11_3@nlohmann@@U?$less@X@2@V?$allocator@U?$pair@$$CBV?$basic_string@DU?$char_traits@D@std@@V?$allocator@D@2@@std@@V?$basic_json@Vmap@std@@Vvector@2@V?$basic_string@DU?$char_traits@D@std@@V?$allocator@D@2@@2@_N_J_KNVallocator@2@Uadl_serializer@json_abi_v3_11_3@nlohmann@@V?$vector@EV?$allocator@E@std@@@2@X@json_abi_v3_11_3@nlohmann@@@std@@@2@@std@@AEBV12@@?$basic_json@Vmap@std@@Vvector@2@V?$basic_string@DU?$char_traits@D@std@@V?$allocator@D@2@@2@_N_J_KNVallocator@2@Uadl_serializer@json_abi_v3_11_3@nlohmann@@V?$vector@EV?$allocator@E@std@@@2@X@json_abi_v3_11_3@nlohmann@@CAPEAV01@AEBV01@@Z@@std@@YA_NAEBV?$unique_ptr@V?$map@V?$basic_string@DU?$char_traits@D@std@@V?$allocator@D@2@@std@@V?$basic_json@Vmap@std@@Vvector@2@V?$basic_string@DU?$char_traits@D@std@@V?$allocator@D@2@@2@_N_J_KNVallocator@2@Uadl_serializer@json_abi_v3_11_3@nlohmann@@V?$vector@EV?$allocator@E@std@@@2@X@json_abi_v3_11_3@nlohmann@@U?$less@X@2@V?$allocator@U?$pair@$$CBV?$basic_string@DU?$char_traits@D@std@@V?$allocator@D@2@@std@@V?$basic_json@Vmap@std@@Vvector@2@V?$basic_string@DU?$char_traits@D@std@@V?$allocator@D@2@@2@_N_J_KNVallocator@2@Uadl_serializer@json_abi_v3_11_3@nlohmann@@V?$vector@EV?$allocator@E@std@@@2@X@json_abi_v3_11_3@nlohmann@@@std@@@2@@std@@V<lambda_1>@?1???$create@V?$map@V?$basic_string@DU?$char_traits@D@std@@V?$allocator@D@2@@std@@V?$basic_json@Vmap@std@@Vvector@2@V?$basic_string@DU?$char_traits@D@std@@V?$allocator@D@2@@2@_N_J_KNVallocator@2@Uadl_serializer@json_abi_v3_11_3@nlohmann@@V?$vector@EV?$allocator@E@std@@@2@X@json_abi_v3_11_3@nlohmann@@U?$less@X@2@V?$allocator@U?$pair@$$CBV?$basic_string@DU?$char_traits@D@std@@V?$allocator@D@2@@std@@V?$basic_json@Vmap@std@@Vvector@2@V?$basic_string@DU?$char_traits@D@std@@V?$allocator@D@2@@2@_N_J_KNVallocator@2@Uadl_serializer@json_abi_v3_11_3@nlohmann@@V?$vector@EV?$allocator@E@std@@@2@X@json_abi_v3_11_3@nlohmann@@@std@@@2@@std@@AEBV12@@?$basic_json@Vmap@std@@Vvector@2@V?$basic_string@DU?$char_traits@D@std@@V?$allocator@D@2@@2@_N_J_KNVallocator@2@Uadl_serializer@json_abi_v3_11_3@nlohmann@@V?$vector@EV?$allocator@E@std@@@2@X@json_abi_v3_11_3@nlohmann@@CAPEAV12@AEBV12@@Z@@0@$$T@Z
	??$?8V?$vector@V?$basic_json@Vmap@std@@Vvector@2@V?$basic_string@DU?$char_traits@D@std@@V?$allocator@D@2@@2@_N_J_KNVallocator@2@Uadl_serializer@json_abi_v3_11_3@nlohmann@@V?$vector@EV?$allocator@E@std@@@2@X@json_abi_v3_11_3@nlohmann@@V?$allocator@V?$basic_json@Vmap@std@@Vvector@2@V?$basic_string@DU?$char_traits@D@std@@V?$allocator@D@2@@2@_N_J_KNVallocator@2@Uadl_serializer@json_abi_v3_11_3@nlohmann@@V?$vector@EV?$allocator@E@std@@@2@X@json_abi_v3_11_3@nlohmann@@@std@@@std@@V<lambda_1>@?1???$create@V?$vector@V?$basic_json@Vmap@std@@Vvector@2@V?$basic_string@DU?$char_traits@D@std@@V?$allocator@D@2@@2@_N_J_KNVallocator@2@Uadl_serializer@json_abi_v3_11_3@nlohmann@@V?$vector@EV?$allocator@E@std@@@2@X@json_abi_v3_11_3@nlohmann@@V?$allocator@V?$basic_json@Vmap@std@@Vvector@2@V?$basic_string@DU?$char_traits@D@std@@V?$allocator@D@2@@2@_N_J_KNVallocator@2@Uadl_serializer@json_abi_v3_11_3@nlohmann@@V?$vector@EV?$allocator@E@std@@@2@X@json_abi_v3_11_3@nlohmann@@@std@@@std@@$$V@?$basic_json@Vmap@std@@Vvector@2@V?$basic_string@DU?$char_traits@D@std@@V?$allocator@D@2@@2@_N_J_KNVallocator@2@Uadl_serializer@json_abi_v3_11_3@nlohmann@@V?$vector@EV?$allocator@E@std@@@2@X@json_abi_v3_11_3@nlohmann@@CAPEAV01@XZ@@std@@YA_NAEBV?$unique_ptr@V?$vector@V?$basic_json@Vmap@std@@Vvector@2@V?$basic_string@DU?$char_traits@D@std@@V?$allocator@D@2@@2@_N_J_KNVallocator@2@Uadl_serializer@json_abi_v3_11_3@nlohmann@@V?$vector@EV?$allocator@E@std@@@2@X@json_abi_v3_11_3@nlohmann@@V?$allocator@V?$basic_json@Vmap@std@@Vvector@2@V?$basic_string@DU?$char_traits@D@std@@V?$allocator@D@2@@2@_N_J_KNVallocator@2@Uadl_serializer@json_abi_v3_11_3@nlohmann@@V?$vector@EV?$allocator@E@std@@@2@X@json_abi_v3_11_3@nlohmann@@@std@@@std@@V<lambda_1>@?1???$create@V?$vector@V?$basic_json@Vmap@std@@Vvector@2@V?$basic_string@DU?$char_traits@D@std@@V?$allocator@D@2@@2@_N_J_KNVallocator@2@Uadl_serializer@json_abi_v3_11_3@nlohmann@@V?$vector@EV?$allocator@E@std@@@2@X@json_abi_v3_11_3@nlohmann@@V?$allocator@V?$basic_json@Vmap@std@@Vvector@2@V?$basic_string@DU?$char_traits@D@std@@V?$allocator@D@2@@2@_N_J_KNVallocator@2@Uadl_serializer@json_abi_v3_11_3@nlohmann@@V?$vector@EV?$allocator@E@std@@@2@X@json_abi_v3_11_3@nlohmann@@@std@@@std@@$$V@?$basic_json@Vmap@std@@Vvector@2@V?$basic_string@DU?$char_traits@D@std@@V?$allocator@D@2@@2@_N_J_KNVallocator@2@Uadl_serializer@json_abi_v3_11_3@nlohmann@@V?$vector@EV?$allocator@E@std@@@2@X@json_abi_v3_11_3@nlohmann@@CAPEAV12@XZ@@0@$$T@Z
	??$?8V?$vector@V?$basic_json@Vmap@std@@Vvector@2@V?$basic_string@DU?$char_traits@D@std@@V?$allocator@D@2@@2@_N_J_KNVallocator@2@Uadl_serializer@json_abi_v3_11_3@nlohmann@@V?$vector@EV?$allocator@E@std@@@2@X@json_abi_v3_11_3@nlohmann@@V?$allocator@V?$basic_json@Vmap@std@@Vvector@2@V?$basic_string@DU?$char_traits@D@std@@V?$allocator@D@2@@2@_N_J_KNVallocator@2@Uadl_serializer@json_abi_v3_11_3@nlohmann@@V?$vector@EV?$allocator@E@std@@@2@X@json_abi_v3_11_3@nlohmann@@@std@@@std@@V<lambda_1>@?1???$create@V?$vector@V?$basic_json@Vmap@std@@Vvector@2@V?$basic_string@DU?$char_traits@D@std@@V?$allocator@D@2@@2@_N_J_KNVallocator@2@Uadl_serializer@json_abi_v3_11_3@nlohmann@@V?$vector@EV?$allocator@E@std@@@2@X@json_abi_v3_11_3@nlohmann@@V?$allocator@V?$basic_json@Vmap@std@@Vvector@2@V?$basic_string@DU?$char_traits@D@std@@V?$allocator@D@2@@2@_N_J_KNVallocator@2@Uadl_serializer@json_abi_v3_11_3@nlohmann@@V?$vector@EV?$allocator@E@std@@@2@X@json_abi_v3_11_3@nlohmann@@@std@@@std@@AEBV12@@?$basic_json@Vmap@std@@Vvector@2@V?$basic_string@DU?$char_traits@D@std@@V?$allocator@D@2@@2@_N_J_KNVallocator@2@Uadl_serializer@json_abi_v3_11_3@nlohmann@@V?$vector@EV?$allocator@E@std@@@2@X@json_abi_v3_11_3@nlohmann@@CAPEAV01@AEBV01@@Z@@std@@YA_NAEBV?$unique_ptr@V?$vector@V?$basic_json@Vmap@std@@Vvector@2@V?$basic_string@DU?$char_traits@D@std@@V?$allocator@D@2@@2@_N_J_KNVallocator@2@Uadl_serializer@json_abi_v3_11_3@nlohmann@@V?$vector@EV?$allocator@E@std@@@2@X@json_abi_v3_11_3@nlohmann@@V?$allocator@V?$basic_json@Vmap@std@@Vvector@2@V?$basic_string@DU?$char_traits@D@std@@V?$allocator@D@2@@2@_N_J_KNVallocator@2@Uadl_serializer@json_abi_v3_11_3@nlohmann@@V?$vector@EV?$allocator@E@std@@@2@X@json_abi_v3_11_3@nlohmann@@@std@@@std@@V<lambda_1>@?1???$create@V?$vector@V?$basic_json@Vmap@std@@Vvector@2@V?$basic_string@DU?$char_traits@D@std@@V?$allocator@D@2@@2@_N_J_KNVallocator@2@Uadl_serializer@json_abi_v3_11_3@nlohmann@@V?$vector@EV?$allocator@E@std@@@2@X@json_abi_v3_11_3@nlohmann@@V?$allocator@V?$basic_json@Vmap@std@@Vvector@2@V?$basic_string@DU?$char_traits@D@std@@V?$allocator@D@2@@2@_N_J_KNVallocator@2@Uadl_serializer@json_abi_v3_11_3@nlohmann@@V?$vector@EV?$allocator@E@std@@@2@X@json_abi_v3_11_3@nlohmann@@@std@@@std@@AEBV12@@?$basic_json@Vmap@std@@Vvector@2@V?$basic_string@DU?$char_traits@D@std@@V?$allocator@D@2@@2@_N_J_KNVallocator@2@Uadl_serializer@json_abi_v3_11_3@nlohmann@@V?$vector@EV?$allocator@E@std@@@2@X@json_abi_v3_11_3@nlohmann@@CAPEAV12@AEBV12@@Z@@0@$$T@Z
	??$?8V?$vector@V?$basic_json@Vmap@std@@Vvector@2@V?$basic_string@DU?$char_traits@D@std@@V?$allocator@D@2@@2@_N_J_KNVallocator@2@Uadl_serializer@json_abi_v3_11_3@nlohmann@@V?$vector@EV?$allocator@E@std@@@2@X@json_abi_v3_11_3@nlohmann@@V?$allocator@V?$basic_json@Vmap@std@@Vvector@2@V?$basic_string@DU?$char_traits@D@std@@V?$allocator@D@2@@2@_N_J_KNVallocator@2@Uadl_serializer@json_abi_v3_11_3@nlohmann@@V?$vector@EV?$allocator@E@std@@@2@X@json_abi_v3_11_3@nlohmann@@@std@@@std@@V<lambda_1>@?1???$create@V?$vector@V?$basic_json@Vmap@std@@Vvector@2@V?$basic_string@DU?$char_traits@D@std@@V?$allocator@D@2@@2@_N_J_KNVallocator@2@Uadl_serializer@json_abi_v3_11_3@nlohmann@@V?$vector@EV?$allocator@E@std@@@2@X@json_abi_v3_11_3@nlohmann@@V?$allocator@V?$basic_json@Vmap@std@@Vvector@2@V?$basic_string@DU?$char_traits@D@std@@V?$allocator@D@2@@2@_N_J_KNVallocator@2@Uadl_serializer@json_abi_v3_11_3@nlohmann@@V?$vector@EV?$allocator@E@std@@@2@X@json_abi_v3_11_3@nlohmann@@@std@@@std@@PEBV?$json_ref@V?$basic_json@Vmap@std@@Vvector@2@V?$basic_string@DU?$char_traits@D@std@@V?$allocator@D@2@@2@_N_J_KNVallocator@2@Uadl_serializer@json_abi_v3_11_3@nlohmann@@V?$vector@EV?$allocator@E@std@@@2@X@json_abi_v3_11_3@nlohmann@@@detail@json_abi_v3_11_3@nlohmann@@PEBV3456@@?$basic_json@Vmap@std@@Vvector@2@V?$basic_string@DU?$char_traits@D@std@@V?$allocator@D@2@@2@_N_J_KNVallocator@2@Uadl_serializer@json_abi_v3_11_3@nlohmann@@V?$vector@EV?$allocator@E@std@@@2@X@json_abi_v3_11_3@nlohmann@@CAPEAV01@$$QEAPEBV?$json_ref@V?$basic_json@Vmap@std@@Vvector@2@V?$basic_string@DU?$char_traits@D@std@@V?$allocator@D@2@@2@_N_J_KNVallocator@2@Uadl_serializer@json_abi_v3_11_3@nlohmann@@V?$vector@EV?$allocator@E@std@@@2@X@json_abi_v3_11_3@nlohmann@@@detail@45@0@Z@@std@@YA_NAEBV?$unique_ptr@V?$vector@V?$basic_json@Vmap@std@@Vvector@2@V?$basic_string@DU?$char_traits@D@std@@V?$allocator@D@2@@2@_N_J_KNVallocator@2@Uadl_serializer@json_abi_v3_11_3@nlohmann@@V?$vector@EV?$allocator@E@std@@@2@X@json_abi_v3_11_3@nlohmann@@V?$allocator@V?$basic_json@Vmap@std@@Vvector@2@V?$basic_string@DU?$char_traits@D@std@@V?$allocator@D@2@@2@_N_J_KNVallocator@2@Uadl_serializer@json_abi_v3_11_3@nlohmann@@V?$vector@EV?$allocator@E@std@@@2@X@json_abi_v3_11_3@nlohmann@@@std@@@std@@V<lambda_1>@?1???$create@V?$vector@V?$basic_json@Vmap@std@@Vvector@2@V?$basic_string@DU?$char_traits@D@std@@V?$allocator@D@2@@2@_N_J_KNVallocator@2@Uadl_serializer@json_abi_v3_11_3@nlohmann@@V?$vector@EV?$allocator@E@std@@@2@X@json_abi_v3_11_3@nlohmann@@V?$allocator@V?$basic_json@Vmap@std@@Vvector@2@V?$basic_string@DU?$char_traits@D@std@@V?$allocator@D@2@@2@_N_J_KNVallocator@2@Uadl_serializer@json_abi_v3_11_3@nlohmann@@V?$vector@EV?$allocator@E@std@@@2@X@json_abi_v3_11_3@nlohmann@@@std@@@std@@PEBV?$json_ref@V?$basic_json@Vmap@std@@Vvector@2@V?$basic_string@DU?$char_traits@D@std@@V?$allocator@D@2@@2@_N_J_KNVallocator@2@Uadl_serializer@json_abi_v3_11_3@nlohmann@@V?$vector@EV?$allocator@E@std@@@2@X@json_abi_v3_11_3@nlohmann@@@detail@json_abi_v3_11_3@nlohmann@@PEBV3456@@?$basic_json@Vmap@std@@Vvector@2@V?$basic_string@DU?$char_traits@D@std@@V?$allocator@D@2@@2@_N_J_KNVallocator@2@Uadl_serializer@json_abi_v3_11_3@nlohmann@@V?$vector@EV?$allocator@E@std@@@2@X@json_abi_v3_11_3@nlohmann@@CAPEAV12@$$QEAPEBV?$json_ref@V?$basic_json@Vmap@std@@Vvector@2@V?$basic_string@DU?$char_traits@D@std@@V?$allocator@D@2@@2@_N_J_KNVallocator@2@Uadl_serializer@json_abi_v3_11_3@nlohmann@@V?$vector@EV?$allocator@E@std@@@2@X@json_abi_v3_11_3@nlohmann@@@detail@56@0@Z@@0@$$T@Z
	??$?9V?$iter_impl@$$CBV?$basic_json@Vmap@std@@Vvector@2@V?$basic_string@DU?$char_traits@D@std@@V?$allocator@D@2@@2@_N_J_KNVallocator@2@Uadl_serializer@json_abi_v3_11_3@nlohmann@@V?$vector@EV?$allocator@E@std@@@2@X@json_abi_v3_11_3@nlohmann@@@detail@json_abi_v3_11_3@nlohmann@@$0A@@?$iter_impl@$$CBV?$basic_json@Vmap@std@@Vvector@2@V?$basic_string@DU?$char_traits@D@std@@V?$allocator@D@2@@2@_N_J_KNVallocator@2@Uadl_serializer@json_abi_v3_11_3@nlohmann@@V?$vector@EV?$allocator@E@std@@@2@X@json_abi_v3_11_3@nlohmann@@@detail@json_abi_v3_11_3@nlohmann@@QEBA_NAEBV0123@@Z
	??$?9V?$iter_impl@V?$basic_json@Vmap@std@@Vvector@2@V?$basic_string@DU?$char_traits@D@std@@V?$allocator@D@2@@2@_N_J_KNVallocator@2@Uadl_serializer@json_abi_v3_11_3@nlohmann@@V?$vector@EV?$allocator@E@std@@@2@X@json_abi_v3_11_3@nlohmann@@@detail@json_abi_v3_11_3@nlohmann@@$0A@@?$iter_impl@V?$basic_json@Vmap@std@@Vvector@2@V?$basic_string@DU?$char_traits@D@std@@V?$allocator@D@2@@2@_N_J_KNVallocator@2@Uadl_serializer@json_abi_v3_11_3@nlohmann@@V?$vector@EV?$allocator@E@std@@@2@X@json_abi_v3_11_3@nlohmann@@@detail@json_abi_v3_11_3@nlohmann@@QEBA_NAEBV0123@@Z
	??$?A$$CBD@?$basic_json@Vmap@std@@Vvector@2@V?$basic_string@DU?$char_traits@D@std@@V?$allocator@D@2@@2@_N_J_KNVallocator@2@Uadl_serializer@json_abi_v3_11_3@nlohmann@@V?$vector@EV?$allocator@E@std@@@2@X@json_abi_v3_11_3@nlohmann@@QEAAAEAV012@PEBD@Z
	??$?BV?$basic_string@DU?$char_traits@D@std@@V?$allocator@D@2@@std@@$0A@@?$basic_json@Vmap@std@@Vvector@2@V?$basic_string@DU?$char_traits@D@std@@V?$allocator@D@2@@2@_N_J_KNVallocator@2@Uadl_serializer@json_abi_v3_11_3@nlohmann@@V?$vector@EV?$allocator@E@std@@@2@X@json_abi_v3_11_3@nlohmann@@QEBA?AV?$basic_string@DU?$char_traits@D@std@@V?$allocator@D@2@@std@@XZ
	??$?CU?$output_adapter_protocol@D@detail@json_abi_v3_11_3@nlohmann@@$0A@@?$shared_ptr@U?$output_adapter_protocol@D@detail@json_abi_v3_11_3@nlohmann@@@std@@QEBAPEAU?$output_adapter_protocol@D@detail@json_abi_v3_11_3@nlohmann@@XZ
	??$?GUsteady_clock@chrono@std@@V?$duration@_JU?$ratio@$00$0DLJKMKAA@@std@@@12@V312@@chrono@std@@YA?AV?$duration@_JU?$ratio@$00$0DLJKMKAA@@std@@@01@AEBV?$time_point@Usteady_clock@chrono@std@@V?$duration@_JU?$ratio@$00$0DLJKMKAA@@std@@@23@@01@0@Z
	??$?G_JU?$ratio@$00$0DLJKMKAA@@std@@_JU01@@chrono@std@@YA?AV?$duration@_JU?$ratio@$00$0DLJKMKAA@@std@@@01@AEBV201@0@Z
	??$?HDU?$char_traits@D@std@@V?$allocator@D@1@@std@@YA?AV?$basic_string@DU?$char_traits@D@std@@V?$allocator@D@2@@0@AEBV10@QEBD@Z
	??$?L_JU?$ratio@$00$0DOI@@std@@H@chrono@std@@YA?AV?$duration@_JU?$ratio@$00$0DOI@@std@@@01@AEBV201@AEBH@Z
	??$?RAEANAEAN@?$less@X@std@@QEBA_NAEAN0@Z
	??$?RAEAY03$$CBDAEBV?$basic_string@DU?$char_traits@D@std@@V?$allocator@D@2@@std@@@?$less@X@std@@QEBA_NAEAY03$$CBDAEBV?$basic_string@DU?$char_traits@D@std@@V?$allocator@D@2@@1@@Z
	??$?RAEAY04$$CBDAEBV?$basic_string@DU?$char_traits@D@std@@V?$allocator@D@2@@std@@@?$less@X@std@@QEBA_NAEAY04$$CBDAEBV?$basic_string@DU?$char_traits@D@std@@V?$allocator@D@2@@1@@Z
	??$?RAEAY05$$CBDAEBV?$basic_string@DU?$char_traits@D@std@@V?$allocator@D@2@@std@@@?$less@X@std@@QEBA_NAEAY05$$CBDAEBV?$basic_string@DU?$char_traits@D@std@@V?$allocator@D@2@@1@@Z
	??$?RAEAY06$$CBDAEBV?$basic_string@DU?$char_traits@D@std@@V?$allocator@D@2@@std@@@?$less@X@std@@QEBA_NAEAY06$$CBDAEBV?$basic_string@DU?$char_traits@D@std@@V?$allocator@D@2@@1@@Z
	??$?RAEAY07$$CBDAEBV?$basic_string@DU?$char_traits@D@std@@V?$allocator@D@2@@std@@@?$less@X@std@@QEBA_NAEAY07$$CBDAEBV?$basic_string@DU?$char_traits@D@std@@V?$allocator@D@2@@1@@Z
	??$?RAEAY08$$CBDAEBV?$basic_string@DU?$char_traits@D@std@@V?$allocator@D@2@@std@@@?$less@X@std@@QEBA_NAEAY08$$CBDAEBV?$basic_string@DU?$char_traits@D@std@@V?$allocator@D@2@@1@@Z
	??$?RAEAY09$$CBDAEBV?$basic_string@DU?$char_traits@D@std@@V?$allocator@D@2@@std@@@?$less@X@std@@QEBA_NAEAY09$$CBDAEBV?$basic_string@DU?$char_traits@D@std@@V?$allocator@D@2@@1@@Z
	??$?RAEAY0BA@$$CBDAEBV?$basic_string@DU?$char_traits@D@std@@V?$allocator@D@2@@std@@@?$less@X@std@@QEBA_NAEAY0BA@$$CBDAEBV?$basic_string@DU?$char_traits@D@std@@V?$allocator@D@2@@1@@Z
	??$?RAEAY0BB@$$CBDAEBV?$basic_string@DU?$char_traits@D@std@@V?$allocator@D@2@@std@@@?$less@X@std@@QEBA_NAEAY0BB@$$CBDAEBV?$basic_string@DU?$char_traits@D@std@@V?$allocator@D@2@@1@@Z
	??$?RAEAY0BD@$$CBDAEBV?$basic_string@DU?$char_traits@D@std@@V?$allocator@D@2@@std@@@?$less@X@std@@QEBA_NAEAY0BD@$$CBDAEBV?$basic_string@DU?$char_traits@D@std@@V?$allocator@D@2@@1@@Z
	??$?RAEAY0BF@$$CBDAEBV?$basic_string@DU?$char_traits@D@std@@V?$allocator@D@2@@std@@@?$less@X@std@@QEBA_NAEAY0BF@$$CBDAEBV?$basic_string@DU?$char_traits@D@std@@V?$allocator@D@2@@1@@Z
	??$?RAEAY0BH@$$CBDAEBV?$basic_string@DU?$char_traits@D@std@@V?$allocator@D@2@@std@@@?$less@X@std@@QEBA_NAEAY0BH@$$CBDAEBV?$basic_string@DU?$char_traits@D@std@@V?$allocator@D@2@@1@@Z
	??$?RAEAY0M@$$CBDAEBV?$basic_string@DU?$char_traits@D@std@@V?$allocator@D@2@@std@@@?$less@X@std@@QEBA_NAEAY0M@$$CBDAEBV?$basic_string@DU?$char_traits@D@std@@V?$allocator@D@2@@1@@Z
	??$?RAEAY0N@$$CBDAEBV?$basic_string@DU?$char_traits@D@std@@V?$allocator@D@2@@std@@@?$less@X@std@@QEBA_NAEAY0N@$$CBDAEBV?$basic_string@DU?$char_traits@D@std@@V?$allocator@D@2@@1@@Z
	??$?RAEAY0O@$$CBDAEBV?$basic_string@DU?$char_traits@D@std@@V?$allocator@D@2@@std@@@?$less@X@std@@QEBA_NAEAY0O@$$CBDAEBV?$basic_string@DU?$char_traits@D@std@@V?$allocator@D@2@@1@@Z
	??$?RAEAY0P@$$CBDAEBV?$basic_string@DU?$char_traits@D@std@@V?$allocator@D@2@@std@@@?$less@X@std@@QEBA_NAEAY0P@$$CBDAEBV?$basic_string@DU?$char_traits@D@std@@V?$allocator@D@2@@1@@Z
	??$?RAEBIAEBI@?$less@X@std@@QEBA_NAEBI0@Z
	??$?RAEBMAEBM@?$less@X@std@@QEBA_NAEBM0@Z
	??$?RAEBV?$basic_string@DU?$char_traits@D@std@@V?$allocator@D@2@@std@@AEAY03$$CBD@?$less@X@std@@QEBA_NAEBV?$basic_string@DU?$char_traits@D@std@@V?$allocator@D@2@@1@AEAY03$$CBD@Z
	??$?RAEBV?$basic_string@DU?$char_traits@D@std@@V?$allocator@D@2@@std@@AEAY04$$CBD@?$less@X@std@@QEBA_NAEBV?$basic_string@DU?$char_traits@D@std@@V?$allocator@D@2@@1@AEAY04$$CBD@Z
	??$?RAEBV?$basic_string@DU?$char_traits@D@std@@V?$allocator@D@2@@std@@AEAY05$$CBD@?$less@X@std@@QEBA_NAEBV?$basic_string@DU?$char_traits@D@std@@V?$allocator@D@2@@1@AEAY05$$CBD@Z
	??$?RAEBV?$basic_string@DU?$char_traits@D@std@@V?$allocator@D@2@@std@@AEAY06$$CBD@?$less@X@std@@QEBA_NAEBV?$basic_string@DU?$char_traits@D@std@@V?$allocator@D@2@@1@AEAY06$$CBD@Z
	??$?RAEBV?$basic_string@DU?$char_traits@D@std@@V?$allocator@D@2@@std@@AEAY07$$CBD@?$less@X@std@@QEBA_NAEBV?$basic_string@DU?$char_traits@D@std@@V?$allocator@D@2@@1@AEAY07$$CBD@Z
	??$?RAEBV?$basic_string@DU?$char_traits@D@std@@V?$allocator@D@2@@std@@AEAY08$$CBD@?$less@X@std@@QEBA_NAEBV?$basic_string@DU?$char_traits@D@std@@V?$allocator@D@2@@1@AEAY08$$CBD@Z
	??$?RAEBV?$basic_string@DU?$char_traits@D@std@@V?$allocator@D@2@@std@@AEAY09$$CBD@?$less@X@std@@QEBA_NAEBV?$basic_string@DU?$char_traits@D@std@@V?$allocator@D@2@@1@AEAY09$$CBD@Z
	??$?RAEBV?$basic_string@DU?$char_traits@D@std@@V?$allocator@D@2@@std@@AEAY0BA@$$CBD@?$less@X@std@@QEBA_NAEBV?$basic_string@DU?$char_traits@D@std@@V?$allocator@D@2@@1@AEAY0BA@$$CBD@Z
	??$?RAEBV?$basic_string@DU?$char_traits@D@std@@V?$allocator@D@2@@std@@AEAY0BB@$$CBD@?$less@X@std@@QEBA_NAEBV?$basic_string@DU?$char_traits@D@std@@V?$allocator@D@2@@1@AEAY0BB@$$CBD@Z
	??$?RAEBV?$basic_string@DU?$char_traits@D@std@@V?$allocator@D@2@@std@@AEAY0BD@$$CBD@?$less@X@std@@QEBA_NAEBV?$basic_string@DU?$char_traits@D@std@@V?$allocator@D@2@@1@AEAY0BD@$$CBD@Z
	??$?RAEBV?$basic_string@DU?$char_traits@D@std@@V?$allocator@D@2@@std@@AEAY0BF@$$CBD@?$less@X@std@@QEBA_NAEBV?$basic_string@DU?$char_traits@D@std@@V?$allocator@D@2@@1@AEAY0BF@$$CBD@Z
	??$?RAEBV?$basic_string@DU?$char_traits@D@std@@V?$allocator@D@2@@std@@AEAY0BH@$$CBD@?$less@X@std@@QEBA_NAEBV?$basic_string@DU?$char_traits@D@std@@V?$allocator@D@2@@1@AEAY0BH@$$CBD@Z
	??$?RAEBV?$basic_string@DU?$char_traits@D@std@@V?$allocator@D@2@@std@@AEAY0M@$$CBD@?$less@X@std@@QEBA_NAEBV?$basic_string@DU?$char_traits@D@std@@V?$allocator@D@2@@1@AEAY0M@$$CBD@Z
	??$?RAEBV?$basic_string@DU?$char_traits@D@std@@V?$allocator@D@2@@std@@AEAY0N@$$CBD@?$less@X@std@@QEBA_NAEBV?$basic_string@DU?$char_traits@D@std@@V?$allocator@D@2@@1@AEAY0N@$$CBD@Z
	??$?RAEBV?$basic_string@DU?$char_traits@D@std@@V?$allocator@D@2@@std@@AEAY0O@$$CBD@?$less@X@std@@QEBA_NAEBV?$basic_string@DU?$char_traits@D@std@@V?$allocator@D@2@@1@AEAY0O@$$CBD@Z
	??$?RAEBV?$basic_string@DU?$char_traits@D@std@@V?$allocator@D@2@@std@@AEAY0P@$$CBD@?$less@X@std@@QEBA_NAEBV?$basic_string@DU?$char_traits@D@std@@V?$allocator@D@2@@1@AEAY0P@$$CBD@Z
	??$?RAEBV?$basic_string@DU?$char_traits@D@std@@V?$allocator@D@2@@std@@AEBV01@@?$less@X@std@@QEBA_NAEBV?$basic_string@DU?$char_traits@D@std@@V?$allocator@D@2@@1@0@Z
	??$?RAEBV?$basic_string_view@DU?$char_traits@D@std@@@std@@@_Cpo@_Begin@ranges@std@@SA?A_PAEBV?$basic_string_view@DU?$char_traits@D@std@@@3@@Z
	??$?RAEBV?$basic_string_view@DU?$char_traits@D@std@@@std@@@_Cpo@_Size@ranges@std@@SA?A_PAEBV?$basic_string_view@DU?$char_traits@D@std@@@3@@Z
	??$?RAEBV?$basic_string_view@DU?$char_traits@D@std@@@std@@@_Cpo@_Unchecked_end@ranges@std@@SA?A_PAEBV?$basic_string_view@DU?$char_traits@D@std@@@3@@Z
	??$?RAEBV?$basic_string_view@DU?$char_traits@D@std@@@std@@@_Distance_fn@ranges@std@@SA_JAEBV?$basic_string_view@DU?$char_traits@D@std@@@2@@Z
	??$?RAEBV?$basic_string_view@DU?$char_traits@D@std@@@std@@V?$back_insert_iterator@V?$_Fmt_buffer@D@std@@@1@@_Copy_fn@ranges@std@@SA?AU?$in_out_result@V?$_String_view_iterator@U?$char_traits@D@std@@@std@@V?$back_insert_iterator@V?$_Fmt_buffer@D@std@@@2@@12@AEBV?$basic_string_view@DU?$char_traits@D@std@@@2@V?$back_insert_iterator@V?$_Fmt_buffer@D@std@@@2@@Z
	??$?RAEB_KAEB_K@?$less@X@std@@QEBA_NAEB_K0@Z
	??$?RAEB_UAEB_U@?$less@X@std@@QEBA_NAEB_U0@Z
	??$?RD@?$_Arg_formatter@V?$back_insert_iterator@V?$_Fmt_buffer@D@std@@@std@@D@std@@QEAA?AV?$back_insert_iterator@V?$_Fmt_buffer@D@std@@@1@D@Z
	??$?RD@?$_Default_arg_formatter@V?$back_insert_iterator@V?$_Fmt_buffer@D@std@@@std@@D@std@@QEHAA?AV?$back_insert_iterator@V?$_Fmt_buffer@D@std@@@1@D@Z
	??$?RD@_Precision_checker@std@@SA_KD@Z
	??$?RD@_Width_checker@std@@SA_KD@Z
	??$?RDV?$back_insert_iterator@V?$_Fmt_buffer@D@std@@@std@@@_Fill_n_fn@ranges@std@@SA?AV?$back_insert_iterator@V?$_Fmt_buffer@D@std@@@2@V32@_JAEBD@Z
	??$?RG@?$_Uhash_compare@GU?$hash@G@std@@U?$equal_to@G@2@@std@@QEBA_KAEBG@Z
	??$?RGG@?$_Uhash_compare@GU?$hash@G@std@@U?$equal_to@G@2@@std@@QEBA_NAEBG0@Z
	??$?RH@?$_Arg_formatter@V?$back_insert_iterator@V?$_Fmt_buffer@D@std@@@std@@D@std@@QEAA?AV?$back_insert_iterator@V?$_Fmt_buffer@D@std@@@1@H@Z
	??$?RH@?$_Default_arg_formatter@V?$back_insert_iterator@V?$_Fmt_buffer@D@std@@@std@@D@std@@QEHAA?AV?$back_insert_iterator@V?$_Fmt_buffer@D@std@@@1@H@Z
	??$?RH@_Precision_checker@std@@SA_KH@Z
	??$?RH@_Width_checker@std@@SA_KH@Z
	??$?RI@?$_Arg_formatter@V?$back_insert_iterator@V?$_Fmt_buffer@D@std@@@std@@D@std@@QEAA?AV?$back_insert_iterator@V?$_Fmt_buffer@D@std@@@1@I@Z
	??$?RI@?$_Default_arg_formatter@V?$back_insert_iterator@V?$_Fmt_buffer@D@std@@@std@@D@std@@QEHAA?AV?$back_insert_iterator@V?$_Fmt_buffer@D@std@@@1@I@Z
	??$?RI@_Precision_checker@std@@SA_KI@Z
	??$?RI@_Width_checker@std@@SA_KI@Z
	??$?RM@?$_Arg_formatter@V?$back_insert_iterator@V?$_Fmt_buffer@D@std@@@std@@D@std@@QEAA?AV?$back_insert_iterator@V?$_Fmt_buffer@D@std@@@1@M@Z
	??$?RM@?$_Default_arg_formatter@V?$back_insert_iterator@V?$_Fmt_buffer@D@std@@@std@@D@std@@QEHAA?AV?$back_insert_iterator@V?$_Fmt_buffer@D@std@@@1@M@Z
	??$?RM@_Precision_checker@std@@SA_KM@Z
	??$?RM@_Width_checker@std@@SA_KM@Z
	??$?RN@?$_Arg_formatter@V?$back_insert_iterator@V?$_Fmt_buffer@D@std@@@std@@D@std@@QEAA?AV?$back_insert_iterator@V?$_Fmt_buffer@D@std@@@1@N@Z
	??$?RN@?$_Default_arg_formatter@V?$back_insert_iterator@V?$_Fmt_buffer@D@std@@@std@@D@std@@QEHAA?AV?$back_insert_iterator@V?$_Fmt_buffer@D@std@@@1@N@Z
	??$?RN@_Precision_checker@std@@SA_KN@Z
	??$?RN@_Width_checker@std@@SA_KN@Z
	??$?RO@?$_Arg_formatter@V?$back_insert_iterator@V?$_Fmt_buffer@D@std@@@std@@D@std@@QEAA?AV?$back_insert_iterator@V?$_Fmt_buffer@D@std@@@1@O@Z
	??$?RO@?$_Default_arg_formatter@V?$back_insert_iterator@V?$_Fmt_buffer@D@std@@@std@@D@std@@QEHAA?AV?$back_insert_iterator@V?$_Fmt_buffer@D@std@@@1@O@Z
	??$?RO@_Precision_checker@std@@SA_KO@Z
	??$?RO@_Width_checker@std@@SA_KO@Z
	??$?RPEADPEADV?$back_insert_iterator@V?$_Fmt_buffer@D@std@@@std@@@_Copy_fn@ranges@std@@SA?AU?$in_out_result@PEADV?$back_insert_iterator@V?$_Fmt_buffer@D@std@@@std@@@12@PEAD0V?$back_insert_iterator@V?$_Fmt_buffer@D@std@@@2@@Z
	??$?RPEBD@?$_Arg_formatter@V?$back_insert_iterator@V?$_Fmt_buffer@D@std@@@std@@D@std@@QEAA?AV?$back_insert_iterator@V?$_Fmt_buffer@D@std@@@1@PEBD@Z
	??$?RPEBD@?$_Default_arg_formatter@V?$back_insert_iterator@V?$_Fmt_buffer@D@std@@@std@@D@std@@QEHAA?AV?$back_insert_iterator@V?$_Fmt_buffer@D@std@@@1@PEBD@Z
	??$?RPEBD@_Precision_checker@std@@SA_KQEBD@Z
	??$?RPEBD@_Width_checker@std@@SA_KQEBD@Z
	??$?RPEBX@?$_Arg_formatter@V?$back_insert_iterator@V?$_Fmt_buffer@D@std@@@std@@D@std@@QEAA?AV?$back_insert_iterator@V?$_Fmt_buffer@D@std@@@1@PEBX@Z
	??$?RPEBX@?$_Default_arg_formatter@V?$back_insert_iterator@V?$_Fmt_buffer@D@std@@@std@@D@std@@QEHAA?AV?$back_insert_iterator@V?$_Fmt_buffer@D@std@@@1@PEBX@Z
	??$?RPEBX@_Precision_checker@std@@SA_KQEBX@Z
	??$?RPEBX@_Width_checker@std@@SA_KQEBX@Z
	??$?RUmonostate@std@@@?$_Arg_formatter@V?$back_insert_iterator@V?$_Fmt_buffer@D@std@@@std@@D@std@@QEAA?AV?$back_insert_iterator@V?$_Fmt_buffer@D@std@@@1@Umonostate@1@@Z
	??$?RUmonostate@std@@@?$_Default_arg_formatter@V?$back_insert_iterator@V?$_Fmt_buffer@D@std@@@std@@D@std@@QEHAA?AV?$back_insert_iterator@V?$_Fmt_buffer@D@std@@@1@Umonostate@1@@Z
	??$?RUmonostate@std@@@_Precision_checker@std@@SA_KUmonostate@1@@Z
	??$?RUmonostate@std@@@_Width_checker@std@@SA_KUmonostate@1@@Z
	??$?RV?$basic_json@Vmap@std@@Vvector@2@V?$basic_string@DU?$char_traits@D@std@@V?$allocator@D@2@@2@_N_J_KNVallocator@2@Uadl_serializer@json_abi_v3_11_3@nlohmann@@V?$vector@EV?$allocator@E@std@@@2@X@json_abi_v3_11_3@nlohmann@@AEAH@from_json_fn@detail@json_abi_v3_11_3@nlohmann@@QEBAXAEBV?$basic_json@Vmap@std@@Vvector@2@V?$basic_string@DU?$char_traits@D@std@@V?$allocator@D@2@@2@_N_J_KNVallocator@2@Uadl_serializer@json_abi_v3_11_3@nlohmann@@V?$vector@EV?$allocator@E@std@@@2@X@23@AEAH@Z
	??$?RV?$basic_json@Vmap@std@@Vvector@2@V?$basic_string@DU?$char_traits@D@std@@V?$allocator@D@2@@2@_N_J_KNVallocator@2@Uadl_serializer@json_abi_v3_11_3@nlohmann@@V?$vector@EV?$allocator@E@std@@@2@X@json_abi_v3_11_3@nlohmann@@AEAM@from_json_fn@detail@json_abi_v3_11_3@nlohmann@@QEBAXAEBV?$basic_json@Vmap@std@@Vvector@2@V?$basic_string@DU?$char_traits@D@std@@V?$allocator@D@2@@2@_N_J_KNVallocator@2@Uadl_serializer@json_abi_v3_11_3@nlohmann@@V?$vector@EV?$allocator@E@std@@@2@X@23@AEAM@Z
	??$?RV?$basic_json@Vmap@std@@Vvector@2@V?$basic_string@DU?$char_traits@D@std@@V?$allocator@D@2@@2@_N_J_KNVallocator@2@Uadl_serializer@json_abi_v3_11_3@nlohmann@@V?$vector@EV?$allocator@E@std@@@2@X@json_abi_v3_11_3@nlohmann@@AEAN@to_json_fn@detail@json_abi_v3_11_3@nlohmann@@QEBAXAEAV?$basic_json@Vmap@std@@Vvector@2@V?$basic_string@DU?$char_traits@D@std@@V?$allocator@D@2@@2@_N_J_KNVallocator@2@Uadl_serializer@json_abi_v3_11_3@nlohmann@@V?$vector@EV?$allocator@E@std@@@2@X@23@AEAN@Z
	??$?RV?$basic_json@Vmap@std@@Vvector@2@V?$basic_string@DU?$char_traits@D@std@@V?$allocator@D@2@@2@_N_J_KNVallocator@2@Uadl_serializer@json_abi_v3_11_3@nlohmann@@V?$vector@EV?$allocator@E@std@@@2@X@json_abi_v3_11_3@nlohmann@@AEAV?$basic_string@DU?$char_traits@D@std@@V?$allocator@D@2@@std@@@from_json_fn@detail@json_abi_v3_11_3@nlohmann@@QEBAXAEBV?$basic_json@Vmap@std@@Vvector@2@V?$basic_string@DU?$char_traits@D@std@@V?$allocator@D@2@@2@_N_J_KNVallocator@2@Uadl_serializer@json_abi_v3_11_3@nlohmann@@V?$vector@EV?$allocator@E@std@@@2@X@23@AEAV?$basic_string@DU?$char_traits@D@std@@V?$allocator@D@2@@std@@@Z
	??$?RV?$basic_json@Vmap@std@@Vvector@2@V?$basic_string@DU?$char_traits@D@std@@V?$allocator@D@2@@2@_N_J_KNVallocator@2@Uadl_serializer@json_abi_v3_11_3@nlohmann@@V?$vector@EV?$allocator@E@std@@@2@X@json_abi_v3_11_3@nlohmann@@AEAV?$basic_string@DU?$char_traits@D@std@@V?$allocator@D@2@@std@@@to_json_fn@detail@json_abi_v3_11_3@nlohmann@@QEBAXAEAV?$basic_json@Vmap@std@@Vvector@2@V?$basic_string@DU?$char_traits@D@std@@V?$allocator@D@2@@2@_N_J_KNVallocator@2@Uadl_serializer@json_abi_v3_11_3@nlohmann@@V?$vector@EV?$allocator@E@std@@@2@X@23@AEAV?$basic_string@DU?$char_traits@D@std@@V?$allocator@D@2@@std@@@Z
	??$?RV?$basic_json@Vmap@std@@Vvector@2@V?$basic_string@DU?$char_traits@D@std@@V?$allocator@D@2@@2@_N_J_KNVallocator@2@Uadl_serializer@json_abi_v3_11_3@nlohmann@@V?$vector@EV?$allocator@E@std@@@2@X@json_abi_v3_11_3@nlohmann@@AEA_J@to_json_fn@detail@json_abi_v3_11_3@nlohmann@@QEBAXAEAV?$basic_json@Vmap@std@@Vvector@2@V?$basic_string@DU?$char_traits@D@std@@V?$allocator@D@2@@2@_N_J_KNVallocator@2@Uadl_serializer@json_abi_v3_11_3@nlohmann@@V?$vector@EV?$allocator@E@std@@@2@X@23@AEA_J@Z
	??$?RV?$basic_json@Vmap@std@@Vvector@2@V?$basic_string@DU?$char_traits@D@std@@V?$allocator@D@2@@2@_N_J_KNVallocator@2@Uadl_serializer@json_abi_v3_11_3@nlohmann@@V?$vector@EV?$allocator@E@std@@@2@X@json_abi_v3_11_3@nlohmann@@AEA_K@to_json_fn@detail@json_abi_v3_11_3@nlohmann@@QEBAXAEAV?$basic_json@Vmap@std@@Vvector@2@V?$basic_string@DU?$char_traits@D@std@@V?$allocator@D@2@@2@_N_J_KNVallocator@2@Uadl_serializer@json_abi_v3_11_3@nlohmann@@V?$vector@EV?$allocator@E@std@@@2@X@23@AEA_K@Z
	??$?RV?$basic_json@Vmap@std@@Vvector@2@V?$basic_string@DU?$char_traits@D@std@@V?$allocator@D@2@@2@_N_J_KNVallocator@2@Uadl_serializer@json_abi_v3_11_3@nlohmann@@V?$vector@EV?$allocator@E@std@@@2@X@json_abi_v3_11_3@nlohmann@@AEA_N@from_json_fn@detail@json_abi_v3_11_3@nlohmann@@QEBAXAEBV?$basic_json@Vmap@std@@Vvector@2@V?$basic_string@DU?$char_traits@D@std@@V?$allocator@D@2@@2@_N_J_KNVallocator@2@Uadl_serializer@json_abi_v3_11_3@nlohmann@@V?$vector@EV?$allocator@E@std@@@2@X@23@AEA_N@Z
	??$?RV?$basic_json@Vmap@std@@Vvector@2@V?$basic_string@DU?$char_traits@D@std@@V?$allocator@D@2@@2@_N_J_KNVallocator@2@Uadl_serializer@json_abi_v3_11_3@nlohmann@@V?$vector@EV?$allocator@E@std@@@2@X@json_abi_v3_11_3@nlohmann@@AEA_N@to_json_fn@detail@json_abi_v3_11_3@nlohmann@@QEBAXAEAV?$basic_json@Vmap@std@@Vvector@2@V?$basic_string@DU?$char_traits@D@std@@V?$allocator@D@2@@2@_N_J_KNVallocator@2@Uadl_serializer@json_abi_v3_11_3@nlohmann@@V?$vector@EV?$allocator@E@std@@@2@X@23@AEA_N@Z
	??$?RV?$basic_json@Vmap@std@@Vvector@2@V?$basic_string@DU?$char_traits@D@std@@V?$allocator@D@2@@2@_N_J_KNVallocator@2@Uadl_serializer@json_abi_v3_11_3@nlohmann@@V?$vector@EV?$allocator@E@std@@@2@X@json_abi_v3_11_3@nlohmann@@AEBM@to_json_fn@detail@json_abi_v3_11_3@nlohmann@@QEBAXAEAV?$basic_json@Vmap@std@@Vvector@2@V?$basic_string@DU?$char_traits@D@std@@V?$allocator@D@2@@2@_N_J_KNVallocator@2@Uadl_serializer@json_abi_v3_11_3@nlohmann@@V?$vector@EV?$allocator@E@std@@@2@X@23@AEBM@Z
	??$?RV?$basic_json@Vmap@std@@Vvector@2@V?$basic_string@DU?$char_traits@D@std@@V?$allocator@D@2@@2@_N_J_KNVallocator@2@Uadl_serializer@json_abi_v3_11_3@nlohmann@@V?$vector@EV?$allocator@E@std@@@2@X@json_abi_v3_11_3@nlohmann@@AEBV?$basic_string@DU?$char_traits@D@std@@V?$allocator@D@2@@std@@@to_json_fn@detail@json_abi_v3_11_3@nlohmann@@QEBAXAEAV?$basic_json@Vmap@std@@Vvector@2@V?$basic_string@DU?$char_traits@D@std@@V?$allocator@D@2@@2@_N_J_KNVallocator@2@Uadl_serializer@json_abi_v3_11_3@nlohmann@@V?$vector@EV?$allocator@E@std@@@2@X@23@AEBV?$basic_string@DU?$char_traits@D@std@@V?$allocator@D@2@@std@@@Z
	??$?RV?$basic_json@Vmap@std@@Vvector@2@V?$basic_string@DU?$char_traits@D@std@@V?$allocator@D@2@@2@_N_J_KNVallocator@2@Uadl_serializer@json_abi_v3_11_3@nlohmann@@V?$vector@EV?$allocator@E@std@@@2@X@json_abi_v3_11_3@nlohmann@@AEB_N@to_json_fn@detail@json_abi_v3_11_3@nlohmann@@QEBAXAEAV?$basic_json@Vmap@std@@Vvector@2@V?$basic_string@DU?$char_traits@D@std@@V?$allocator@D@2@@2@_N_J_KNVallocator@2@Uadl_serializer@json_abi_v3_11_3@nlohmann@@V?$vector@EV?$allocator@E@std@@@2@X@23@AEB_N@Z
	??$?RV?$basic_json@Vmap@std@@Vvector@2@V?$basic_string@DU?$char_traits@D@std@@V?$allocator@D@2@@2@_N_J_KNVallocator@2@Uadl_serializer@json_abi_v3_11_3@nlohmann@@V?$vector@EV?$allocator@E@std@@@2@X@json_abi_v3_11_3@nlohmann@@I@to_json_fn@detail@json_abi_v3_11_3@nlohmann@@QEBAXAEAV?$basic_json@Vmap@std@@Vvector@2@V?$basic_string@DU?$char_traits@D@std@@V?$allocator@D@2@@2@_N_J_KNVallocator@2@Uadl_serializer@json_abi_v3_11_3@nlohmann@@V?$vector@EV?$allocator@E@std@@@2@X@23@$$QEAI@Z
	??$?RV?$basic_string@DU?$char_traits@D@std@@V?$allocator@D@2@@std@@@?$_Uhash_compare@V?$basic_string@DU?$char_traits@D@std@@V?$allocator@D@2@@std@@U?$hash@V?$basic_string@DU?$char_traits@D@std@@V?$allocator@D@2@@std@@@2@U?$equal_to@V?$basic_string@DU?$char_traits@D@std@@V?$allocator@D@2@@std@@@2@@std@@QEBA_KAEBV?$basic_string@DU?$char_traits@D@std@@V?$allocator@D@2@@1@@Z
	??$?RV?$basic_string@DU?$char_traits@D@std@@V?$allocator@D@2@@std@@V01@@?$_Uhash_compare@V?$basic_string@DU?$char_traits@D@std@@V?$allocator@D@2@@std@@U?$hash@V?$basic_string@DU?$char_traits@D@std@@V?$allocator@D@2@@std@@@2@U?$equal_to@V?$basic_string@DU?$char_traits@D@std@@V?$allocator@D@2@@std@@@2@@std@@QEBA_NAEBV?$basic_string@DU?$char_traits@D@std@@V?$allocator@D@2@@1@0@Z
	??$?RV?$basic_string_view@DU?$char_traits@D@std@@@std@@@?$_Arg_formatter@V?$back_insert_iterator@V?$_Fmt_buffer@D@std@@@std@@D@std@@QEAA?AV?$back_insert_iterator@V?$_Fmt_buffer@D@std@@@1@V?$basic_string_view@DU?$char_traits@D@std@@@1@@Z
	??$?RV?$basic_string_view@DU?$char_traits@D@std@@@std@@@?$_Default_arg_formatter@V?$back_insert_iterator@V?$_Fmt_buffer@D@std@@@std@@D@std@@QEHAA?AV?$back_insert_iterator@V?$_Fmt_buffer@D@std@@@1@V?$basic_string_view@DU?$char_traits@D@std@@@1@@Z
	??$?RV?$basic_string_view@DU?$char_traits@D@std@@@std@@@_Precision_checker@std@@SA_KV?$basic_string_view@DU?$char_traits@D@std@@@1@@Z
	??$?RV?$basic_string_view@DU?$char_traits@D@std@@@std@@@_Width_checker@std@@SA_KV?$basic_string_view@DU?$char_traits@D@std@@@1@@Z
	??$?RVhandle@?$basic_format_arg@V?$basic_format_context@V?$back_insert_iterator@V?$_Fmt_buffer@D@std@@@std@@D@std@@@std@@@_Precision_checker@std@@SA_KVhandle@?$basic_format_arg@V?$basic_format_context@V?$back_insert_iterator@V?$_Fmt_buffer@D@std@@@std@@D@std@@@1@@Z
	??$?RVhandle@?$basic_format_arg@V?$basic_format_context@V?$back_insert_iterator@V?$_Fmt_buffer@D@std@@@std@@D@std@@@std@@@_Width_checker@std@@SA_KVhandle@?$basic_format_arg@V?$basic_format_context@V?$back_insert_iterator@V?$_Fmt_buffer@D@std@@@std@@D@std@@@1@@Z
	??$?RW4InputAction@vrc@@@?$_Uhash_compare@W4InputAction@vrc@@U?$hash@W4InputAction@vrc@@@std@@U?$equal_to@W4InputAction@vrc@@@4@@std@@QEBA_KAEBW4InputAction@vrc@@@Z
	??$?RW4InputAction@vrc@@W401@@?$_Uhash_compare@W4InputAction@vrc@@U?$hash@W4InputAction@vrc@@@std@@U?$equal_to@W4InputAction@vrc@@@4@@std@@QEBA_NAEBW4InputAction@vrc@@0@Z
	??$?R_J@?$_Arg_formatter@V?$back_insert_iterator@V?$_Fmt_buffer@D@std@@@std@@D@std@@QEAA?AV?$back_insert_iterator@V?$_Fmt_buffer@D@std@@@1@_J@Z
	??$?R_J@?$_Default_arg_formatter@V?$back_insert_iterator@V?$_Fmt_buffer@D@std@@@std@@D@std@@QEHAA?AV?$back_insert_iterator@V?$_Fmt_buffer@D@std@@@1@_J@Z
	??$?R_J@_Precision_checker@std@@SA_K_J@Z
	??$?R_J@_Width_checker@std@@SA_K_J@Z
	??$?R_K@?$_Arg_formatter@V?$back_insert_iterator@V?$_Fmt_buffer@D@std@@@std@@D@std@@QEAA?AV?$back_insert_iterator@V?$_Fmt_buffer@D@std@@@1@_K@Z
	??$?R_K@?$_Default_arg_formatter@V?$back_insert_iterator@V?$_Fmt_buffer@D@std@@@std@@D@std@@QEHAA?AV?$back_insert_iterator@V?$_Fmt_buffer@D@std@@@1@_K@Z
	??$?R_K@_Precision_checker@std@@SA_K_K@Z
	??$?R_K@_Width_checker@std@@SA_K_K@Z
	??$?R_N@?$_Arg_formatter@V?$back_insert_iterator@V?$_Fmt_buffer@D@std@@@std@@D@std@@QEAA?AV?$back_insert_iterator@V?$_Fmt_buffer@D@std@@@1@_N@Z
	??$?R_N@?$_Default_arg_formatter@V?$back_insert_iterator@V?$_Fmt_buffer@D@std@@@std@@D@std@@QEHAA?AV?$back_insert_iterator@V?$_Fmt_buffer@D@std@@@1@_N@Z
	??$?R_N@_Precision_checker@std@@SA_K_N@Z
	??$?R_N@_Width_checker@std@@SA_K_N@Z
	??$?YV?$basic_string_view@DU?$char_traits@D@std@@@std@@$0A@@?$basic_string@DU?$char_traits@D@std@@V?$allocator@D@2@@std@@QEAAAEAV01@AEBV?$basic_string_view@DU?$char_traits@D@std@@@1@@Z
	??$?__MDU?$char_traits@D@std@@V?$allocator@D@1@@std@@YA?AUstrong_ordering@0@AEBV?$basic_string@DU?$char_traits@D@std@@V?$allocator@D@2@@0@0@Z
	??$?__MDU?$char_traits@D@std@@V?$allocator@D@1@@std@@YA?AUstrong_ordering@0@AEBV?$basic_string@DU?$char_traits@D@std@@V?$allocator@D@2@@0@QEBD@Z
	??$CheckboxFlagsT@H@ImGui@@YA_NPEBDPEAHH@Z
	??$CheckboxFlagsT@I@ImGui@@YA_NPEBDPEAII@Z
	??$CheckboxFlagsT@_J@ImGui@@YA_NPEBDPEA_J_J@Z
	??$CheckboxFlagsT@_K@ImGui@@YA_NPEBDPEA_K_K@Z
	??$DragBehaviorT@HHM@ImGui@@YA_NHPEAHMHHPEBDH@Z
	??$DragBehaviorT@IHM@ImGui@@YA_NHPEAIMIIPEBDH@Z
	??$DragBehaviorT@MMM@ImGui@@YA_NHPEAMMMMPEBDH@Z
	??$DragBehaviorT@NNN@ImGui@@YA_NHPEANMNNPEBDH@Z
	??$DragBehaviorT@_J_JN@ImGui@@YA_NHPEA_JM_J1PEBDH@Z
	??$DragBehaviorT@_K_JN@ImGui@@YA_NHPEA_KM_K1PEBDH@Z
	??$GetSpan@F@?$ImSpanAllocator@$05@@QEAAXHPEAU?$ImSpan@F@@@Z
	??$GetSpan@UImGuiTableCellData@@@?$ImSpanAllocator@$05@@QEAAXHPEAU?$ImSpan@UImGuiTableCellData@@@@@Z
	??$GetSpan@UImGuiTableColumn@@@?$ImSpanAllocator@$05@@QEAAXHPEAU?$ImSpan@UImGuiTableColumn@@@@@Z
	??$IID_PPV_ARGS_Helper@UID3D11Device@@@@YAPEAPEAXPEAPEAUID3D11Device@@@Z
	??$IID_PPV_ARGS_Helper@UID3D11Multithread@@@@YAPEAPEAXPEAPEAUID3D11Multithread@@@Z
	??$IID_PPV_ARGS_Helper@UID3D11On12Device@@@@YAPEAPEAXPEAPEAUID3D11On12Device@@@Z
	??$IID_PPV_ARGS_Helper@UID3D11Resource@@@@YAPEAPEAXPEAPEAUID3D11Resource@@@Z
	??$IID_PPV_ARGS_Helper@UID3D11Texture2D@@@@YAPEAPEAXPEAPEAUID3D11Texture2D@@@Z
	??$IID_PPV_ARGS_Helper@UID3D12CommandAllocator@@@@YAPEAPEAXPEAPEAUID3D12CommandAllocator@@@Z
	??$IID_PPV_ARGS_Helper@UID3D12CommandQueue@@@@YAPEAPEAXPEAPEAUID3D12CommandQueue@@@Z
	??$IID_PPV_ARGS_Helper@UID3D12DescriptorHeap@@@@YAPEAPEAXPEAPEAUID3D12DescriptorHeap@@@Z
	??$IID_PPV_ARGS_Helper@UID3D12Device@@@@YAPEAPEAXPEAPEAUID3D12Device@@@Z
	??$IID_PPV_ARGS_Helper@UID3D12Fence@@@@YAPEAPEAXPEAPEAUID3D12Fence@@@Z
	??$IID_PPV_ARGS_Helper@UID3D12GraphicsCommandList@@@@YAPEAPEAXPEAPEAUID3D12GraphicsCommandList@@@Z
	??$IID_PPV_ARGS_Helper@UID3D12PipelineState@@@@YAPEAPEAXPEAPEAUID3D12PipelineState@@@Z
	??$IID_PPV_ARGS_Helper@UID3D12Resource@@@@YAPEAPEAXPEAPEAUID3D12Resource@@@Z
	??$IID_PPV_ARGS_Helper@UID3D12RootSignature@@@@YAPEAPEAXPEAPEAUID3D12RootSignature@@@Z
	??$IID_PPV_ARGS_Helper@UIDXGIAdapter@@@@YAPEAPEAXPEAPEAUIDXGIAdapter@@@Z
	??$IID_PPV_ARGS_Helper@UIDXGIDevice@@@@YAPEAPEAXPEAPEAUIDXGIDevice@@@Z
	??$IID_PPV_ARGS_Helper@UIDXGIFactory2@@@@YAPEAPEAXPEAPEAUIDXGIFactory2@@@Z
	??$IID_PPV_ARGS_Helper@UIDXGIFactory@@@@YAPEAPEAXPEAPEAUIDXGIFactory@@@Z
	??$IID_PPV_ARGS_Helper@UIDXGISwapChain3@@@@YAPEAPEAXPEAPEAUIDXGISwapChain3@@@Z
	??$IID_PPV_ARGS_Helper@UIDXGISwapChain@@@@YAPEAPEAXPEAPEAUIDXGISwapChain@@@Z
	??$IM_DELETE@D@@YAXPEAD@Z
	??$IM_DELETE@UImDrawList@@@@YAXPEAUImDrawList@@@Z
	??$IM_DELETE@UImFont@@@@YAXPEAUImFont@@@Z
	??$IM_DELETE@UImFontAtlas@@@@YAXPEAUImFontAtlas@@@Z
	??$IM_DELETE@UImGuiContext@@@@YAXPEAUImGuiContext@@@Z
	??$IM_DELETE@UImGuiViewportP@@@@YAXPEAUImGuiViewportP@@@Z
	??$IM_DELETE@UImGuiWindow@@@@YAXPEAUImGuiWindow@@@Z
	??$IM_DELETE@UImGui_ImplDX11_Data@@@@YAXPEAUImGui_ImplDX11_Data@@@Z
	??$IM_DELETE@UImGui_ImplDX12_Data@@@@YAXPEAUImGui_ImplDX12_Data@@@Z
	??$IM_DELETE@UImGui_ImplWin32_Data@@@@YAXPEAUImGui_ImplWin32_Data@@@Z
	??$IM_DELETE@USTB_TexteditState@ImStb@@@@YAXPEAUSTB_TexteditState@ImStb@@@Z
	??$QueryInterface@UIDXGIDevice@@@IUnknown@@QEAAJPEAPEAUIDXGIDevice@@@Z
	??$RoundScalarWithFormatT@H@ImGui@@YAHPEBDHH@Z
	??$RoundScalarWithFormatT@I@ImGui@@YAIPEBDHI@Z
	??$RoundScalarWithFormatT@M@ImGui@@YAMPEBDHM@Z
	??$RoundScalarWithFormatT@N@ImGui@@YANPEBDHN@Z
	??$RoundScalarWithFormatT@_J@ImGui@@YA_JPEBDH_J@Z
	??$RoundScalarWithFormatT@_K@ImGui@@YA_KPEBDH_K@Z
	??$ScaleRatioFromValueT@HHM@ImGui@@YAMHHHH_NMM@Z
	??$ScaleRatioFromValueT@IHM@ImGui@@YAMHIII_NMM@Z
	??$ScaleRatioFromValueT@MMM@ImGui@@YAMHMMM_NMM@Z
	??$ScaleRatioFromValueT@NNN@ImGui@@YAMHNNN_NMM@Z
	??$ScaleRatioFromValueT@_J_JN@ImGui@@YAMH_J00_NMM@Z
	??$ScaleRatioFromValueT@_K_JN@ImGui@@YAMH_K00_NMM@Z
	??$ScaleValueFromRatioT@HHM@ImGui@@YAHHMHH_NMM@Z
	??$ScaleValueFromRatioT@IHM@ImGui@@YAIHMII_NMM@Z
	??$ScaleValueFromRatioT@MMM@ImGui@@YAMHMMM_NMM@Z
	??$ScaleValueFromRatioT@NNN@ImGui@@YANHMNN_NMM@Z
	??$ScaleValueFromRatioT@_J_JN@ImGui@@YA_JHM_J0_NMM@Z
	??$ScaleValueFromRatioT@_K_JN@ImGui@@YA_KHM_K0_NMM@Z
	??$SliderBehaviorT@HHM@ImGui@@YA_NAEBUImRect@@IHPEAHHHPEBDHPEAU1@@Z
	??$SliderBehaviorT@IHM@ImGui@@YA_NAEBUImRect@@IHPEAIIIPEBDHPEAU1@@Z
	??$SliderBehaviorT@MMM@ImGui@@YA_NAEBUImRect@@IHPEAMMMPEBDHPEAU1@@Z
	??$SliderBehaviorT@NNN@ImGui@@YA_NAEBUImRect@@IHPEANNNPEBDHPEAU1@@Z
	??$SliderBehaviorT@_J_JN@ImGui@@YA_NAEBUImRect@@IHPEA_J_J2PEBDHPEAU1@@Z
	??$SliderBehaviorT@_K_JN@ImGui@@YA_NAEBUImRect@@IHPEA_K_K2PEBDHPEAU1@@Z
	??$_Adl_verify_range@PEADPEAD@std@@YAXAEBQEAD0@Z
	??$_Adl_verify_range@PEAPEAULatencySnapshot@vrc@@PEAPEAU12@@std@@YAXAEBQEAPEAULatencySnapshot@vrc@@0@Z
	??$_Adl_verify_range@PEAPEAUPerfSample@vrc@@PEAPEAU12@@std@@YAXAEBQEAPEAUPerfSample@vrc@@0@Z
	??$_Adl_verify_range@PEAPEAURotationSample@LatencyCompensator@vrc@@PEAPEAU123@@std@@YAXAEBQEAPEAURotationSample@LatencyCompensator@vrc@@0@Z
	??$_Adl_verify_range@PEAPEAUTrackingSample@vrc@@PEAPEAU12@@std@@YAXAEBQEAPEAUTrackingSample@vrc@@0@Z
	??$_Adl_verify_range@PEAV?$_List_unchecked_iterator@V?$_List_val@U?$_List_simple_types@U?$pair@$$CBG_N@std@@@std@@@std@@@std@@PEAV12@@std@@YAXAEBQEAV?$_List_unchecked_iterator@V?$_List_val@U?$_List_simple_types@U?$pair@$$CBG_N@std@@@std@@@std@@@0@0@Z
	??$_Adl_verify_range@PEAV?$_List_unchecked_iterator@V?$_List_val@U?$_List_simple_types@U?$pair@$$CBV?$basic_string@DU?$char_traits@D@std@@V?$allocator@D@2@@std@@UConfigProfile@vrc@@@std@@@std@@@std@@@std@@PEAV12@@std@@YAXAEBQEAV?$_List_unchecked_iterator@V?$_List_val@U?$_List_simple_types@U?$pair@$$CBV?$basic_string@DU?$char_traits@D@std@@V?$allocator@D@2@@std@@UConfigProfile@vrc@@@std@@@std@@@std@@@0@0@Z
	??$_Adl_verify_range@PEAV?$_List_unchecked_iterator@V?$_List_val@U?$_List_simple_types@U?$pair@$$CBV?$basic_string@DU?$char_traits@D@std@@V?$allocator@D@2@@std@@UInputProfile@vrc@@@std@@@std@@@std@@@std@@PEAV12@@std@@YAXAEBQEAV?$_List_unchecked_iterator@V?$_List_val@U?$_List_simple_types@U?$pair@$$CBV?$basic_string@DU?$char_traits@D@std@@V?$allocator@D@2@@std@@UInputProfile@vrc@@@std@@@std@@@std@@@0@0@Z
	??$_Adl_verify_range@PEAV?$_List_unchecked_iterator@V?$_List_val@U?$_List_simple_types@U?$pair@$$CBV?$basic_string@DU?$char_traits@D@std@@V?$allocator@D@2@@std@@V?$function@$$A6AXXZ@2@@std@@@std@@@std@@@std@@PEAV12@@std@@YAXAEBQEAV?$_List_unchecked_iterator@V?$_List_val@U?$_List_simple_types@U?$pair@$$CBV?$basic_string@DU?$char_traits@D@std@@V?$allocator@D@2@@std@@V?$function@$$A6AXXZ@2@@std@@@std@@@std@@@0@0@Z
	??$_Adl_verify_range@PEAV?$_List_unchecked_iterator@V?$_List_val@U?$_List_simple_types@U?$pair@$$CBW4InputAction@vrc@@M@std@@@std@@@std@@@std@@PEAV12@@std@@YAXAEBQEAV?$_List_unchecked_iterator@V?$_List_val@U?$_List_simple_types@U?$pair@$$CBW4InputAction@vrc@@M@std@@@std@@@std@@@0@0@Z
	??$_Adl_verify_range@PEBDPEBD@std@@YAXAEBQEBD0@Z
	??$_Adl_verify_range@PEBIPEBI@std@@YAXAEBQEBI0@Z
	??$_Adl_verify_range@PEBV?$json_ref@V?$basic_json@Vmap@std@@Vvector@2@V?$basic_string@DU?$char_traits@D@std@@V?$allocator@D@2@@2@_N_J_KNVallocator@2@Uadl_serializer@json_abi_v3_11_3@nlohmann@@V?$vector@EV?$allocator@E@std@@@2@X@json_abi_v3_11_3@nlohmann@@@detail@json_abi_v3_11_3@nlohmann@@PEBV1234@@std@@YAXAEBQEBV?$json_ref@V?$basic_json@Vmap@std@@Vvector@2@V?$basic_string@DU?$char_traits@D@std@@V?$allocator@D@2@@2@_N_J_KNVallocator@2@Uadl_serializer@json_abi_v3_11_3@nlohmann@@V?$vector@EV?$allocator@E@std@@@2@X@json_abi_v3_11_3@nlohmann@@@detail@json_abi_v3_11_3@nlohmann@@0@Z
	??$_Adl_verify_range@PEB_KPEB_K@std@@YAXAEBQEB_K0@Z
	??$_Adl_verify_range@PEB_UPEB_U@std@@YAXAEBQEB_U0@Z
	??$_Adl_verify_range@PEB_WPEB_W@std@@YAXAEBQEB_W0@Z
	??$_Adl_verify_range@V?$_String_view_iterator@U?$char_traits@D@std@@@std@@V12@@std@@YAXAEBV?$_String_view_iterator@U?$char_traits@D@std@@@0@0@Z
	??$_Adl_verify_range@V?$_Vb_iterator@U?$_Wrap_alloc@V?$allocator@I@std@@@std@@@std@@V12@@std@@YAXAEBV?$_Vb_iterator@U?$_Wrap_alloc@V?$allocator@I@std@@@std@@@0@0@Z
	??$_Adl_verify_range@V?$_Vector_iterator@V?$_Vector_val@U?$_Simple_types@N@std@@@std@@@std@@V12@@std@@YAXAEBV?$_Vector_iterator@V?$_Vector_val@U?$_Simple_types@N@std@@@std@@@0@0@Z
	??$_Adl_verify_range@V?$_Vector_iterator@V?$_Vector_val@U?$_Simple_types@V?$basic_json@Vmap@std@@Vvector@2@V?$basic_string@DU?$char_traits@D@std@@V?$allocator@D@2@@2@_N_J_KNVallocator@2@Uadl_serializer@json_abi_v3_11_3@nlohmann@@V?$vector@EV?$allocator@E@std@@@2@X@json_abi_v3_11_3@nlohmann@@@std@@@std@@@std@@V12@@std@@YAXAEBV?$_Vector_iterator@V?$_Vector_val@U?$_Simple_types@V?$basic_json@Vmap@std@@Vvector@2@V?$basic_string@DU?$char_traits@D@std@@V?$allocator@D@2@@2@_N_J_KNVallocator@2@Uadl_serializer@json_abi_v3_11_3@nlohmann@@V?$vector@EV?$allocator@E@std@@@2@X@json_abi_v3_11_3@nlohmann@@@std@@@std@@@0@0@Z
	??$_Alloc_proxy@V?$allocator@U_Container_proxy@std@@@std@@@_Container_base12@std@@QEAAX$$QEAV?$allocator@U_Container_proxy@std@@@1@@Z
	??$_Allocate@$0BA@U_Default_allocate_traits@std@@@std@@YAPEAX_K@Z
	??$_Allocate_at_least_helper@V?$allocator@D@std@@@std@@YAPEADAEAV?$allocator@D@0@AEA_K@Z
	??$_Allocate_at_least_helper@V?$allocator@E@std@@@std@@YAPEAEAEAV?$allocator@E@0@AEA_K@Z
	??$_Allocate_at_least_helper@V?$allocator@I@std@@@std@@YAPEAIAEAV?$allocator@I@0@AEA_K@Z
	??$_Allocate_at_least_helper@V?$allocator@N@std@@@std@@YAPEANAEAV?$allocator@N@0@AEA_K@Z
	??$_Allocate_at_least_helper@V?$allocator@PEAULatencySnapshot@vrc@@@std@@@std@@YAPEAPEAULatencySnapshot@vrc@@AEAV?$allocator@PEAULatencySnapshot@vrc@@@0@AEA_K@Z
	??$_Allocate_at_least_helper@V?$allocator@PEAUPerfSample@vrc@@@std@@@std@@YAPEAPEAUPerfSample@vrc@@AEAV?$allocator@PEAUPerfSample@vrc@@@0@AEA_K@Z
	??$_Allocate_at_least_helper@V?$allocator@PEAURotationSample@LatencyCompensator@vrc@@@std@@@std@@YAPEAPEAURotationSample@LatencyCompensator@vrc@@AEAV?$allocator@PEAURotationSample@LatencyCompensator@vrc@@@0@AEA_K@Z
	??$_Allocate_at_least_helper@V?$allocator@PEAUTrackingSample@vrc@@@std@@@std@@YAPEAPEAUTrackingSample@vrc@@AEAV?$allocator@PEAUTrackingSample@vrc@@@0@AEA_K@Z
	??$_Allocate_at_least_helper@V?$allocator@PEAV?$basic_json@Vmap@std@@Vvector@2@V?$basic_string@DU?$char_traits@D@std@@V?$allocator@D@2@@2@_N_J_KNVallocator@2@Uadl_serializer@json_abi_v3_11_3@nlohmann@@V?$vector@EV?$allocator@E@std@@@2@X@json_abi_v3_11_3@nlohmann@@@std@@@std@@YAPEAPEAV?$basic_json@Vmap@std@@Vvector@2@V?$basic_string@DU?$char_traits@D@std@@V?$allocator@D@2@@2@_N_J_KNVallocator@2@Uadl_serializer@json_abi_v3_11_3@nlohmann@@V?$vector@EV?$allocator@E@std@@@2@X@json_abi_v3_11_3@nlohmann@@AEAV?$allocator@PEAV?$basic_json@Vmap@std@@Vvector@2@V?$basic_string@DU?$char_traits@D@std@@V?$allocator@D@2@@2@_N_J_KNVallocator@2@Uadl_serializer@json_abi_v3_11_3@nlohmann@@V?$vector@EV?$allocator@E@std@@@2@X@json_abi_v3_11_3@nlohmann@@@0@AEA_K@Z
	??$_Allocate_at_least_helper@V?$allocator@PEAX@std@@@std@@YAPEAPEAXAEAV?$allocator@PEAX@0@AEA_K@Z
	??$_Allocate_at_least_helper@V?$allocator@PEBD@std@@@std@@YAPEAPEBDAEAV?$allocator@PEBD@0@AEA_K@Z
	??$_Allocate_at_least_helper@V?$allocator@U?$pair@PEAXP6AJPEAUIDXGISwapChain@@II@Z@std@@@std@@@std@@YAPEAU?$pair@PEAXP6AJPEAUIDXGISwapChain@@II@Z@0@AEAV?$allocator@U?$pair@PEAXP6AJPEAUIDXGISwapChain@@II@Z@std@@@0@AEA_K@Z
	??$_Allocate_at_least_helper@V?$allocator@UBinding@vrc@@@std@@@std@@YAPEAUBinding@vrc@@AEAV?$allocator@UBinding@vrc@@@0@AEA_K@Z
	??$_Allocate_at_least_helper@V?$allocator@UD3D12_CPU_DESCRIPTOR_HANDLE@@@std@@@std@@YAPEAUD3D12_CPU_DESCRIPTOR_HANDLE@@AEAV?$allocator@UD3D12_CPU_DESCRIPTOR_HANDLE@@@0@AEA_K@Z
	??$_Allocate_at_least_helper@V?$allocator@UXrActionSuggestedBinding@@@std@@@std@@YAPEAUXrActionSuggestedBinding@@AEAV?$allocator@UXrActionSuggestedBinding@@@0@AEA_K@Z
	??$_Allocate_at_least_helper@V?$allocator@UXrExtensionProperties@@@std@@@std@@YAPEAUXrExtensionProperties@@AEAV?$allocator@UXrExtensionProperties@@@0@AEA_K@Z
	??$_Allocate_at_least_helper@V?$allocator@UXrSwapchainImageD3D11KHR@@@std@@@std@@YAPEAUXrSwapchainImageD3D11KHR@@AEAV?$allocator@UXrSwapchainImageD3D11KHR@@@0@AEA_K@Z
	??$_Allocate_at_least_helper@V?$allocator@UXrSwapchainImageD3D12KHR@@@std@@@std@@YAPEAUXrSwapchainImageD3D12KHR@@AEAV?$allocator@UXrSwapchainImageD3D12KHR@@@0@AEA_K@Z
	??$_Allocate_at_least_helper@V?$allocator@UXrViewConfigurationView@@@std@@@std@@YAPEAUXrViewConfigurationView@@AEAV?$allocator@UXrViewConfigurationView@@@0@AEA_K@Z
	??$_Allocate_at_least_helper@V?$allocator@V?$basic_json@Vmap@std@@Vvector@2@V?$basic_string@DU?$char_traits@D@std@@V?$allocator@D@2@@2@_N_J_KNVallocator@2@Uadl_serializer@json_abi_v3_11_3@nlohmann@@V?$vector@EV?$allocator@E@std@@@2@X@json_abi_v3_11_3@nlohmann@@@std@@@std@@YAPEAV?$basic_json@Vmap@std@@Vvector@2@V?$basic_string@DU?$char_traits@D@std@@V?$allocator@D@2@@2@_N_J_KNVallocator@2@Uadl_serializer@json_abi_v3_11_3@nlohmann@@V?$vector@EV?$allocator@E@std@@@2@X@json_abi_v3_11_3@nlohmann@@AEAV?$allocator@V?$basic_json@Vmap@std@@Vvector@2@V?$basic_string@DU?$char_traits@D@std@@V?$allocator@D@2@@2@_N_J_KNVallocator@2@Uadl_serializer@json_abi_v3_11_3@nlohmann@@V?$vector@EV?$allocator@E@std@@@2@X@json_abi_v3_11_3@nlohmann@@@0@AEA_K@Z
	??$_Allocate_at_least_helper@V?$allocator@V?$basic_string@DU?$char_traits@D@std@@V?$allocator@D@2@@std@@@std@@@std@@YAPEAV?$basic_string@DU?$char_traits@D@std@@V?$allocator@D@2@@0@AEAV?$allocator@V?$basic_string@DU?$char_traits@D@std@@V?$allocator@D@2@@std@@@0@AEA_K@Z
	??$_Allocate_at_least_helper@V?$allocator@_W@std@@@std@@YAPEA_WAEAV?$allocator@_W@0@AEA_K@Z
	??$_Allocate_for_capacity@$0A@@?$basic_string@DU?$char_traits@D@std@@V?$allocator@D@2@@std@@CAPEADAEAV?$allocator@D@1@AEA_K@Z
	??$_Allocate_for_capacity@$0A@@?$basic_string@_WU?$char_traits@_W@std@@V?$allocator@_W@2@@std@@CAPEA_WAEAV?$allocator@_W@1@AEA_K@Z
	??$_Allocate_manually_vector_aligned@U_Default_allocate_traits@std@@@std@@YAPEAX_K@Z
	??$_Append@D@?$basic_string@DU?$char_traits@D@std@@V?$allocator@D@2@@std@@AEAAAEAV01@QEBD_K@Z
	??$_Append@_W@?$basic_string@_WU?$char_traits@_W@std@@V?$allocator@_W@2@@std@@AEAAAEAV01@QEB_W_K@Z
	??$_Assign@D@?$basic_string@DU?$char_traits@D@std@@V?$allocator@D@2@@std@@AEAAAEAV01@QEBD_K@Z
	??$_Assign@_W@?$basic_string@_WU?$char_traits@_W@std@@V?$allocator@_W@2@@std@@AEAAAEAV01@QEB_W_K@Z
	??$_Assign_counted_range@PEAUBinding@vrc@@@?$vector@UBinding@vrc@@V?$allocator@UBinding@vrc@@@std@@@std@@AEAAXPEAUBinding@vrc@@_K@Z
	??$_Atomic_address_as@DU?$_Atomic_padded@_N@std@@@std@@YAPECDAEAU?$_Atomic_padded@_N@0@@Z
	??$_Atomic_address_as@DU?$_Atomic_padded@_N@std@@@std@@YAPEDDAEBU?$_Atomic_padded@_N@0@@Z
	??$_Atomic_address_as@HU?$_Atomic_padded@I@std@@@std@@YAPEDHAEBU?$_Atomic_padded@I@0@@Z
	??$_Atomic_address_as@JU?$_Atomic_padded@I@std@@@std@@YAPECJAEAU?$_Atomic_padded@I@0@@Z
	??$_Atomic_reinterpret_as@D_N@std@@YADAEB_N@Z
	??$_Bit_cast@IM$0A@@std@@YAIAEBM@Z
	??$_Bit_cast@MI$0A@@std@@YAMAEBI@Z
	??$_Bit_cast@N_K$0A@@std@@YANAEB_K@Z
	??$_Bit_cast@_KN$0A@@std@@YA_KAEBN@Z
	??$_Bit_cast@_KT_Addr_storage@error_category@std@@$0A@@std@@YA_KAEBT_Addr_storage@error_category@0@@Z
	??$_Bitmask_includes_any@W4__std_fs_file_attr@@@std@@YA_NW4__std_fs_file_attr@@0@Z
	??$_Buyheadnode@V?$allocator@U?$_Tree_node@U?$pair@$$CBV?$basic_string@DU?$char_traits@D@std@@V?$allocator@D@2@@std@@V?$basic_json@Vmap@std@@Vvector@2@V?$basic_string@DU?$char_traits@D@std@@V?$allocator@D@2@@2@_N_J_KNVallocator@2@Uadl_serializer@json_abi_v3_11_3@nlohmann@@V?$vector@EV?$allocator@E@std@@@2@X@json_abi_v3_11_3@nlohmann@@@std@@PEAX@std@@@std@@@?$_Tree_node@U?$pair@$$CBV?$basic_string@DU?$char_traits@D@std@@V?$allocator@D@2@@std@@V?$basic_json@Vmap@std@@Vvector@2@V?$basic_string@DU?$char_traits@D@std@@V?$allocator@D@2@@2@_N_J_KNVallocator@2@Uadl_serializer@json_abi_v3_11_3@nlohmann@@V?$vector@EV?$allocator@E@std@@@2@X@json_abi_v3_11_3@nlohmann@@@std@@PEAX@std@@SAPEAU01@AEAV?$allocator@U?$_Tree_node@U?$pair@$$CBV?$basic_string@DU?$char_traits@D@std@@V?$allocator@D@2@@std@@V?$basic_json@Vmap@std@@Vvector@2@V?$basic_string@DU?$char_traits@D@std@@V?$allocator@D@2@@2@_N_J_KNVallocator@2@Uadl_serializer@json_abi_v3_11_3@nlohmann@@V?$vector@EV?$allocator@E@std@@@2@X@json_abi_v3_11_3@nlohmann@@@std@@PEAX@std@@@1@@Z
	??$_Buynode@AEAU?$pair@$$CBV?$basic_string@DU?$char_traits@D@std@@V?$allocator@D@2@@std@@V?$basic_json@Vmap@std@@Vvector@2@V?$basic_string@DU?$char_traits@D@std@@V?$allocator@D@2@@2@_N_J_KNVallocator@2@Uadl_serializer@json_abi_v3_11_3@nlohmann@@V?$vector@EV?$allocator@E@std@@@2@X@json_abi_v3_11_3@nlohmann@@@std@@@?$_Tree@V?$_Tmap_traits@V?$basic_string@DU?$char_traits@D@std@@V?$allocator@D@2@@std@@V?$basic_json@Vmap@std@@Vvector@2@V?$basic_string@DU?$char_traits@D@std@@V?$allocator@D@2@@2@_N_J_KNVallocator@2@Uadl_serializer@json_abi_v3_11_3@nlohmann@@V?$vector@EV?$allocator@E@std@@@2@X@json_abi_v3_11_3@nlohmann@@U?$less@X@2@V?$allocator@U?$pair@$$CBV?$basic_string@DU?$char_traits@D@std@@V?$allocator@D@2@@std@@V?$basic_json@Vmap@std@@Vvector@2@V?$basic_string@DU?$char_traits@D@std@@V?$allocator@D@2@@2@_N_J_KNVallocator@2@Uadl_serializer@json_abi_v3_11_3@nlohmann@@V?$vector@EV?$allocator@E@std@@@2@X@json_abi_v3_11_3@nlohmann@@@std@@@2@$0A@@std@@@std@@IEAAPEAU?$_Tree_node@U?$pair@$$CBV?$basic_string@DU?$char_traits@D@std@@V?$allocator@D@2@@std@@V?$basic_json@Vmap@std@@Vvector@2@V?$basic_string@DU?$char_traits@D@std@@V?$allocator@D@2@@2@_N_J_KNVallocator@2@Uadl_serializer@json_abi_v3_11_3@nlohmann@@V?$vector@EV?$allocator@E@std@@@2@X@json_abi_v3_11_3@nlohmann@@@std@@PEAX@1@AEAU?$pair@$$CBV?$basic_string@DU?$char_traits@D@std@@V?$allocator@D@2@@std@@V?$basic_json@Vmap@std@@Vvector@2@V?$basic_string@DU?$char_traits@D@std@@V?$allocator@D@2@@2@_N_J_KNVallocator@2@Uadl_serializer@json_abi_v3_11_3@nlohmann@@V?$vector@EV?$allocator@E@std@@@2@X@json_abi_v3_11_3@nlohmann@@@1@@Z
	??$_Buynode@V?$allocator@U?$_Tree_node@U?$pair@$$CBV?$basic_string@DU?$char_traits@D@std@@V?$allocator@D@2@@std@@V?$basic_json@Vmap@std@@Vvector@2@V?$basic_string@DU?$char_traits@D@std@@V?$allocator@D@2@@2@_N_J_KNVallocator@2@Uadl_serializer@json_abi_v3_11_3@nlohmann@@V?$vector@EV?$allocator@E@std@@@2@X@json_abi_v3_11_3@nlohmann@@@std@@PEAX@std@@@std@@AEAU?$pair@$$CBV?$basic_string@DU?$char_traits@D@std@@V?$allocator@D@2@@std@@V?$basic_json@Vmap@std@@Vvector@2@V?$basic_string@DU?$char_traits@D@std@@V?$allocator@D@2@@2@_N_J_KNVallocator@2@Uadl_serializer@json_abi_v3_11_3@nlohmann@@V?$vector@EV?$allocator@E@std@@@2@X@json_abi_v3_11_3@nlohmann@@@2@@?$_Tree_node@U?$pair@$$CBV?$basic_string@DU?$char_traits@D@std@@V?$allocator@D@2@@std@@V?$basic_json@Vmap@std@@Vvector@2@V?$basic_string@DU?$char_traits@D@std@@V?$allocator@D@2@@2@_N_J_KNVallocator@2@Uadl_serializer@json_abi_v3_11_3@nlohmann@@V?$vector@EV?$allocator@E@std@@@2@X@json_abi_v3_11_3@nlohmann@@@std@@PEAX@std@@SAPEAU01@AEAV?$allocator@U?$_Tree_node@U?$pair@$$CBV?$basic_string@DU?$char_traits@D@std@@V?$allocator@D@2@@std@@V?$basic_json@Vmap@std@@Vvector@2@V?$basic_string@DU?$char_traits@D@std@@V?$allocator@D@2@@2@_N_J_KNVallocator@2@Uadl_serializer@json_abi_v3_11_3@nlohmann@@V?$vector@EV?$allocator@E@std@@@2@X@json_abi_v3_11_3@nlohmann@@@std@@PEAX@std@@@1@PEAU01@AEAU?$pair@$$CBV?$basic_string@DU?$char_traits@D@std@@V?$allocator@D@2@@std@@V?$basic_json@Vmap@std@@Vvector@2@V?$basic_string@DU?$char_traits@D@std@@V?$allocator@D@2@@2@_N_J_KNVallocator@2@Uadl_serializer@json_abi_v3_11_3@nlohmann@@V?$vector@EV?$allocator@E@std@@@2@X@json_abi_v3_11_3@nlohmann@@@1@@Z
	??$_Construct@$00PEAD@?$basic_string@DU?$char_traits@D@std@@V?$allocator@D@2@@std@@AEAAXQEAD_K@Z
	??$_Construct@$00PEBD@?$basic_string@DU?$char_traits@D@std@@V?$allocator@D@2@@std@@AEAAXQEBD_K@Z
	??$_Construct@$00PEB_W@?$basic_string@_WU?$char_traits@_W@std@@V?$allocator@_W@2@@std@@AEAAXQEB_W_K@Z
	??$_Construct@$01PEBD@?$basic_string@DU?$char_traits@D@std@@V?$allocator@D@2@@std@@AEAAXQEBD_K@Z
	??$_Construct@$01PEB_W@?$basic_string@_WU?$char_traits@_W@std@@V?$allocator@_W@2@@std@@AEAAXQEB_W_K@Z
	??$_Construct@$0A@D@?$basic_string@DU?$char_traits@D@std@@V?$allocator@D@2@@std@@AEAAXD_K@Z
	??$_Construct_in_place@DD@std@@YAXAEAD$$QEAD@Z
	??$_Construct_in_place@NAEBN@std@@YAXAEANAEBN@Z
	??$_Construct_in_place@PEADAEAPEAD@std@@YAXAEAPEAD0@Z
	??$_Construct_in_place@PEADAEBQEAD@std@@YAXAEAPEADAEBQEAD@Z
	??$_Construct_in_place@PEAU?$_List_node@U?$pair@$$CBG_N@std@@PEAX@std@@AEAPEAU12@@std@@YAXAEAPEAU?$_List_node@U?$pair@$$CBG_N@std@@PEAX@0@0@Z
	??$_Construct_in_place@PEAU?$_List_node@U?$pair@$$CBG_N@std@@PEAX@std@@AEBQEAU12@@std@@YAXAEAPEAU?$_List_node@U?$pair@$$CBG_N@std@@PEAX@0@AEBQEAU10@@Z
	??$_Construct_in_place@PEAU?$_List_node@U?$pair@$$CBV?$basic_string@DU?$char_traits@D@std@@V?$allocator@D@2@@std@@UConfigProfile@vrc@@@std@@PEAX@std@@AEAPEAU12@@std@@YAXAEAPEAU?$_List_node@U?$pair@$$CBV?$basic_string@DU?$char_traits@D@std@@V?$allocator@D@2@@std@@UConfigProfile@vrc@@@std@@PEAX@0@0@Z
	??$_Construct_in_place@PEAU?$_List_node@U?$pair@$$CBV?$basic_string@DU?$char_traits@D@std@@V?$allocator@D@2@@std@@UConfigProfile@vrc@@@std@@PEAX@std@@AEBQEAU12@@std@@YAXAEAPEAU?$_List_node@U?$pair@$$CBV?$basic_string@DU?$char_traits@D@std@@V?$allocator@D@2@@std@@UConfigProfile@vrc@@@std@@PEAX@0@AEBQEAU10@@Z
	??$_Construct_in_place@PEAU?$_List_node@U?$pair@$$CBV?$basic_string@DU?$char_traits@D@std@@V?$allocator@D@2@@std@@UInputProfile@vrc@@@std@@PEAX@std@@AEAPEAU12@@std@@YAXAEAPEAU?$_List_node@U?$pair@$$CBV?$basic_string@DU?$char_traits@D@std@@V?$allocator@D@2@@std@@UInputProfile@vrc@@@std@@PEAX@0@0@Z
	??$_Construct_in_place@PEAU?$_List_node@U?$pair@$$CBV?$basic_string@DU?$char_traits@D@std@@V?$allocator@D@2@@std@@UInputProfile@vrc@@@std@@PEAX@std@@AEBQEAU12@@std@@YAXAEAPEAU?$_List_node@U?$pair@$$CBV?$basic_string@DU?$char_traits@D@std@@V?$allocator@D@2@@std@@UInputProfile@vrc@@@std@@PEAX@0@AEBQEAU10@@Z
	??$_Construct_in_place@PEAU?$_List_node@U?$pair@$$CBV?$basic_string@DU?$char_traits@D@std@@V?$allocator@D@2@@std@@V?$function@$$A6AXXZ@2@@std@@PEAX@std@@AEAPEAU12@@std@@YAXAEAPEAU?$_List_node@U?$pair@$$CBV?$basic_string@DU?$char_traits@D@std@@V?$allocator@D@2@@std@@V?$function@$$A6AXXZ@2@@std@@PEAX@0@0@Z
	??$_Construct_in_place@PEAU?$_List_node@U?$pair@$$CBV?$basic_string@DU?$char_traits@D@std@@V?$allocator@D@2@@std@@V?$function@$$A6AXXZ@2@@std@@PEAX@std@@AEBQEAU12@@std@@YAXAEAPEAU?$_List_node@U?$pair@$$CBV?$basic_string@DU?$char_traits@D@std@@V?$allocator@D@2@@std@@V?$function@$$A6AXXZ@2@@std@@PEAX@0@AEBQEAU10@@Z
	??$_Construct_in_place@PEAU?$_List_node@U?$pair@$$CBW4InputAction@vrc@@M@std@@PEAX@std@@AEAPEAU12@@std@@YAXAEAPEAU?$_List_node@U?$pair@$$CBW4InputAction@vrc@@M@std@@PEAX@0@0@Z
	??$_Construct_in_place@PEAU?$_List_node@U?$pair@$$CBW4InputAction@vrc@@M@std@@PEAX@std@@AEBQEAU12@@std@@YAXAEAPEAU?$_List_node@U?$pair@$$CBW4InputAction@vrc@@M@std@@PEAX@0@AEBQEAU10@@Z
	??$_Construct_in_place@PEAU?$_Tree_node@U?$pair@$$CBV?$basic_string@DU?$char_traits@D@std@@V?$allocator@D@2@@std@@V?$basic_json@Vmap@std@@Vvector@2@V?$basic_string@DU?$char_traits@D@std@@V?$allocator@D@2@@2@_N_J_KNVallocator@2@Uadl_serializer@json_abi_v3_11_3@nlohmann@@V?$vector@EV?$allocator@E@std@@@2@X@json_abi_v3_11_3@nlohmann@@@std@@PEAX@std@@AEAPEAU12@@std@@YAXAEAPEAU?$_Tree_node@U?$pair@$$CBV?$basic_string@DU?$char_traits@D@std@@V?$allocator@D@2@@std@@V?$basic_json@Vmap@std@@Vvector@2@V?$basic_string@DU?$char_traits@D@std@@V?$allocator@D@2@@2@_N_J_KNVallocator@2@Uadl_serializer@json_abi_v3_11_3@nlohmann@@V?$vector@EV?$allocator@E@std@@@2@X@json_abi_v3_11_3@nlohmann@@@std@@PEAX@0@0@Z
	??$_Construct_in_place@PEAU?$_Tree_node@U?$pair@$$CBV?$basic_string@DU?$char_traits@D@std@@V?$allocator@D@2@@std@@V?$basic_json@Vmap@std@@Vvector@2@V?$basic_string@DU?$char_traits@D@std@@V?$allocator@D@2@@2@_N_J_KNVallocator@2@Uadl_serializer@json_abi_v3_11_3@nlohmann@@V?$vector@EV?$allocator@E@std@@@2@X@json_abi_v3_11_3@nlohmann@@@std@@PEAX@std@@AEBQEAU12@@std@@YAXAEAPEAU?$_Tree_node@U?$pair@$$CBV?$basic_string@DU?$char_traits@D@std@@V?$allocator@D@2@@std@@V?$basic_json@Vmap@std@@Vvector@2@V?$basic_string@DU?$char_traits@D@std@@V?$allocator@D@2@@2@_N_J_KNVallocator@2@Uadl_serializer@json_abi_v3_11_3@nlohmann@@V?$vector@EV?$allocator@E@std@@@2@X@json_abi_v3_11_3@nlohmann@@@std@@PEAX@0@AEBQEAU10@@Z
	??$_Construct_in_place@PEAV?$basic_json@Vmap@std@@Vvector@2@V?$basic_string@DU?$char_traits@D@std@@V?$allocator@D@2@@2@_N_J_KNVallocator@2@Uadl_serializer@json_abi_v3_11_3@nlohmann@@V?$vector@EV?$allocator@E@std@@@2@X@json_abi_v3_11_3@nlohmann@@AEBQEAV123@@std@@YAXAEAPEAV?$basic_json@Vmap@std@@Vvector@2@V?$basic_string@DU?$char_traits@D@std@@V?$allocator@D@2@@2@_N_J_KNVallocator@2@Uadl_serializer@json_abi_v3_11_3@nlohmann@@V?$vector@EV?$allocator@E@std@@@2@X@json_abi_v3_11_3@nlohmann@@AEBQEAV123@@Z
	??$_Construct_in_place@PEAV?$basic_json@Vmap@std@@Vvector@2@V?$basic_string@DU?$char_traits@D@std@@V?$allocator@D@2@@2@_N_J_KNVallocator@2@Uadl_serializer@json_abi_v3_11_3@nlohmann@@V?$vector@EV?$allocator@E@std@@@2@X@json_abi_v3_11_3@nlohmann@@PEAV123@@std@@YAXAEAPEAV?$basic_json@Vmap@std@@Vvector@2@V?$basic_string@DU?$char_traits@D@std@@V?$allocator@D@2@@2@_N_J_KNVallocator@2@Uadl_serializer@json_abi_v3_11_3@nlohmann@@V?$vector@EV?$allocator@E@std@@@2@X@json_abi_v3_11_3@nlohmann@@$$QEAPEAV123@@Z
	??$_Construct_in_place@PEAXPEAX@std@@YAXAEAPEAX$$QEAPEAX@Z
	??$_Construct_in_place@PEA_WAEBQEA_W@std@@YAXAEAPEA_WAEBQEA_W@Z
	??$_Construct_in_place@PEBDPEBD@std@@YAXAEAPEBD$$QEAPEBD@Z
	??$_Construct_in_place@U?$pair@PEAXP6AJPEAUIDXGISwapChain@@II@Z@std@@U12@@std@@YAXAEAU?$pair@PEAXP6AJPEAUIDXGISwapChain@@II@Z@0@$$QEAU10@@Z
	??$_Construct_in_place@UD3D12_CPU_DESCRIPTOR_HANDLE@@AEBU1@@std@@YAXAEAUD3D12_CPU_DESCRIPTOR_HANDLE@@AEBU1@@Z
	??$_Construct_in_place@UXrActionSuggestedBinding@@U1@@std@@YAXAEAUXrActionSuggestedBinding@@$$QEAU1@@Z
	??$_Construct_in_place@U_Container_proxy@std@@PEAU_Container_base12@2@@std@@YAXAEAU_Container_proxy@0@$$QEAPEAU_Container_base12@0@@Z
	??$_Construct_in_place@V?$_List_unchecked_iterator@V?$_List_val@U?$_List_simple_types@U?$pair@$$CBG_N@std@@@std@@@std@@@std@@AEBV12@@std@@YAXAEAV?$_List_unchecked_iterator@V?$_List_val@U?$_List_simple_types@U?$pair@$$CBG_N@std@@@std@@@std@@@0@AEBV10@@Z
	??$_Construct_in_place@V?$_List_unchecked_iterator@V?$_List_val@U?$_List_simple_types@U?$pair@$$CBV?$basic_string@DU?$char_traits@D@std@@V?$allocator@D@2@@std@@UConfigProfile@vrc@@@std@@@std@@@std@@@std@@AEBV12@@std@@YAXAEAV?$_List_unchecked_iterator@V?$_List_val@U?$_List_simple_types@U?$pair@$$CBV?$basic_string@DU?$char_traits@D@std@@V?$allocator@D@2@@std@@UConfigProfile@vrc@@@std@@@std@@@std@@@0@AEBV10@@Z
	??$_Construct_in_place@V?$_List_unchecked_iterator@V?$_List_val@U?$_List_simple_types@U?$pair@$$CBV?$basic_string@DU?$char_traits@D@std@@V?$allocator@D@2@@std@@UInputProfile@vrc@@@std@@@std@@@std@@@std@@AEBV12@@std@@YAXAEAV?$_List_unchecked_iterator@V?$_List_val@U?$_List_simple_types@U?$pair@$$CBV?$basic_string@DU?$char_traits@D@std@@V?$allocator@D@2@@std@@UInputProfile@vrc@@@std@@@std@@@std@@@0@AEBV10@@Z
	??$_Construct_in_place@V?$_List_unchecked_iterator@V?$_List_val@U?$_List_simple_types@U?$pair@$$CBV?$basic_string@DU?$char_traits@D@std@@V?$allocator@D@2@@std@@V?$function@$$A6AXXZ@2@@std@@@std@@@std@@@std@@AEBV12@@std@@YAXAEAV?$_List_unchecked_iterator@V?$_List_val@U?$_List_simple_types@U?$pair@$$CBV?$basic_string@DU?$char_traits@D@std@@V?$allocator@D@2@@std@@V?$function@$$A6AXXZ@2@@std@@@std@@@std@@@0@AEBV10@@Z
	??$_Construct_in_place@V?$_List_unchecked_iterator@V?$_List_val@U?$_List_simple_types@U?$pair@$$CBW4InputAction@vrc@@M@std@@@std@@@std@@@std@@AEBV12@@std@@YAXAEAV?$_List_unchecked_iterator@V?$_List_val@U?$_List_simple_types@U?$pair@$$CBW4InputAction@vrc@@M@std@@@std@@@std@@@0@AEBV10@@Z
	??$_Construct_in_place@V?$basic_json@Vmap@std@@Vvector@2@V?$basic_string@DU?$char_traits@D@std@@V?$allocator@D@2@@2@_N_J_KNVallocator@2@Uadl_serializer@json_abi_v3_11_3@nlohmann@@V?$vector@EV?$allocator@E@std@@@2@X@json_abi_v3_11_3@nlohmann@@$$T@std@@YAXAEAV?$basic_json@Vmap@std@@Vvector@2@V?$basic_string@DU?$char_traits@D@std@@V?$allocator@D@2@@2@_N_J_KNVallocator@2@Uadl_serializer@json_abi_v3_11_3@nlohmann@@V?$vector@EV?$allocator@E@std@@@2@X@json_abi_v3_11_3@nlohmann@@$$QEA$$T@Z
	??$_Construct_in_place@V?$basic_json@Vmap@std@@Vvector@2@V?$basic_string@DU?$char_traits@D@std@@V?$allocator@D@2@@2@_N_J_KNVallocator@2@Uadl_serializer@json_abi_v3_11_3@nlohmann@@V?$vector@EV?$allocator@E@std@@@2@X@json_abi_v3_11_3@nlohmann@@AEAN@std@@YAXAEAV?$basic_json@Vmap@std@@Vvector@2@V?$basic_string@DU?$char_traits@D@std@@V?$allocator@D@2@@2@_N_J_KNVallocator@2@Uadl_serializer@json_abi_v3_11_3@nlohmann@@V?$vector@EV?$allocator@E@std@@@2@X@json_abi_v3_11_3@nlohmann@@AEAN@Z
	??$_Construct_in_place@V?$basic_json@Vmap@std@@Vvector@2@V?$basic_string@DU?$char_traits@D@std@@V?$allocator@D@2@@2@_N_J_KNVallocator@2@Uadl_serializer@json_abi_v3_11_3@nlohmann@@V?$vector@EV?$allocator@E@std@@@2@X@json_abi_v3_11_3@nlohmann@@AEA_J@std@@YAXAEAV?$basic_json@Vmap@std@@Vvector@2@V?$basic_string@DU?$char_traits@D@std@@V?$allocator@D@2@@2@_N_J_KNVallocator@2@Uadl_serializer@json_abi_v3_11_3@nlohmann@@V?$vector@EV?$allocator@E@std@@@2@X@json_abi_v3_11_3@nlohmann@@AEA_J@Z
	??$_Construct_in_place@V?$basic_json@Vmap@std@@Vvector@2@V?$basic_string@DU?$char_traits@D@std@@V?$allocator@D@2@@2@_N_J_KNVallocator@2@Uadl_serializer@json_abi_v3_11_3@nlohmann@@V?$vector@EV?$allocator@E@std@@@2@X@json_abi_v3_11_3@nlohmann@@AEA_K@std@@YAXAEAV?$basic_json@Vmap@std@@Vvector@2@V?$basic_string@DU?$char_traits@D@std@@V?$allocator@D@2@@2@_N_J_KNVallocator@2@Uadl_serializer@json_abi_v3_11_3@nlohmann@@V?$vector@EV?$allocator@E@std@@@2@X@json_abi_v3_11_3@nlohmann@@AEA_K@Z
	??$_Construct_in_place@V?$basic_json@Vmap@std@@Vvector@2@V?$basic_string@DU?$char_traits@D@std@@V?$allocator@D@2@@2@_N_J_KNVallocator@2@Uadl_serializer@json_abi_v3_11_3@nlohmann@@V?$vector@EV?$allocator@E@std@@@2@X@json_abi_v3_11_3@nlohmann@@AEA_N@std@@YAXAEAV?$basic_json@Vmap@std@@Vvector@2@V?$basic_string@DU?$char_traits@D@std@@V?$allocator@D@2@@2@_N_J_KNVallocator@2@Uadl_serializer@json_abi_v3_11_3@nlohmann@@V?$vector@EV?$allocator@E@std@@@2@X@json_abi_v3_11_3@nlohmann@@AEA_N@Z
	??$_Construct_in_place@V?$basic_json@Vmap@std@@Vvector@2@V?$basic_string@DU?$char_traits@D@std@@V?$allocator@D@2@@2@_N_J_KNVallocator@2@Uadl_serializer@json_abi_v3_11_3@nlohmann@@V?$vector@EV?$allocator@E@std@@@2@X@json_abi_v3_11_3@nlohmann@@V123@@std@@YAXAEAV?$basic_json@Vmap@std@@Vvector@2@V?$basic_string@DU?$char_traits@D@std@@V?$allocator@D@2@@2@_N_J_KNVallocator@2@Uadl_serializer@json_abi_v3_11_3@nlohmann@@V?$vector@EV?$allocator@E@std@@@2@X@json_abi_v3_11_3@nlohmann@@$$QEAV123@@Z
	??$_Construct_in_place@V?$output_string_adapter@DV?$basic_string@DU?$char_traits@D@std@@V?$allocator@D@2@@std@@@detail@json_abi_v3_11_3@nlohmann@@AEAV?$basic_string@DU?$char_traits@D@std@@V?$allocator@D@2@@std@@@std@@YAXAEAV?$output_string_adapter@DV?$basic_string@DU?$char_traits@D@std@@V?$allocator@D@2@@std@@@detail@json_abi_v3_11_3@nlohmann@@AEAV?$basic_string@DU?$char_traits@D@std@@V?$allocator@D@2@@0@@Z
	??$_Construct_in_place_by_deref@PEAULatencySnapshot@vrc@@PEAPEAU12@@std@@YAXAEAPEAULatencySnapshot@vrc@@AEAPEAPEAU12@@Z
	??$_Construct_in_place_by_deref@PEAUPerfSample@vrc@@PEAPEAU12@@std@@YAXAEAPEAUPerfSample@vrc@@AEAPEAPEAU12@@Z
	??$_Construct_in_place_by_deref@PEAURotationSample@LatencyCompensator@vrc@@PEAPEAU123@@std@@YAXAEAPEAURotationSample@LatencyCompensator@vrc@@AEAPEAPEAU123@@Z
	??$_Construct_in_place_by_deref@PEAUTrackingSample@vrc@@PEAPEAU12@@std@@YAXAEAPEAUTrackingSample@vrc@@AEAPEAPEAU12@@Z
	??$_Construct_n@AEBQEAEAEBQEAE@?$vector@EV?$allocator@E@std@@@std@@AEAAX_KAEBQEAE1@Z
	??$_Construct_n@AEBQEAV?$basic_json@Vmap@std@@Vvector@2@V?$basic_string@DU?$char_traits@D@std@@V?$allocator@D@2@@2@_N_J_KNVallocator@2@Uadl_serializer@json_abi_v3_11_3@nlohmann@@V?$vector@EV?$allocator@E@std@@@2@X@json_abi_v3_11_3@nlohmann@@AEBQEAV123@@?$vector@V?$basic_json@Vmap@std@@Vvector@2@V?$basic_string@DU?$char_traits@D@std@@V?$allocator@D@2@@2@_N_J_KNVallocator@2@Uadl_serializer@json_abi_v3_11_3@nlohmann@@V?$vector@EV?$allocator@E@std@@@2@X@json_abi_v3_11_3@nlohmann@@V?$allocator@V?$basic_json@Vmap@std@@Vvector@2@V?$basic_string@DU?$char_traits@D@std@@V?$allocator@D@2@@2@_N_J_KNVallocator@2@Uadl_serializer@json_abi_v3_11_3@nlohmann@@V?$vector@EV?$allocator@E@std@@@2@X@json_abi_v3_11_3@nlohmann@@@std@@@std@@AEAAX_KAEBQEAV?$basic_json@Vmap@std@@Vvector@2@V?$basic_string@DU?$char_traits@D@std@@V?$allocator@D@2@@2@_N_J_KNVallocator@2@Uadl_serializer@json_abi_v3_11_3@nlohmann@@V?$vector@EV?$allocator@E@std@@@2@X@json_abi_v3_11_3@nlohmann@@1@Z
	??$_Construct_n@AEBUXrExtensionProperties@@@?$vector@UXrExtensionProperties@@V?$allocator@UXrExtensionProperties@@@std@@@std@@AEAAX_KAEBUXrExtensionProperties@@@Z
	??$_Construct_n@AEBUXrViewConfigurationView@@@?$vector@UXrViewConfigurationView@@V?$allocator@UXrViewConfigurationView@@@std@@@std@@AEAAX_KAEBUXrViewConfigurationView@@@Z
	??$_Construct_n@PEBV?$json_ref@V?$basic_json@Vmap@std@@Vvector@2@V?$basic_string@DU?$char_traits@D@std@@V?$allocator@D@2@@2@_N_J_KNVallocator@2@Uadl_serializer@json_abi_v3_11_3@nlohmann@@V?$vector@EV?$allocator@E@std@@@2@X@json_abi_v3_11_3@nlohmann@@@detail@json_abi_v3_11_3@nlohmann@@PEBV1234@@?$vector@V?$basic_json@Vmap@std@@Vvector@2@V?$basic_string@DU?$char_traits@D@std@@V?$allocator@D@2@@2@_N_J_KNVallocator@2@Uadl_serializer@json_abi_v3_11_3@nlohmann@@V?$vector@EV?$allocator@E@std@@@2@X@json_abi_v3_11_3@nlohmann@@V?$allocator@V?$basic_json@Vmap@std@@Vvector@2@V?$basic_string@DU?$char_traits@D@std@@V?$allocator@D@2@@2@_N_J_KNVallocator@2@Uadl_serializer@json_abi_v3_11_3@nlohmann@@V?$vector@EV?$allocator@E@std@@@2@X@json_abi_v3_11_3@nlohmann@@@std@@@std@@AEAAX_K$$QEAPEBV?$json_ref@V?$basic_json@Vmap@std@@Vvector@2@V?$basic_string@DU?$char_traits@D@std@@V?$allocator@D@2@@2@_N_J_KNVallocator@2@Uadl_serializer@json_abi_v3_11_3@nlohmann@@V?$vector@EV?$allocator@E@std@@@2@X@json_abi_v3_11_3@nlohmann@@@detail@json_abi_v3_11_3@nlohmann@@1@Z
	??$_Convert_Source_to_wide@$$BY08DU_Normal_conversion@filesystem@std@@@filesystem@std@@YA?AV?$basic_string@_WU?$char_traits@_W@std@@V?$allocator@_W@2@@1@AEAY08$$CBDU_Normal_conversion@01@@Z
	??$_Convert_Source_to_wide@$$BY0BA@DU_Normal_conversion@filesystem@std@@@filesystem@std@@YA?AV?$basic_string@_WU?$char_traits@_W@std@@V?$allocator@_W@2@@1@AEAY0BA@$$CBDU_Normal_conversion@01@@Z
	??$_Convert_Source_to_wide@$$BY0BAE@DU_Normal_conversion@filesystem@std@@@filesystem@std@@YA?AV?$basic_string@_WU?$char_traits@_W@std@@V?$allocator@_W@2@@1@AEAY0BAE@$$CBDU_Normal_conversion@01@@Z
	??$_Convert_Source_to_wide@$$BY0BB@DU_Normal_conversion@filesystem@std@@@filesystem@std@@YA?AV?$basic_string@_WU?$char_traits@_W@std@@V?$allocator@_W@2@@1@AEAY0BB@$$CBDU_Normal_conversion@01@@Z
	??$_Convert_Source_to_wide@$$BY0M@DU_Normal_conversion@filesystem@std@@@filesystem@std@@YA?AV?$basic_string@_WU?$char_traits@_W@std@@V?$allocator@_W@2@@1@AEAY0M@$$CBDU_Normal_conversion@01@@Z
	??$_Convert_Source_to_wide@PEADU_Normal_conversion@filesystem@std@@@filesystem@std@@YA?AV?$basic_string@_WU?$char_traits@_W@std@@V?$allocator@_W@2@@1@AEBQEADU_Normal_conversion@01@@Z
	??$_Convert_Source_to_wide@V?$basic_string@DU?$char_traits@D@std@@V?$allocator@D@2@@std@@U_Normal_conversion@filesystem@2@@filesystem@std@@YA?AV?$basic_string@_WU?$char_traits@_W@std@@V?$allocator@_W@2@@1@AEBV?$basic_string@DU?$char_traits@D@std@@V?$allocator@D@2@@1@U_Normal_conversion@01@@Z
	??$_Convert_Source_to_wide@V?$basic_string_view@_WU?$char_traits@_W@std@@@std@@U_Normal_conversion@filesystem@2@@filesystem@std@@YA?AV?$basic_string@_WU?$char_traits@_W@std@@V?$allocator@_W@2@@1@AEBV?$basic_string_view@_WU?$char_traits@_W@std@@@1@U_Normal_conversion@01@@Z
	??$_Convert_size@_K_K@std@@YA_K_K@Z
	??$_Convert_stringoid_to_wide@U_Normal_conversion@filesystem@std@@@filesystem@std@@YA?AV?$basic_string@_WU?$char_traits@_W@std@@V?$allocator@_W@2@@1@V?$basic_string_view@DU?$char_traits@D@std@@@1@U_Normal_conversion@01@@Z
	??$_Convert_stringoid_to_wide@U_Normal_conversion@filesystem@std@@@filesystem@std@@YA?AV?$basic_string@_WU?$char_traits@_W@std@@V?$allocator@_W@2@@1@V?$basic_string_view@_WU?$char_traits@_W@std@@@1@U_Normal_conversion@01@@Z
	??$_Convert_wide_to@U?$char_traits@D@std@@V?$allocator@D@2@D@filesystem@std@@YA?AV?$basic_string@DU?$char_traits@D@std@@V?$allocator@D@2@@1@V?$basic_string_view@_WU?$char_traits@_W@std@@@1@AEBV?$allocator@D@1@@Z
	??$_Convert_wide_to_narrow@U?$char_traits@D@std@@V?$allocator@D@2@@std@@YA?AV?$basic_string@DU?$char_traits@D@std@@V?$allocator@D@2@@0@W4__std_code_page@@V?$basic_string_view@_WU?$char_traits@_W@std@@@0@AEBV?$allocator@D@0@@Z
	??$_Convert_wide_to_narrow_replace_chars@U?$char_traits@D@std@@V?$allocator@D@2@@filesystem@std@@YA?AV?$basic_string@DU?$char_traits@D@std@@V?$allocator@D@2@@1@W4__std_code_page@@V?$basic_string_view@_WU?$char_traits@_W@std@@@1@AEBV?$allocator@D@1@@Z
	??$_Copy@$0A@@?$_Tree@V?$_Tmap_traits@V?$basic_string@DU?$char_traits@D@std@@V?$allocator@D@2@@std@@V?$basic_json@Vmap@std@@Vvector@2@V?$basic_string@DU?$char_traits@D@std@@V?$allocator@D@2@@2@_N_J_KNVallocator@2@Uadl_serializer@json_abi_v3_11_3@nlohmann@@V?$vector@EV?$allocator@E@std@@@2@X@json_abi_v3_11_3@nlohmann@@U?$less@X@2@V?$allocator@U?$pair@$$CBV?$basic_string@DU?$char_traits@D@std@@V?$allocator@D@2@@std@@V?$basic_json@Vmap@std@@Vvector@2@V?$basic_string@DU?$char_traits@D@std@@V?$allocator@D@2@@2@_N_J_KNVallocator@2@Uadl_serializer@json_abi_v3_11_3@nlohmann@@V?$vector@EV?$allocator@E@std@@@2@X@json_abi_v3_11_3@nlohmann@@@std@@@2@$0A@@std@@@std@@IEAAXAEBV01@@Z
	??$_Copy_backward_memmove@PEANPEAN@std@@YAPEANPEAN00@Z
	??$_Copy_backward_unchecked@V?$_Vb_iterator@U?$_Wrap_alloc@V?$allocator@I@std@@@std@@@std@@V12@@std@@YA?AV?$_Vb_iterator@U?$_Wrap_alloc@V?$allocator@I@std@@@std@@@0@V10@00@Z
	??$_Copy_construct_from@U?$output_adapter_protocol@D@detail@json_abi_v3_11_3@nlohmann@@@?$_Ptr_base@U?$output_adapter_protocol@D@detail@json_abi_v3_11_3@nlohmann@@@std@@IEAAXAEBV?$shared_ptr@U?$output_adapter_protocol@D@detail@json_abi_v3_11_3@nlohmann@@@1@@Z
	??$_Copy_memmove@PEADPEAD@std@@YAPEADPEAD00@Z
	??$_Copy_memmove@PEAEPEAE@std@@YAPEAEPEAE00@Z
	??$_Copy_memmove@PEAIPEAI@std@@YAPEAIPEAI00@Z
	??$_Copy_memmove@PEANPEAN@std@@YAPEANPEAN00@Z
	??$_Copy_memmove@PEAPEAULatencySnapshot@vrc@@PEAPEAU12@@std@@YAPEAPEAULatencySnapshot@vrc@@PEAPEAU12@00@Z
	??$_Copy_memmove@PEAPEAUPerfSample@vrc@@PEAPEAU12@@std@@YAPEAPEAUPerfSample@vrc@@PEAPEAU12@00@Z
	??$_Copy_memmove@PEAPEAURotationSample@LatencyCompensator@vrc@@PEAPEAU123@@std@@YAPEAPEAURotationSample@LatencyCompensator@vrc@@PEAPEAU123@00@Z
	??$_Copy_memmove@PEAPEAUTrackingSample@vrc@@PEAPEAU12@@std@@YAPEAPEAUTrackingSample@vrc@@PEAPEAU12@00@Z
	??$_Copy_memmove@PEAPEAV?$basic_json@Vmap@std@@Vvector@2@V?$basic_string@DU?$char_traits@D@std@@V?$allocator@D@2@@2@_N_J_KNVallocator@2@Uadl_serializer@json_abi_v3_11_3@nlohmann@@V?$vector@EV?$allocator@E@std@@@2@X@json_abi_v3_11_3@nlohmann@@PEAPEAV123@@std@@YAPEAPEAV?$basic_json@Vmap@std@@Vvector@2@V?$basic_string@DU?$char_traits@D@std@@V?$allocator@D@2@@2@_N_J_KNVallocator@2@Uadl_serializer@json_abi_v3_11_3@nlohmann@@V?$vector@EV?$allocator@E@std@@@2@X@json_abi_v3_11_3@nlohmann@@PEAPEAV123@00@Z
	??$_Copy_memmove@PEAPEAXPEAPEAX@std@@YAPEAPEAXPEAPEAX00@Z
	??$_Copy_memmove@PEAPEBDPEAPEBD@std@@YAPEAPEBDPEAPEBD00@Z
	??$_Copy_memmove@PEAU?$pair@PEAXP6AJPEAUIDXGISwapChain@@II@Z@std@@PEAU12@@std@@YAPEAU?$pair@PEAXP6AJPEAUIDXGISwapChain@@II@Z@0@PEAU10@00@Z
	??$_Copy_memmove@PEAUD3D12_CPU_DESCRIPTOR_HANDLE@@PEAU1@@std@@YAPEAUD3D12_CPU_DESCRIPTOR_HANDLE@@PEAU1@00@Z
	??$_Copy_memmove@PEAUXrActionSuggestedBinding@@PEAU1@@std@@YAPEAUXrActionSuggestedBinding@@PEAU1@00@Z
	??$_Copy_memmove@PEAUXrSwapchainImageD3D11KHR@@PEAU1@@std@@YAPEAUXrSwapchainImageD3D11KHR@@PEAU1@00@Z
	??$_Copy_memmove@PEAUXrSwapchainImageD3D12KHR@@PEAU1@@std@@YAPEAUXrSwapchainImageD3D12KHR@@PEAU1@00@Z
	??$_Copy_memmove@PEBDPEAD@std@@YAPEADPEBD0PEAD@Z
	??$_Copy_memmove_n@PEADPEAD@std@@YAPEADPEAD_K0@Z
	??$_Copy_memmove_tail@PEAD@std@@YAPEADQEBDQEAD_K2@Z
	??$_Copy_memmove_tail@PEAE@std@@YAPEAEQEBDQEAE_K2@Z
	??$_Copy_memmove_tail@PEAI@std@@YAPEAIQEBDQEAI_K2@Z
	??$_Copy_memmove_tail@PEAN@std@@YAPEANQEBDQEAN_K2@Z
	??$_Copy_memmove_tail@PEAPEAULatencySnapshot@vrc@@@std@@YAPEAPEAULatencySnapshot@vrc@@QEBDQEAPEAU12@_K2@Z
	??$_Copy_memmove_tail@PEAPEAUPerfSample@vrc@@@std@@YAPEAPEAUPerfSample@vrc@@QEBDQEAPEAU12@_K2@Z
	??$_Copy_memmove_tail@PEAPEAURotationSample@LatencyCompensator@vrc@@@std@@YAPEAPEAURotationSample@LatencyCompensator@vrc@@QEBDQEAPEAU123@_K2@Z
	??$_Copy_memmove_tail@PEAPEAUTrackingSample@vrc@@@std@@YAPEAPEAUTrackingSample@vrc@@QEBDQEAPEAU12@_K2@Z
	??$_Copy_memmove_tail@PEAPEAV?$basic_json@Vmap@std@@Vvector@2@V?$basic_string@DU?$char_traits@D@std@@V?$allocator@D@2@@2@_N_J_KNVallocator@2@Uadl_serializer@json_abi_v3_11_3@nlohmann@@V?$vector@EV?$allocator@E@std@@@2@X@json_abi_v3_11_3@nlohmann@@@std@@YAPEAPEAV?$basic_json@Vmap@std@@Vvector@2@V?$basic_string@DU?$char_traits@D@std@@V?$allocator@D@2@@2@_N_J_KNVallocator@2@Uadl_serializer@json_abi_v3_11_3@nlohmann@@V?$vector@EV?$allocator@E@std@@@2@X@json_abi_v3_11_3@nlohmann@@QEBDQEAPEAV123@_K2@Z
	??$_Copy_memmove_tail@PEAPEAX@std@@YAPEAPEAXQEBDQEAPEAX_K2@Z
	??$_Copy_memmove_tail@PEAPEBD@std@@YAPEAPEBDQEBDQEAPEBD_K2@Z
	??$_Copy_memmove_tail@PEAU?$pair@PEAXP6AJPEAUIDXGISwapChain@@II@Z@std@@@std@@YAPEAU?$pair@PEAXP6AJPEAUIDXGISwapChain@@II@Z@0@QEBDQEAU10@_K2@Z
	??$_Copy_memmove_tail@PEAUD3D12_CPU_DESCRIPTOR_HANDLE@@@std@@YAPEAUD3D12_CPU_DESCRIPTOR_HANDLE@@QEBDQEAU1@_K2@Z
	??$_Copy_memmove_tail@PEAUXrActionSuggestedBinding@@@std@@YAPEAUXrActionSuggestedBinding@@QEBDQEAU1@_K2@Z
	??$_Copy_memmove_tail@PEAUXrSwapchainImageD3D11KHR@@@std@@YAPEAUXrSwapchainImageD3D11KHR@@QEBDQEAU1@_K2@Z
	??$_Copy_memmove_tail@PEAUXrSwapchainImageD3D12KHR@@@std@@YAPEAUXrSwapchainImageD3D12KHR@@QEBDQEAU1@_K2@Z
	??$_Copy_n_unchecked4@PEAD_JPEAD@std@@YAPEADPEAD_J0@Z
	??$_Copy_n_unchecked4@PEAUBinding@vrc@@_KPEAU12@@std@@YAPEAUBinding@vrc@@PEAU12@_K0@Z
	??$_Copy_nodes@$0A@@?$_Tree@V?$_Tmap_traits@V?$basic_string@DU?$char_traits@D@std@@V?$allocator@D@2@@std@@V?$basic_json@Vmap@std@@Vvector@2@V?$basic_string@DU?$char_traits@D@std@@V?$allocator@D@2@@2@_N_J_KNVallocator@2@Uadl_serializer@json_abi_v3_11_3@nlohmann@@V?$vector@EV?$allocator@E@std@@@2@X@json_abi_v3_11_3@nlohmann@@U?$less@X@2@V?$allocator@U?$pair@$$CBV?$basic_string@DU?$char_traits@D@std@@V?$allocator@D@2@@std@@V?$basic_json@Vmap@std@@Vvector@2@V?$basic_string@DU?$char_traits@D@std@@V?$allocator@D@2@@2@_N_J_KNVallocator@2@Uadl_serializer@json_abi_v3_11_3@nlohmann@@V?$vector@EV?$allocator@E@std@@@2@X@json_abi_v3_11_3@nlohmann@@@std@@@2@$0A@@std@@@std@@IEAAPEAU?$_Tree_node@U?$pair@$$CBV?$basic_string@DU?$char_traits@D@std@@V?$allocator@D@2@@std@@V?$basic_json@Vmap@std@@Vvector@2@V?$basic_string@DU?$char_traits@D@std@@V?$allocator@D@2@@2@_N_J_KNVallocator@2@Uadl_serializer@json_abi_v3_11_3@nlohmann@@V?$vector@EV?$allocator@E@std@@@2@X@json_abi_v3_11_3@nlohmann@@@std@@PEAX@1@PEAU21@0@Z
	??$_Copy_or_move@$0A@U?$pair@$$CBV?$basic_string@DU?$char_traits@D@std@@V?$allocator@D@2@@std@@V?$basic_json@Vmap@std@@Vvector@2@V?$basic_string@DU?$char_traits@D@std@@V?$allocator@D@2@@2@_N_J_KNVallocator@2@Uadl_serializer@json_abi_v3_11_3@nlohmann@@V?$vector@EV?$allocator@E@std@@@2@X@json_abi_v3_11_3@nlohmann@@@std@@@?$_Tree@V?$_Tmap_traits@V?$basic_string@DU?$char_traits@D@std@@V?$allocator@D@2@@std@@V?$basic_json@Vmap@std@@Vvector@2@V?$basic_string@DU?$char_traits@D@std@@V?$allocator@D@2@@2@_N_J_KNVallocator@2@Uadl_serializer@json_abi_v3_11_3@nlohmann@@V?$vector@EV?$allocator@E@std@@@2@X@json_abi_v3_11_3@nlohmann@@U?$less@X@2@V?$allocator@U?$pair@$$CBV?$basic_string@DU?$char_traits@D@std@@V?$allocator@D@2@@std@@V?$basic_json@Vmap@std@@Vvector@2@V?$basic_string@DU?$char_traits@D@std@@V?$allocator@D@2@@2@_N_J_KNVallocator@2@Uadl_serializer@json_abi_v3_11_3@nlohmann@@V?$vector@EV?$allocator@E@std@@@2@X@json_abi_v3_11_3@nlohmann@@@std@@@2@$0A@@std@@@std@@IEAAPEAU?$_Tree_node@U?$pair@$$CBV?$basic_string@DU?$char_traits@D@std@@V?$allocator@D@2@@std@@V?$basic_json@Vmap@std@@Vvector@2@V?$basic_string@DU?$char_traits@D@std@@V?$allocator@D@2@@2@_N_J_KNVallocator@2@Uadl_serializer@json_abi_v3_11_3@nlohmann@@V?$vector@EV?$allocator@E@std@@@2@X@json_abi_v3_11_3@nlohmann@@@std@@PEAX@1@AEAU?$pair@$$CBV?$basic_string@DU?$char_traits@D@std@@V?$allocator@D@2@@std@@V?$basic_json@Vmap@std@@Vvector@2@V?$basic_string@DU?$char_traits@D@std@@V?$allocator@D@2@@2@_N_J_KNVallocator@2@Uadl_serializer@json_abi_v3_11_3@nlohmann@@V?$vector@EV?$allocator@E@std@@@2@X@json_abi_v3_11_3@nlohmann@@@1@@Z
	??$_Copy_unchecked@PEADPEADV?$back_insert_iterator@V?$_Fmt_buffer@D@std@@@std@@@ranges@std@@YA?AU?$in_out_result@PEADV?$back_insert_iterator@V?$_Fmt_buffer@D@std@@@std@@@01@PEAD0V?$back_insert_iterator@V?$_Fmt_buffer@D@std@@@1@@Z
	??$_Copy_unchecked@PEBDPEBDPEAD@std@@YAPEADPEBD0PEAD@Z
	??$_Copy_unchecked@PEBDPEBDV?$back_insert_iterator@V?$_Fmt_buffer@D@std@@@std@@@ranges@std@@YA?AU?$in_out_result@PEBDV?$back_insert_iterator@V?$_Fmt_buffer@D@std@@@std@@@01@PEBD0V?$back_insert_iterator@V?$_Fmt_buffer@D@std@@@1@@Z
	??$_Copy_unchecked@V?$_Vb_iterator@U?$_Wrap_alloc@V?$allocator@I@std@@@std@@@std@@V12@V12@@std@@YA?AV?$_Vb_iterator@U?$_Wrap_alloc@V?$allocator@I@std@@@std@@@0@V10@00@Z
	??$_Copy_vbool@V?$_Vb_iterator@U?$_Wrap_alloc@V?$allocator@I@std@@@std@@@std@@V12@@std@@YA?AV?$_Vb_iterator@U?$_Wrap_alloc@V?$allocator@I@std@@@std@@@0@V10@00@Z
	??$_Could_compare_equal_to_value_type@PEADD@std@@YA_NAEBD@Z
	??$_Could_compare_equal_to_value_type@PEBDD@std@@YA_NAEBD@Z
	??$_Deallocate@$07@std@@YAXPEAX_K@Z
	??$_Deallocate@$0BA@@std@@YAXPEAX_K@Z
	??$_Deallocate_plain@V?$allocator@U_Container_proxy@std@@@std@@@std@@YAXAEAV?$allocator@U_Container_proxy@std@@@0@QEAU_Container_proxy@0@@Z
	??$_Delete_plain_internal@V?$allocator@U_Container_proxy@std@@@std@@@std@@YAXAEAV?$allocator@U_Container_proxy@std@@@0@QEAU_Container_proxy@0@@Z
	??$_Destroy_in_place@PEAD@std@@YAXAEAPEAD@Z
	??$_Destroy_in_place@PEAU?$_List_node@U?$pair@$$CBG_N@std@@PEAX@std@@@std@@YAXAEAPEAU?$_List_node@U?$pair@$$CBG_N@std@@PEAX@0@@Z
	??$_Destroy_in_place@PEAU?$_List_node@U?$pair@$$CBV?$basic_string@DU?$char_traits@D@std@@V?$allocator@D@2@@std@@UConfigProfile@vrc@@@std@@PEAX@std@@@std@@YAXAEAPEAU?$_List_node@U?$pair@$$CBV?$basic_string@DU?$char_traits@D@std@@V?$allocator@D@2@@std@@UConfigProfile@vrc@@@std@@PEAX@0@@Z
	??$_Destroy_in_place@PEAU?$_List_node@U?$pair@$$CBV?$basic_string@DU?$char_traits@D@std@@V?$allocator@D@2@@std@@UInputProfile@vrc@@@std@@PEAX@std@@@std@@YAXAEAPEAU?$_List_node@U?$pair@$$CBV?$basic_string@DU?$char_traits@D@std@@V?$allocator@D@2@@std@@UInputProfile@vrc@@@std@@PEAX@0@@Z
	??$_Destroy_in_place@PEAU?$_List_node@U?$pair@$$CBV?$basic_string@DU?$char_traits@D@std@@V?$allocator@D@2@@std@@V?$function@$$A6AXXZ@2@@std@@PEAX@std@@@std@@YAXAEAPEAU?$_List_node@U?$pair@$$CBV?$basic_string@DU?$char_traits@D@std@@V?$allocator@D@2@@std@@V?$function@$$A6AXXZ@2@@std@@PEAX@0@@Z
	??$_Destroy_in_place@PEAU?$_List_node@U?$pair@$$CBW4InputAction@vrc@@M@std@@PEAX@std@@@std@@YAXAEAPEAU?$_List_node@U?$pair@$$CBW4InputAction@vrc@@M@std@@PEAX@0@@Z
	??$_Destroy_in_place@PEAU?$_Tree_node@U?$pair@$$CBV?$basic_string@DU?$char_traits@D@std@@V?$allocator@D@2@@std@@V?$basic_json@Vmap@std@@Vvector@2@V?$basic_string@DU?$char_traits@D@std@@V?$allocator@D@2@@2@_N_J_KNVallocator@2@Uadl_serializer@json_abi_v3_11_3@nlohmann@@V?$vector@EV?$allocator@E@std@@@2@X@json_abi_v3_11_3@nlohmann@@@std@@PEAX@std@@@std@@YAXAEAPEAU?$_Tree_node@U?$pair@$$CBV?$basic_string@DU?$char_traits@D@std@@V?$allocator@D@2@@std@@V?$basic_json@Vmap@std@@Vvector@2@V?$basic_string@DU?$char_traits@D@std@@V?$allocator@D@2@@2@_N_J_KNVallocator@2@Uadl_serializer@json_abi_v3_11_3@nlohmann@@V?$vector@EV?$allocator@E@std@@@2@X@json_abi_v3_11_3@nlohmann@@@std@@PEAX@0@@Z
	??$_Destroy_in_place@PEAULatencySnapshot@vrc@@@std@@YAXAEAPEAULatencySnapshot@vrc@@@Z
	??$_Destroy_in_place@PEAUPerfSample@vrc@@@std@@YAXAEAPEAUPerfSample@vrc@@@Z
	??$_Destroy_in_place@PEAURotationSample@LatencyCompensator@vrc@@@std@@YAXAEAPEAURotationSample@LatencyCompensator@vrc@@@Z
	??$_Destroy_in_place@PEAUTrackingSample@vrc@@@std@@YAXAEAPEAUTrackingSample@vrc@@@Z
	??$_Destroy_in_place@PEA_W@std@@YAXAEAPEA_W@Z
	??$_Destroy_in_place@V?$_List_unchecked_iterator@V?$_List_val@U?$_List_simple_types@U?$pair@$$CBG_N@std@@@std@@@std@@@std@@@std@@YAXAEAV?$_List_unchecked_iterator@V?$_List_val@U?$_List_simple_types@U?$pair@$$CBG_N@std@@@std@@@std@@@0@@Z
	??$_Destroy_in_place@V?$_List_unchecked_iterator@V?$_List_val@U?$_List_simple_types@U?$pair@$$CBV?$basic_string@DU?$char_traits@D@std@@V?$allocator@D@2@@std@@UConfigProfile@vrc@@@std@@@std@@@std@@@std@@@std@@YAXAEAV?$_List_unchecked_iterator@V?$_List_val@U?$_List_simple_types@U?$pair@$$CBV?$basic_string@DU?$char_traits@D@std@@V?$allocator@D@2@@std@@UConfigProfile@vrc@@@std@@@std@@@std@@@0@@Z
	??$_Destroy_in_place@V?$_List_unchecked_iterator@V?$_List_val@U?$_List_simple_types@U?$pair@$$CBV?$basic_string@DU?$char_traits@D@std@@V?$allocator@D@2@@std@@UInputProfile@vrc@@@std@@@std@@@std@@@std@@@std@@YAXAEAV?$_List_unchecked_iterator@V?$_List_val@U?$_List_simple_types@U?$pair@$$CBV?$basic_string@DU?$char_traits@D@std@@V?$allocator@D@2@@std@@UInputProfile@vrc@@@std@@@std@@@std@@@0@@Z
	??$_Destroy_in_place@V?$_List_unchecked_iterator@V?$_List_val@U?$_List_simple_types@U?$pair@$$CBV?$basic_string@DU?$char_traits@D@std@@V?$allocator@D@2@@std@@V?$function@$$A6AXXZ@2@@std@@@std@@@std@@@std@@@std@@YAXAEAV?$_List_unchecked_iterator@V?$_List_val@U?$_List_simple_types@U?$pair@$$CBV?$basic_string@DU?$char_traits@D@std@@V?$allocator@D@2@@std@@V?$function@$$A6AXXZ@2@@std@@@std@@@std@@@0@@Z
	??$_Destroy_in_place@V?$_List_unchecked_iterator@V?$_List_val@U?$_List_simple_types@U?$pair@$$CBW4InputAction@vrc@@M@std@@@std@@@std@@@std@@@std@@YAXAEAV?$_List_unchecked_iterator@V?$_List_val@U?$_List_simple_types@U?$pair@$$CBW4InputAction@vrc@@M@std@@@std@@@std@@@0@@Z
	??$_Destroy_in_place@V?$output_string_adapter@DV?$basic_string@DU?$char_traits@D@std@@V?$allocator@D@2@@std@@@detail@json_abi_v3_11_3@nlohmann@@@std@@YAXAEAV?$output_string_adapter@DV?$basic_string@DU?$char_traits@D@std@@V?$allocator@D@2@@std@@@detail@json_abi_v3_11_3@nlohmann@@@Z
	??$_Destroy_range@PEAPEAULatencySnapshot@vrc@@PEAPEAU12@@std@@YAXPEAPEAULatencySnapshot@vrc@@QEAPEAU12@@Z
	??$_Destroy_range@PEAPEAUPerfSample@vrc@@PEAPEAU12@@std@@YAXPEAPEAUPerfSample@vrc@@QEAPEAU12@@Z
	??$_Destroy_range@PEAPEAURotationSample@LatencyCompensator@vrc@@PEAPEAU123@@std@@YAXPEAPEAURotationSample@LatencyCompensator@vrc@@QEAPEAU123@@Z
	??$_Destroy_range@PEAPEAUTrackingSample@vrc@@PEAPEAU12@@std@@YAXPEAPEAUTrackingSample@vrc@@QEAPEAU12@@Z
	??$_Destroy_range@PEAV?$_List_unchecked_iterator@V?$_List_val@U?$_List_simple_types@U?$pair@$$CBG_N@std@@@std@@@std@@@std@@PEAV12@@std@@YAXPEAV?$_List_unchecked_iterator@V?$_List_val@U?$_List_simple_types@U?$pair@$$CBG_N@std@@@std@@@std@@@0@QEAV10@@Z
	??$_Destroy_range@PEAV?$_List_unchecked_iterator@V?$_List_val@U?$_List_simple_types@U?$pair@$$CBV?$basic_string@DU?$char_traits@D@std@@V?$allocator@D@2@@std@@UConfigProfile@vrc@@@std@@@std@@@std@@@std@@PEAV12@@std@@YAXPEAV?$_List_unchecked_iterator@V?$_List_val@U?$_List_simple_types@U?$pair@$$CBV?$basic_string@DU?$char_traits@D@std@@V?$allocator@D@2@@std@@UConfigProfile@vrc@@@std@@@std@@@std@@@0@QEAV10@@Z
	??$_Destroy_range@PEAV?$_List_unchecked_iterator@V?$_List_val@U?$_List_simple_types@U?$pair@$$CBV?$basic_string@DU?$char_traits@D@std@@V?$allocator@D@2@@std@@UInputProfile@vrc@@@std@@@std@@@std@@@std@@PEAV12@@std@@YAXPEAV?$_List_unchecked_iterator@V?$_List_val@U?$_List_simple_types@U?$pair@$$CBV?$basic_string@DU?$char_traits@D@std@@V?$allocator@D@2@@std@@UInputProfile@vrc@@@std@@@std@@@std@@@0@QEAV10@@Z
	??$_Destroy_range@PEAV?$_List_unchecked_iterator@V?$_List_val@U?$_List_simple_types@U?$pair@$$CBV?$basic_string@DU?$char_traits@D@std@@V?$allocator@D@2@@std@@V?$function@$$A6AXXZ@2@@std@@@std@@@std@@@std@@PEAV12@@std@@YAXPEAV?$_List_unchecked_iterator@V?$_List_val@U?$_List_simple_types@U?$pair@$$CBV?$basic_string@DU?$char_traits@D@std@@V?$allocator@D@2@@std@@V?$function@$$A6AXXZ@2@@std@@@std@@@std@@@0@QEAV10@@Z
	??$_Destroy_range@PEAV?$_List_unchecked_iterator@V?$_List_val@U?$_List_simple_types@U?$pair@$$CBW4InputAction@vrc@@M@std@@@std@@@std@@@std@@PEAV12@@std@@YAXPEAV?$_List_unchecked_iterator@V?$_List_val@U?$_List_simple_types@U?$pair@$$CBW4InputAction@vrc@@M@std@@@std@@@std@@@0@QEAV10@@Z
	??$_Destroy_range@V?$allocator@D@std@@@std@@YAXPEADQEADAEAV?$allocator@D@0@@Z
	??$_Destroy_range@V?$allocator@E@std@@@std@@YAXPEAEQEAEAEAV?$allocator@E@0@@Z
	??$_Destroy_range@V?$allocator@I@std@@@std@@YAXPEAIQEAIAEAV?$allocator@I@0@@Z
	??$_Destroy_range@V?$allocator@N@std@@@std@@YAXPEANQEANAEAV?$allocator@N@0@@Z
	??$_Destroy_range@V?$allocator@PEAV?$basic_json@Vmap@std@@Vvector@2@V?$basic_string@DU?$char_traits@D@std@@V?$allocator@D@2@@2@_N_J_KNVallocator@2@Uadl_serializer@json_abi_v3_11_3@nlohmann@@V?$vector@EV?$allocator@E@std@@@2@X@json_abi_v3_11_3@nlohmann@@@std@@@std@@YAXPEAPEAV?$basic_json@Vmap@std@@Vvector@2@V?$basic_string@DU?$char_traits@D@std@@V?$allocator@D@2@@2@_N_J_KNVallocator@2@Uadl_serializer@json_abi_v3_11_3@nlohmann@@V?$vector@EV?$allocator@E@std@@@2@X@json_abi_v3_11_3@nlohmann@@QEAPEAV123@AEAV?$allocator@PEAV?$basic_json@Vmap@std@@Vvector@2@V?$basic_string@DU?$char_traits@D@std@@V?$allocator@D@2@@2@_N_J_KNVallocator@2@Uadl_serializer@json_abi_v3_11_3@nlohmann@@V?$vector@EV?$allocator@E@std@@@2@X@json_abi_v3_11_3@nlohmann@@@0@@Z
	??$_Destroy_range@V?$allocator@PEAX@std@@@std@@YAXPEAPEAXQEAPEAXAEAV?$allocator@PEAX@0@@Z
	??$_Destroy_range@V?$allocator@PEBD@std@@@std@@YAXPEAPEBDQEAPEBDAEAV?$allocator@PEBD@0@@Z
	??$_Destroy_range@V?$allocator@U?$pair@PEAXP6AJPEAUIDXGISwapChain@@II@Z@std@@@std@@@std@@YAXPEAU?$pair@PEAXP6AJPEAUIDXGISwapChain@@II@Z@0@QEAU10@AEAV?$allocator@U?$pair@PEAXP6AJPEAUIDXGISwapChain@@II@Z@std@@@0@@Z
	??$_Destroy_range@V?$allocator@UBinding@vrc@@@std@@@std@@YAXPEAUBinding@vrc@@QEAU12@AEAV?$allocator@UBinding@vrc@@@0@@Z
	??$_Destroy_range@V?$allocator@UD3D12_CPU_DESCRIPTOR_HANDLE@@@std@@@std@@YAXPEAUD3D12_CPU_DESCRIPTOR_HANDLE@@QEAU1@AEAV?$allocator@UD3D12_CPU_DESCRIPTOR_HANDLE@@@0@@Z
	??$_Destroy_range@V?$allocator@UXrActionSuggestedBinding@@@std@@@std@@YAXPEAUXrActionSuggestedBinding@@QEAU1@AEAV?$allocator@UXrActionSuggestedBinding@@@0@@Z
	??$_Destroy_range@V?$allocator@UXrExtensionProperties@@@std@@@std@@YAXPEAUXrExtensionProperties@@QEAU1@AEAV?$allocator@UXrExtensionProperties@@@0@@Z
	??$_Destroy_range@V?$allocator@UXrSwapchainImageD3D11KHR@@@std@@@std@@YAXPEAUXrSwapchainImageD3D11KHR@@QEAU1@AEAV?$allocator@UXrSwapchainImageD3D11KHR@@@0@@Z
	??$_Destroy_range@V?$allocator@UXrSwapchainImageD3D12KHR@@@std@@@std@@YAXPEAUXrSwapchainImageD3D12KHR@@QEAU1@AEAV?$allocator@UXrSwapchainImageD3D12KHR@@@0@@Z
	??$_Destroy_range@V?$allocator@UXrViewConfigurationView@@@std@@@std@@YAXPEAUXrViewConfigurationView@@QEAU1@AEAV?$allocator@UXrViewConfigurationView@@@0@@Z
	??$_Destroy_range@V?$allocator@V?$basic_json@Vmap@std@@Vvector@2@V?$basic_string@DU?$char_traits@D@std@@V?$allocator@D@2@@2@_N_J_KNVallocator@2@Uadl_serializer@json_abi_v3_11_3@nlohmann@@V?$vector@EV?$allocator@E@std@@@2@X@json_abi_v3_11_3@nlohmann@@@std@@@std@@YAXPEAV?$basic_json@Vmap@std@@Vvector@2@V?$basic_string@DU?$char_traits@D@std@@V?$allocator@D@2@@2@_N_J_KNVallocator@2@Uadl_serializer@json_abi_v3_11_3@nlohmann@@V?$vector@EV?$allocator@E@std@@@2@X@json_abi_v3_11_3@nlohmann@@QEAV123@AEAV?$allocator@V?$basic_json@Vmap@std@@Vvector@2@V?$basic_string@DU?$char_traits@D@std@@V?$allocator@D@2@@2@_N_J_KNVallocator@2@Uadl_serializer@json_abi_v3_11_3@nlohmann@@V?$vector@EV?$allocator@E@std@@@2@X@json_abi_v3_11_3@nlohmann@@@0@@Z
	??$_Destroy_range@V?$allocator@V?$basic_string@DU?$char_traits@D@std@@V?$allocator@D@2@@std@@@std@@@std@@YAXPEAV?$basic_string@DU?$char_traits@D@std@@V?$allocator@D@2@@0@QEAV10@AEAV?$allocator@V?$basic_string@DU?$char_traits@D@std@@V?$allocator@D@2@@std@@@0@@Z
	??$_Emplace@V?$basic_string@DU?$char_traits@D@std@@V?$allocator@D@2@@std@@$$T@?$_Tree@V?$_Tmap_traits@V?$basic_string@DU?$char_traits@D@std@@V?$allocator@D@2@@std@@V?$basic_json@Vmap@std@@Vvector@2@V?$basic_string@DU?$char_traits@D@std@@V?$allocator@D@2@@2@_N_J_KNVallocator@2@Uadl_serializer@json_abi_v3_11_3@nlohmann@@V?$vector@EV?$allocator@E@std@@@2@X@json_abi_v3_11_3@nlohmann@@U?$less@X@2@V?$allocator@U?$pair@$$CBV?$basic_string@DU?$char_traits@D@std@@V?$allocator@D@2@@std@@V?$basic_json@Vmap@std@@Vvector@2@V?$basic_string@DU?$char_traits@D@std@@V?$allocator@D@2@@2@_N_J_KNVallocator@2@Uadl_serializer@json_abi_v3_11_3@nlohmann@@V?$vector@EV?$allocator@E@std@@@2@X@json_abi_v3_11_3@nlohmann@@@std@@@2@$0A@@std@@@std@@IEAA?AU?$pair@PEAU?$_Tree_node@U?$pair@$$CBV?$basic_string@DU?$char_traits@D@std@@V?$allocator@D@2@@std@@V?$basic_json@Vmap@std@@Vvector@2@V?$basic_string@DU?$char_traits@D@std@@V?$allocator@D@2@@2@_N_J_KNVallocator@2@Uadl_serializer@json_abi_v3_11_3@nlohmann@@V?$vector@EV?$allocator@E@std@@@2@X@json_abi_v3_11_3@nlohmann@@@std@@PEAX@std@@_N@1@$$QEAV?$basic_string@DU?$char_traits@D@std@@V?$allocator@D@2@@1@$$QEA$$T@Z
	??$_Emplace@V?$basic_string@DU?$char_traits@D@std@@V?$allocator@D@2@@std@@V?$basic_json@Vmap@std@@Vvector@2@V?$basic_string@DU?$char_traits@D@std@@V?$allocator@D@2@@2@_N_J_KNVallocator@2@Uadl_serializer@json_abi_v3_11_3@nlohmann@@V?$vector@EV?$allocator@E@std@@@2@X@json_abi_v3_11_3@nlohmann@@@?$_Tree@V?$_Tmap_traits@V?$basic_string@DU?$char_traits@D@std@@V?$allocator@D@2@@std@@V?$basic_json@Vmap@std@@Vvector@2@V?$basic_string@DU?$char_traits@D@std@@V?$allocator@D@2@@2@_N_J_KNVallocator@2@Uadl_serializer@json_abi_v3_11_3@nlohmann@@V?$vector@EV?$allocator@E@std@@@2@X@json_abi_v3_11_3@nlohmann@@U?$less@X@2@V?$allocator@U?$pair@$$CBV?$basic_string@DU?$char_traits@D@std@@V?$allocator@D@2@@std@@V?$basic_json@Vmap@std@@Vvector@2@V?$basic_string@DU?$char_traits@D@std@@V?$allocator@D@2@@2@_N_J_KNVallocator@2@Uadl_serializer@json_abi_v3_11_3@nlohmann@@V?$vector@EV?$allocator@E@std@@@2@X@json_abi_v3_11_3@nlohmann@@@std@@@2@$0A@@std@@@std@@IEAA?AU?$pair@PEAU?$_Tree_node@U?$pair@$$CBV?$basic_string@DU?$char_traits@D@std@@V?$allocator@D@2@@std@@V?$basic_json@Vmap@std@@Vvector@2@V?$basic_string@DU?$char_traits@D@std@@V?$allocator@D@2@@2@_N_J_KNVallocator@2@Uadl_serializer@json_abi_v3_11_3@nlohmann@@V?$vector@EV?$allocator@E@std@@@2@X@json_abi_v3_11_3@nlohmann@@@std@@PEAX@std@@_N@1@$$QEAV?$basic_string@DU?$char_traits@D@std@@V?$allocator@D@2@@1@$$QEAV?$basic_json@Vmap@std@@Vvector@2@V?$basic_string@DU?$char_traits@D@std@@V?$allocator@D@2@@2@_N_J_KNVallocator@2@Uadl_serializer@json_abi_v3_11_3@nlohmann@@V?$vector@EV?$allocator@E@std@@@2@X@json_abi_v3_11_3@nlohmann@@@Z
	??$_Emplace_back@AEAE@?$_Uninitialized_backout_al@V?$allocator@E@std@@@std@@QEAAXAEAE@Z
	??$_Emplace_back@AEAUBinding@vrc@@@?$_Uninitialized_backout_al@V?$allocator@UBinding@vrc@@@std@@@std@@QEAAXAEAUBinding@vrc@@@Z
	??$_Emplace_back@AEAV?$basic_json@Vmap@std@@Vvector@2@V?$basic_string@DU?$char_traits@D@std@@V?$allocator@D@2@@2@_N_J_KNVallocator@2@Uadl_serializer@json_abi_v3_11_3@nlohmann@@V?$vector@EV?$allocator@E@std@@@2@X@json_abi_v3_11_3@nlohmann@@@?$_Uninitialized_backout_al@V?$allocator@V?$basic_json@Vmap@std@@Vvector@2@V?$basic_string@DU?$char_traits@D@std@@V?$allocator@D@2@@2@_N_J_KNVallocator@2@Uadl_serializer@json_abi_v3_11_3@nlohmann@@V?$vector@EV?$allocator@E@std@@@2@X@json_abi_v3_11_3@nlohmann@@@std@@@std@@QEAAXAEAV?$basic_json@Vmap@std@@Vvector@2@V?$basic_string@DU?$char_traits@D@std@@V?$allocator@D@2@@2@_N_J_KNVallocator@2@Uadl_serializer@json_abi_v3_11_3@nlohmann@@V?$vector@EV?$allocator@E@std@@@2@X@json_abi_v3_11_3@nlohmann@@@Z
	??$_Emplace_back@AEBI@?$_Uninitialized_backout_al@V?$allocator@I@std@@@std@@QEAAXAEBI@Z
	??$_Emplace_back@AEBUXrExtensionProperties@@@?$_Uninitialized_backout_al@V?$allocator@UXrExtensionProperties@@@std@@@std@@QEAAXAEBUXrExtensionProperties@@@Z
	??$_Emplace_back@AEBUXrSwapchainImageD3D11KHR@@@?$_Uninitialized_backout_al@V?$allocator@UXrSwapchainImageD3D11KHR@@@std@@@std@@QEAAXAEBUXrSwapchainImageD3D11KHR@@@Z
	??$_Emplace_back@AEBUXrSwapchainImageD3D12KHR@@@?$_Uninitialized_backout_al@V?$allocator@UXrSwapchainImageD3D12KHR@@@std@@@std@@QEAAXAEBUXrSwapchainImageD3D12KHR@@@Z
	??$_Emplace_back@AEBUXrViewConfigurationView@@@?$_Uninitialized_backout_al@V?$allocator@UXrViewConfigurationView@@@std@@@std@@QEAAXAEBUXrViewConfigurationView@@@Z
	??$_Emplace_back@AEBV?$_List_unchecked_iterator@V?$_List_val@U?$_List_simple_types@U?$pair@$$CBG_N@std@@@std@@@std@@@std@@@?$_Uninitialized_backout@PEAV?$_List_unchecked_iterator@V?$_List_val@U?$_List_simple_types@U?$pair@$$CBG_N@std@@@std@@@std@@@std@@@std@@QEAAXAEBV?$_List_unchecked_iterator@V?$_List_val@U?$_List_simple_types@U?$pair@$$CBG_N@std@@@std@@@std@@@1@@Z
	??$_Emplace_back@AEBV?$_List_unchecked_iterator@V?$_List_val@U?$_List_simple_types@U?$pair@$$CBV?$basic_string@DU?$char_traits@D@std@@V?$allocator@D@2@@std@@UConfigProfile@vrc@@@std@@@std@@@std@@@std@@@?$_Uninitialized_backout@PEAV?$_List_unchecked_iterator@V?$_List_val@U?$_List_simple_types@U?$pair@$$CBV?$basic_string@DU?$char_traits@D@std@@V?$allocator@D@2@@std@@UConfigProfile@vrc@@@std@@@std@@@std@@@std@@@std@@QEAAXAEBV?$_List_unchecked_iterator@V?$_List_val@U?$_List_simple_types@U?$pair@$$CBV?$basic_string@DU?$char_traits@D@std@@V?$allocator@D@2@@std@@UConfigProfile@vrc@@@std@@@std@@@std@@@1@@Z
	??$_Emplace_back@AEBV?$_List_unchecked_iterator@V?$_List_val@U?$_List_simple_types@U?$pair@$$CBV?$basic_string@DU?$char_traits@D@std@@V?$allocator@D@2@@std@@UInputProfile@vrc@@@std@@@std@@@std@@@std@@@?$_Uninitialized_backout@PEAV?$_List_unchecked_iterator@V?$_List_val@U?$_List_simple_types@U?$pair@$$CBV?$basic_string@DU?$char_traits@D@std@@V?$allocator@D@2@@std@@UInputProfile@vrc@@@std@@@std@@@std@@@std@@@std@@QEAAXAEBV?$_List_unchecked_iterator@V?$_List_val@U?$_List_simple_types@U?$pair@$$CBV?$basic_string@DU?$char_traits@D@std@@V?$allocator@D@2@@std@@UInputProfile@vrc@@@std@@@std@@@std@@@1@@Z
	??$_Emplace_back@AEBV?$_List_unchecked_iterator@V?$_List_val@U?$_List_simple_types@U?$pair@$$CBV?$basic_string@DU?$char_traits@D@std@@V?$allocator@D@2@@std@@V?$function@$$A6AXXZ@2@@std@@@std@@@std@@@std@@@?$_Uninitialized_backout@PEAV?$_List_unchecked_iterator@V?$_List_val@U?$_List_simple_types@U?$pair@$$CBV?$basic_string@DU?$char_traits@D@std@@V?$allocator@D@2@@std@@V?$function@$$A6AXXZ@2@@std@@@std@@@std@@@std@@@std@@QEAAXAEBV?$_List_unchecked_iterator@V?$_List_val@U?$_List_simple_types@U?$pair@$$CBV?$basic_string@DU?$char_traits@D@std@@V?$allocator@D@2@@std@@V?$function@$$A6AXXZ@2@@std@@@std@@@std@@@1@@Z
	??$_Emplace_back@AEBV?$_List_unchecked_iterator@V?$_List_val@U?$_List_simple_types@U?$pair@$$CBW4InputAction@vrc@@M@std@@@std@@@std@@@std@@@?$_Uninitialized_backout@PEAV?$_List_unchecked_iterator@V?$_List_val@U?$_List_simple_types@U?$pair@$$CBW4InputAction@vrc@@M@std@@@std@@@std@@@std@@@std@@QEAAXAEBV?$_List_unchecked_iterator@V?$_List_val@U?$_List_simple_types@U?$pair@$$CBW4InputAction@vrc@@M@std@@@std@@@std@@@1@@Z
	??$_Emplace_back@AEBV?$json_ref@V?$basic_json@Vmap@std@@Vvector@2@V?$basic_string@DU?$char_traits@D@std@@V?$allocator@D@2@@2@_N_J_KNVallocator@2@Uadl_serializer@json_abi_v3_11_3@nlohmann@@V?$vector@EV?$allocator@E@std@@@2@X@json_abi_v3_11_3@nlohmann@@@detail@json_abi_v3_11_3@nlohmann@@@?$_Uninitialized_backout_al@V?$allocator@V?$basic_json@Vmap@std@@Vvector@2@V?$basic_string@DU?$char_traits@D@std@@V?$allocator@D@2@@2@_N_J_KNVallocator@2@Uadl_serializer@json_abi_v3_11_3@nlohmann@@V?$vector@EV?$allocator@E@std@@@2@X@json_abi_v3_11_3@nlohmann@@@std@@@std@@QEAAXAEBV?$json_ref@V?$basic_json@Vmap@std@@Vvector@2@V?$basic_string@DU?$char_traits@D@std@@V?$allocator@D@2@@2@_N_J_KNVallocator@2@Uadl_serializer@json_abi_v3_11_3@nlohmann@@V?$vector@EV?$allocator@E@std@@@2@X@json_abi_v3_11_3@nlohmann@@@detail@json_abi_v3_11_3@nlohmann@@@Z
	??$_Emplace_back@D@?$_Uninitialized_backout_al@V?$allocator@D@std@@@std@@QEAAX$$QEAD@Z
	??$_Emplace_back@I@?$_Uninitialized_backout_al@V?$allocator@I@std@@@std@@QEAAX$$QEAI@Z
	??$_Emplace_back@N@?$_Uninitialized_backout_al@V?$allocator@N@std@@@std@@QEAAX$$QEAN@Z
	??$_Emplace_back@PEAV?$basic_json@Vmap@std@@Vvector@2@V?$basic_string@DU?$char_traits@D@std@@V?$allocator@D@2@@2@_N_J_KNVallocator@2@Uadl_serializer@json_abi_v3_11_3@nlohmann@@V?$vector@EV?$allocator@E@std@@@2@X@json_abi_v3_11_3@nlohmann@@@?$_Uninitialized_backout_al@V?$allocator@PEAV?$basic_json@Vmap@std@@Vvector@2@V?$basic_string@DU?$char_traits@D@std@@V?$allocator@D@2@@2@_N_J_KNVallocator@2@Uadl_serializer@json_abi_v3_11_3@nlohmann@@V?$vector@EV?$allocator@E@std@@@2@X@json_abi_v3_11_3@nlohmann@@@std@@@std@@QEAAX$$QEAPEAV?$basic_json@Vmap@std@@Vvector@2@V?$basic_string@DU?$char_traits@D@std@@V?$allocator@D@2@@2@_N_J_KNVallocator@2@Uadl_serializer@json_abi_v3_11_3@nlohmann@@V?$vector@EV?$allocator@E@std@@@2@X@json_abi_v3_11_3@nlohmann@@@Z
	??$_Emplace_back@PEAX@?$_Uninitialized_backout_al@V?$allocator@PEAX@std@@@std@@QEAAX$$QEAPEAX@Z
	??$_Emplace_back@PEBD@?$_Uninitialized_backout_al@V?$allocator@PEBD@std@@@std@@QEAAX$$QEAPEBD@Z
	??$_Emplace_back@U?$pair@PEAXP6AJPEAUIDXGISwapChain@@II@Z@std@@@?$_Uninitialized_backout_al@V?$allocator@U?$pair@PEAXP6AJPEAUIDXGISwapChain@@II@Z@std@@@std@@@std@@QEAAX$$QEAU?$pair@PEAXP6AJPEAUIDXGISwapChain@@II@Z@1@@Z
	??$_Emplace_back@UBinding@vrc@@@?$_Uninitialized_backout_al@V?$allocator@UBinding@vrc@@@std@@@std@@QEAAX$$QEAUBinding@vrc@@@Z
	??$_Emplace_back@UD3D12_CPU_DESCRIPTOR_HANDLE@@@?$_Uninitialized_backout_al@V?$allocator@UD3D12_CPU_DESCRIPTOR_HANDLE@@@std@@@std@@QEAAX$$QEAUD3D12_CPU_DESCRIPTOR_HANDLE@@@Z
	??$_Emplace_back@UXrActionSuggestedBinding@@@?$_Uninitialized_backout_al@V?$allocator@UXrActionSuggestedBinding@@@std@@@std@@QEAAX$$QEAUXrActionSuggestedBinding@@@Z
	??$_Emplace_back@UXrSwapchainImageD3D11KHR@@@?$_Uninitialized_backout_al@V?$allocator@UXrSwapchainImageD3D11KHR@@@std@@@std@@QEAAX$$QEAUXrSwapchainImageD3D11KHR@@@Z
	??$_Emplace_back@UXrSwapchainImageD3D12KHR@@@?$_Uninitialized_backout_al@V?$allocator@UXrSwapchainImageD3D12KHR@@@std@@@std@@QEAAX$$QEAUXrSwapchainImageD3D12KHR@@@Z
	??$_Emplace_back@V?$basic_json@Vmap@std@@Vvector@2@V?$basic_string@DU?$char_traits@D@std@@V?$allocator@D@2@@2@_N_J_KNVallocator@2@Uadl_serializer@json_abi_v3_11_3@nlohmann@@V?$vector@EV?$allocator@E@std@@@2@X@json_abi_v3_11_3@nlohmann@@@?$_Uninitialized_backout_al@V?$allocator@V?$basic_json@Vmap@std@@Vvector@2@V?$basic_string@DU?$char_traits@D@std@@V?$allocator@D@2@@2@_N_J_KNVallocator@2@Uadl_serializer@json_abi_v3_11_3@nlohmann@@V?$vector@EV?$allocator@E@std@@@2@X@json_abi_v3_11_3@nlohmann@@@std@@@std@@QEAAX$$QEAV?$basic_json@Vmap@std@@Vvector@2@V?$basic_string@DU?$char_traits@D@std@@V?$allocator@D@2@@2@_N_J_KNVallocator@2@Uadl_serializer@json_abi_v3_11_3@nlohmann@@V?$vector@EV?$allocator@E@std@@@2@X@json_abi_v3_11_3@nlohmann@@@Z
	??$_Emplace_back@V?$basic_string@DU?$char_traits@D@std@@V?$allocator@D@2@@std@@@?$_Uninitialized_backout_al@V?$allocator@V?$basic_string@DU?$char_traits@D@std@@V?$allocator@D@2@@std@@@std@@@std@@QEAAX$$QEAV?$basic_string@DU?$char_traits@D@std@@V?$allocator@D@2@@1@@Z
	??$_Emplace_back_deref@PEAPEAULatencySnapshot@vrc@@@?$_Uninitialized_backout@PEAPEAULatencySnapshot@vrc@@@std@@QEAAXAEAPEAPEAULatencySnapshot@vrc@@@Z
	??$_Emplace_back_deref@PEAPEAUPerfSample@vrc@@@?$_Uninitialized_backout@PEAPEAUPerfSample@vrc@@@std@@QEAAXAEAPEAPEAUPerfSample@vrc@@@Z
	??$_Emplace_back_deref@PEAPEAURotationSample@LatencyCompensator@vrc@@@?$_Uninitialized_backout@PEAPEAURotationSample@LatencyCompensator@vrc@@@std@@QEAAXAEAPEAPEAURotationSample@LatencyCompensator@vrc@@@Z
	??$_Emplace_back_deref@PEAPEAUTrackingSample@vrc@@@?$_Uninitialized_backout@PEAPEAUTrackingSample@vrc@@@std@@QEAAXAEAPEAPEAUTrackingSample@vrc@@@Z
	??$_Emplace_back_internal@AEBULatencySnapshot@vrc@@@?$deque@ULatencySnapshot@vrc@@V?$allocator@ULatencySnapshot@vrc@@@std@@@std@@AEAAXAEBULatencySnapshot@vrc@@@Z
	??$_Emplace_back_internal@AEBUPerfSample@vrc@@@?$deque@UPerfSample@vrc@@V?$allocator@UPerfSample@vrc@@@std@@@std@@AEAAXAEBUPerfSample@vrc@@@Z
	??$_Emplace_back_internal@AEBUTrackingSample@vrc@@@?$deque@UTrackingSample@vrc@@V?$allocator@UTrackingSample@vrc@@@std@@@std@@AEAAXAEBUTrackingSample@vrc@@@Z
	??$_Emplace_back_internal@URotationSample@LatencyCompensator@vrc@@@?$deque@URotationSample@LatencyCompensator@vrc@@V?$allocator@URotationSample@LatencyCompensator@vrc@@@std@@@std@@AEAAX$$QEAURotationSample@LatencyCompensator@vrc@@@Z
	??$_Emplace_back_with_unused_capacity@$$T@?$vector@V?$basic_json@Vmap@std@@Vvector@2@V?$basic_string@DU?$char_traits@D@std@@V?$allocator@D@2@@2@_N_J_KNVallocator@2@Uadl_serializer@json_abi_v3_11_3@nlohmann@@V?$vector@EV?$allocator@E@std@@@2@X@json_abi_v3_11_3@nlohmann@@V?$allocator@V?$basic_json@Vmap@std@@Vvector@2@V?$basic_string@DU?$char_traits@D@std@@V?$allocator@D@2@@2@_N_J_KNVallocator@2@Uadl_serializer@json_abi_v3_11_3@nlohmann@@V?$vector@EV?$allocator@E@std@@@2@X@json_abi_v3_11_3@nlohmann@@@std@@@std@@AEAAAEAV?$basic_json@Vmap@std@@Vvector@2@V?$basic_string@DU?$char_traits@D@std@@V?$allocator@D@2@@2@_N_J_KNVallocator@2@Uadl_serializer@json_abi_v3_11_3@nlohmann@@V?$vector@EV?$allocator@E@std@@@2@X@json_abi_v3_11_3@nlohmann@@$$QEA$$T@Z
	??$_Emplace_back_with_unused_capacity@AEAN@?$vector@V?$basic_json@Vmap@std@@Vvector@2@V?$basic_string@DU?$char_traits@D@std@@V?$allocator@D@2@@2@_N_J_KNVallocator@2@Uadl_serializer@json_abi_v3_11_3@nlohmann@@V?$vector@EV?$allocator@E@std@@@2@X@json_abi_v3_11_3@nlohmann@@V?$allocator@V?$basic_json@Vmap@std@@Vvector@2@V?$basic_string@DU?$char_traits@D@std@@V?$allocator@D@2@@2@_N_J_KNVallocator@2@Uadl_serializer@json_abi_v3_11_3@nlohmann@@V?$vector@EV?$allocator@E@std@@@2@X@json_abi_v3_11_3@nlohmann@@@std@@@std@@AEAAAEAV?$basic_json@Vmap@std@@Vvector@2@V?$basic_string@DU?$char_traits@D@std@@V?$allocator@D@2@@2@_N_J_KNVallocator@2@Uadl_serializer@json_abi_v3_11_3@nlohmann@@V?$vector@EV?$allocator@E@std@@@2@X@json_abi_v3_11_3@nlohmann@@AEAN@Z
	??$_Emplace_back_with_unused_capacity@AEAV?$basic_string@DU?$char_traits@D@std@@V?$allocator@D@2@@std@@@?$vector@V?$basic_json@Vmap@std@@Vvector@2@V?$basic_string@DU?$char_traits@D@std@@V?$allocator@D@2@@2@_N_J_KNVallocator@2@Uadl_serializer@json_abi_v3_11_3@nlohmann@@V?$vector@EV?$allocator@E@std@@@2@X@json_abi_v3_11_3@nlohmann@@V?$allocator@V?$basic_json@Vmap@std@@Vvector@2@V?$basic_string@DU?$char_traits@D@std@@V?$allocator@D@2@@2@_N_J_KNVallocator@2@Uadl_serializer@json_abi_v3_11_3@nlohmann@@V?$vector@EV?$allocator@E@std@@@2@X@json_abi_v3_11_3@nlohmann@@@std@@@std@@AEAAAEAV?$basic_json@Vmap@std@@Vvector@2@V?$basic_string@DU?$char_traits@D@std@@V?$allocator@D@2@@2@_N_J_KNVallocator@2@Uadl_serializer@json_abi_v3_11_3@nlohmann@@V?$vector@EV?$allocator@E@std@@@2@X@json_abi_v3_11_3@nlohmann@@AEAV?$basic_string@DU?$char_traits@D@std@@V?$allocator@D@2@@1@@Z
	??$_Emplace_back_with_unused_capacity@AEA_J@?$vector@V?$basic_json@Vmap@std@@Vvector@2@V?$basic_string@DU?$char_traits@D@std@@V?$allocator@D@2@@2@_N_J_KNVallocator@2@Uadl_serializer@json_abi_v3_11_3@nlohmann@@V?$vector@EV?$allocator@E@std@@@2@X@json_abi_v3_11_3@nlohmann@@V?$allocator@V?$basic_json@Vmap@std@@Vvector@2@V?$basic_string@DU?$char_traits@D@std@@V?$allocator@D@2@@2@_N_J_KNVallocator@2@Uadl_serializer@json_abi_v3_11_3@nlohmann@@V?$vector@EV?$allocator@E@std@@@2@X@json_abi_v3_11_3@nlohmann@@@std@@@std@@AEAAAEAV?$basic_json@Vmap@std@@Vvector@2@V?$basic_string@DU?$char_traits@D@std@@V?$allocator@D@2@@2@_N_J_KNVallocator@2@Uadl_serializer@json_abi_v3_11_3@nlohmann@@V?$vector@EV?$allocator@E@std@@@2@X@json_abi_v3_11_3@nlohmann@@AEA_J@Z
	??$_Emplace_back_with_unused_capacity@AEA_K@?$vector@V?$basic_json@Vmap@std@@Vvector@2@V?$basic_string@DU?$char_traits@D@std@@V?$allocator@D@2@@2@_N_J_KNVallocator@2@Uadl_serializer@json_abi_v3_11_3@nlohmann@@V?$vector@EV?$allocator@E@std@@@2@X@json_abi_v3_11_3@nlohmann@@V?$allocator@V?$basic_json@Vmap@std@@Vvector@2@V?$basic_string@DU?$char_traits@D@std@@V?$allocator@D@2@@2@_N_J_KNVallocator@2@Uadl_serializer@json_abi_v3_11_3@nlohmann@@V?$vector@EV?$allocator@E@std@@@2@X@json_abi_v3_11_3@nlohmann@@@std@@@std@@AEAAAEAV?$basic_json@Vmap@std@@Vvector@2@V?$basic_string@DU?$char_traits@D@std@@V?$allocator@D@2@@2@_N_J_KNVallocator@2@Uadl_serializer@json_abi_v3_11_3@nlohmann@@V?$vector@EV?$allocator@E@std@@@2@X@json_abi_v3_11_3@nlohmann@@AEA_K@Z
	??$_Emplace_back_with_unused_capacity@AEA_N@?$vector@V?$basic_json@Vmap@std@@Vvector@2@V?$basic_string@DU?$char_traits@D@std@@V?$allocator@D@2@@2@_N_J_KNVallocator@2@Uadl_serializer@json_abi_v3_11_3@nlohmann@@V?$vector@EV?$allocator@E@std@@@2@X@json_abi_v3_11_3@nlohmann@@V?$allocator@V?$basic_json@Vmap@std@@Vvector@2@V?$basic_string@DU?$char_traits@D@std@@V?$allocator@D@2@@2@_N_J_KNVallocator@2@Uadl_serializer@json_abi_v3_11_3@nlohmann@@V?$vector@EV?$allocator@E@std@@@2@X@json_abi_v3_11_3@nlohmann@@@std@@@std@@AEAAAEAV?$basic_json@Vmap@std@@Vvector@2@V?$basic_string@DU?$char_traits@D@std@@V?$allocator@D@2@@2@_N_J_KNVallocator@2@Uadl_serializer@json_abi_v3_11_3@nlohmann@@V?$vector@EV?$allocator@E@std@@@2@X@json_abi_v3_11_3@nlohmann@@AEA_N@Z
	??$_Emplace_back_with_unused_capacity@AEBN@?$vector@NV?$allocator@N@std@@@std@@AEAAAEANAEBN@Z
	??$_Emplace_back_with_unused_capacity@AEBQEAV?$basic_json@Vmap@std@@Vvector@2@V?$basic_string@DU?$char_traits@D@std@@V?$allocator@D@2@@2@_N_J_KNVallocator@2@Uadl_serializer@json_abi_v3_11_3@nlohmann@@V?$vector@EV?$allocator@E@std@@@2@X@json_abi_v3_11_3@nlohmann@@@?$vector@PEAV?$basic_json@Vmap@std@@Vvector@2@V?$basic_string@DU?$char_traits@D@std@@V?$allocator@D@2@@2@_N_J_KNVallocator@2@Uadl_serializer@json_abi_v3_11_3@nlohmann@@V?$vector@EV?$allocator@E@std@@@2@X@json_abi_v3_11_3@nlohmann@@V?$allocator@PEAV?$basic_json@Vmap@std@@Vvector@2@V?$basic_string@DU?$char_traits@D@std@@V?$allocator@D@2@@2@_N_J_KNVallocator@2@Uadl_serializer@json_abi_v3_11_3@nlohmann@@V?$vector@EV?$allocator@E@std@@@2@X@json_abi_v3_11_3@nlohmann@@@std@@@std@@AEAAAEAPEAV?$basic_json@Vmap@std@@Vvector@2@V?$basic_string@DU?$char_traits@D@std@@V?$allocator@D@2@@2@_N_J_KNVallocator@2@Uadl_serializer@json_abi_v3_11_3@nlohmann@@V?$vector@EV?$allocator@E@std@@@2@X@json_abi_v3_11_3@nlohmann@@AEBQEAV234@@Z
	??$_Emplace_back_with_unused_capacity@AEBUBinding@vrc@@@?$vector@UBinding@vrc@@V?$allocator@UBinding@vrc@@@std@@@std@@AEAAAEAUBinding@vrc@@AEBU23@@Z
	??$_Emplace_back_with_unused_capacity@AEBUD3D12_CPU_DESCRIPTOR_HANDLE@@@?$vector@UD3D12_CPU_DESCRIPTOR_HANDLE@@V?$allocator@UD3D12_CPU_DESCRIPTOR_HANDLE@@@std@@@std@@AEAAAEAUD3D12_CPU_DESCRIPTOR_HANDLE@@AEBU2@@Z
	??$_Emplace_back_with_unused_capacity@AEBV?$basic_json@Vmap@std@@Vvector@2@V?$basic_string@DU?$char_traits@D@std@@V?$allocator@D@2@@2@_N_J_KNVallocator@2@Uadl_serializer@json_abi_v3_11_3@nlohmann@@V?$vector@EV?$allocator@E@std@@@2@X@json_abi_v3_11_3@nlohmann@@@?$vector@V?$basic_json@Vmap@std@@Vvector@2@V?$basic_string@DU?$char_traits@D@std@@V?$allocator@D@2@@2@_N_J_KNVallocator@2@Uadl_serializer@json_abi_v3_11_3@nlohmann@@V?$vector@EV?$allocator@E@std@@@2@X@json_abi_v3_11_3@nlohmann@@V?$allocator@V?$basic_json@Vmap@std@@Vvector@2@V?$basic_string@DU?$char_traits@D@std@@V?$allocator@D@2@@2@_N_J_KNVallocator@2@Uadl_serializer@json_abi_v3_11_3@nlohmann@@V?$vector@EV?$allocator@E@std@@@2@X@json_abi_v3_11_3@nlohmann@@@std@@@std@@AEAAAEAV?$basic_json@Vmap@std@@Vvector@2@V?$basic_string@DU?$char_traits@D@std@@V?$allocator@D@2@@2@_N_J_KNVallocator@2@Uadl_serializer@json_abi_v3_11_3@nlohmann@@V?$vector@EV?$allocator@E@std@@@2@X@json_abi_v3_11_3@nlohmann@@AEBV234@@Z
	??$_Emplace_back_with_unused_capacity@AEBV?$basic_string@DU?$char_traits@D@std@@V?$allocator@D@2@@std@@@?$vector@V?$basic_string@DU?$char_traits@D@std@@V?$allocator@D@2@@std@@V?$allocator@V?$basic_string@DU?$char_traits@D@std@@V?$allocator@D@2@@std@@@2@@std@@AEAAAEAV?$basic_string@DU?$char_traits@D@std@@V?$allocator@D@2@@1@AEBV21@@Z
	??$_Emplace_back_with_unused_capacity@D@?$vector@DV?$allocator@D@std@@@std@@AEAAAEAD$$QEAD@Z
	??$_Emplace_back_with_unused_capacity@PEAV?$basic_json@Vmap@std@@Vvector@2@V?$basic_string@DU?$char_traits@D@std@@V?$allocator@D@2@@2@_N_J_KNVallocator@2@Uadl_serializer@json_abi_v3_11_3@nlohmann@@V?$vector@EV?$allocator@E@std@@@2@X@json_abi_v3_11_3@nlohmann@@@?$vector@PEAV?$basic_json@Vmap@std@@Vvector@2@V?$basic_string@DU?$char_traits@D@std@@V?$allocator@D@2@@2@_N_J_KNVallocator@2@Uadl_serializer@json_abi_v3_11_3@nlohmann@@V?$vector@EV?$allocator@E@std@@@2@X@json_abi_v3_11_3@nlohmann@@V?$allocator@PEAV?$basic_json@Vmap@std@@Vvector@2@V?$basic_string@DU?$char_traits@D@std@@V?$allocator@D@2@@2@_N_J_KNVallocator@2@Uadl_serializer@json_abi_v3_11_3@nlohmann@@V?$vector@EV?$allocator@E@std@@@2@X@json_abi_v3_11_3@nlohmann@@@std@@@std@@AEAAAEAPEAV?$basic_json@Vmap@std@@Vvector@2@V?$basic_string@DU?$char_traits@D@std@@V?$allocator@D@2@@2@_N_J_KNVallocator@2@Uadl_serializer@json_abi_v3_11_3@nlohmann@@V?$vector@EV?$allocator@E@std@@@2@X@json_abi_v3_11_3@nlohmann@@$$QEAPEAV234@@Z
	??$_Emplace_back_with_unused_capacity@PEAX@?$vector@PEAXV?$allocator@PEAX@std@@@std@@AEAAAEAPEAX$$QEAPEAX@Z
	??$_Emplace_back_with_unused_capacity@PEBD@?$vector@PEBDV?$allocator@PEBD@std@@@std@@AEAAAEAPEBD$$QEAPEBD@Z
	??$_Emplace_back_with_unused_capacity@U?$pair@PEAXP6AJPEAUIDXGISwapChain@@II@Z@std@@@?$vector@U?$pair@PEAXP6AJPEAUIDXGISwapChain@@II@Z@std@@V?$allocator@U?$pair@PEAXP6AJPEAUIDXGISwapChain@@II@Z@std@@@2@@std@@AEAAAEAU?$pair@PEAXP6AJPEAUIDXGISwapChain@@II@Z@1@$$QEAU21@@Z
	??$_Emplace_back_with_unused_capacity@UXrActionSuggestedBinding@@@?$vector@UXrActionSuggestedBinding@@V?$allocator@UXrActionSuggestedBinding@@@std@@@std@@AEAAAEAUXrActionSuggestedBinding@@$$QEAU2@@Z
	??$_Emplace_back_with_unused_capacity@V?$basic_json@Vmap@std@@Vvector@2@V?$basic_string@DU?$char_traits@D@std@@V?$allocator@D@2@@2@_N_J_KNVallocator@2@Uadl_serializer@json_abi_v3_11_3@nlohmann@@V?$vector@EV?$allocator@E@std@@@2@X@json_abi_v3_11_3@nlohmann@@@?$vector@V?$basic_json@Vmap@std@@Vvector@2@V?$basic_string@DU?$char_traits@D@std@@V?$allocator@D@2@@2@_N_J_KNVallocator@2@Uadl_serializer@json_abi_v3_11_3@nlohmann@@V?$vector@EV?$allocator@E@std@@@2@X@json_abi_v3_11_3@nlohmann@@V?$allocator@V?$basic_json@Vmap@std@@Vvector@2@V?$basic_string@DU?$char_traits@D@std@@V?$allocator@D@2@@2@_N_J_KNVallocator@2@Uadl_serializer@json_abi_v3_11_3@nlohmann@@V?$vector@EV?$allocator@E@std@@@2@X@json_abi_v3_11_3@nlohmann@@@std@@@std@@AEAAAEAV?$basic_json@Vmap@std@@Vvector@2@V?$basic_string@DU?$char_traits@D@std@@V?$allocator@D@2@@2@_N_J_KNVallocator@2@Uadl_serializer@json_abi_v3_11_3@nlohmann@@V?$vector@EV?$allocator@E@std@@@2@X@json_abi_v3_11_3@nlohmann@@$$QEAV234@@Z
	??$_Emplace_back_with_unused_capacity@W4value_t@detail@json_abi_v3_11_3@nlohmann@@@?$vector@V?$basic_json@Vmap@std@@Vvector@2@V?$basic_string@DU?$char_traits@D@std@@V?$allocator@D@2@@2@_N_J_KNVallocator@2@Uadl_serializer@json_abi_v3_11_3@nlohmann@@V?$vector@EV?$allocator@E@std@@@2@X@json_abi_v3_11_3@nlohmann@@V?$allocator@V?$basic_json@Vmap@std@@Vvector@2@V?$basic_string@DU?$char_traits@D@std@@V?$allocator@D@2@@2@_N_J_KNVallocator@2@Uadl_serializer@json_abi_v3_11_3@nlohmann@@V?$vector@EV?$allocator@E@std@@@2@X@json_abi_v3_11_3@nlohmann@@@std@@@std@@AEAAAEAV?$basic_json@Vmap@std@@Vvector@2@V?$basic_string@DU?$char_traits@D@std@@V?$allocator@D@2@@2@_N_J_KNVallocator@2@Uadl_serializer@json_abi_v3_11_3@nlohmann@@V?$vector@EV?$allocator@E@std@@@2@X@json_abi_v3_11_3@nlohmann@@$$QEAW4value_t@detail@34@@Z
	??$_Emplace_one_at_back@$$T@?$vector@V?$basic_json@Vmap@std@@Vvector@2@V?$basic_string@DU?$char_traits@D@std@@V?$allocator@D@2@@2@_N_J_KNVallocator@2@Uadl_serializer@json_abi_v3_11_3@nlohmann@@V?$vector@EV?$allocator@E@std@@@2@X@json_abi_v3_11_3@nlohmann@@V?$allocator@V?$basic_json@Vmap@std@@Vvector@2@V?$basic_string@DU?$char_traits@D@std@@V?$allocator@D@2@@2@_N_J_KNVallocator@2@Uadl_serializer@json_abi_v3_11_3@nlohmann@@V?$vector@EV?$allocator@E@std@@@2@X@json_abi_v3_11_3@nlohmann@@@std@@@std@@AEAAAEAV?$basic_json@Vmap@std@@Vvector@2@V?$basic_string@DU?$char_traits@D@std@@V?$allocator@D@2@@2@_N_J_KNVallocator@2@Uadl_serializer@json_abi_v3_11_3@nlohmann@@V?$vector@EV?$allocator@E@std@@@2@X@json_abi_v3_11_3@nlohmann@@$$QEA$$T@Z
	??$_Emplace_one_at_back@AEAN@?$vector@V?$basic_json@Vmap@std@@Vvector@2@V?$basic_string@DU?$char_traits@D@std@@V?$allocator@D@2@@2@_N_J_KNVallocator@2@Uadl_serializer@json_abi_v3_11_3@nlohmann@@V?$vector@EV?$allocator@E@std@@@2@X@json_abi_v3_11_3@nlohmann@@V?$allocator@V?$basic_json@Vmap@std@@Vvector@2@V?$basic_string@DU?$char_traits@D@std@@V?$allocator@D@2@@2@_N_J_KNVallocator@2@Uadl_serializer@json_abi_v3_11_3@nlohmann@@V?$vector@EV?$allocator@E@std@@@2@X@json_abi_v3_11_3@nlohmann@@@std@@@std@@AEAAAEAV?$basic_json@Vmap@std@@Vvector@2@V?$basic_string@DU?$char_traits@D@std@@V?$allocator@D@2@@2@_N_J_KNVallocator@2@Uadl_serializer@json_abi_v3_11_3@nlohmann@@V?$vector@EV?$allocator@E@std@@@2@X@json_abi_v3_11_3@nlohmann@@AEAN@Z
	??$_Emplace_one_at_back@AEAV?$basic_string@DU?$char_traits@D@std@@V?$allocator@D@2@@std@@@?$vector@V?$basic_json@Vmap@std@@Vvector@2@V?$basic_string@DU?$char_traits@D@std@@V?$allocator@D@2@@2@_N_J_KNVallocator@2@Uadl_serializer@json_abi_v3_11_3@nlohmann@@V?$vector@EV?$allocator@E@std@@@2@X@json_abi_v3_11_3@nlohmann@@V?$allocator@V?$basic_json@Vmap@std@@Vvector@2@V?$basic_string@DU?$char_traits@D@std@@V?$allocator@D@2@@2@_N_J_KNVallocator@2@Uadl_serializer@json_abi_v3_11_3@nlohmann@@V?$vector@EV?$allocator@E@std@@@2@X@json_abi_v3_11_3@nlohmann@@@std@@@std@@AEAAAEAV?$basic_json@Vmap@std@@Vvector@2@V?$basic_string@DU?$char_traits@D@std@@V?$allocator@D@2@@2@_N_J_KNVallocator@2@Uadl_serializer@json_abi_v3_11_3@nlohmann@@V?$vector@EV?$allocator@E@std@@@2@X@json_abi_v3_11_3@nlohmann@@AEAV?$basic_string@DU?$char_traits@D@std@@V?$allocator@D@2@@1@@Z
	??$_Emplace_one_at_back@AEA_J@?$vector@V?$basic_json@Vmap@std@@Vvector@2@V?$basic_string@DU?$char_traits@D@std@@V?$allocator@D@2@@2@_N_J_KNVallocator@2@Uadl_serializer@json_abi_v3_11_3@nlohmann@@V?$vector@EV?$allocator@E@std@@@2@X@json_abi_v3_11_3@nlohmann@@V?$allocator@V?$basic_json@Vmap@std@@Vvector@2@V?$basic_string@DU?$char_traits@D@std@@V?$allocator@D@2@@2@_N_J_KNVallocator@2@Uadl_serializer@json_abi_v3_11_3@nlohmann@@V?$vector@EV?$allocator@E@std@@@2@X@json_abi_v3_11_3@nlohmann@@@std@@@std@@AEAAAEAV?$basic_json@Vmap@std@@Vvector@2@V?$basic_string@DU?$char_traits@D@std@@V?$allocator@D@2@@2@_N_J_KNVallocator@2@Uadl_serializer@json_abi_v3_11_3@nlohmann@@V?$vector@EV?$allocator@E@std@@@2@X@json_abi_v3_11_3@nlohmann@@AEA_J@Z
	??$_Emplace_one_at_back@AEA_K@?$vector@V?$basic_json@Vmap@std@@Vvector@2@V?$basic_string@DU?$char_traits@D@std@@V?$allocator@D@2@@2@_N_J_KNVallocator@2@Uadl_serializer@json_abi_v3_11_3@nlohmann@@V?$vector@EV?$allocator@E@std@@@2@X@json_abi_v3_11_3@nlohmann@@V?$allocator@V?$basic_json@Vmap@std@@Vvector@2@V?$basic_string@DU?$char_traits@D@std@@V?$allocator@D@2@@2@_N_J_KNVallocator@2@Uadl_serializer@json_abi_v3_11_3@nlohmann@@V?$vector@EV?$allocator@E@std@@@2@X@json_abi_v3_11_3@nlohmann@@@std@@@std@@AEAAAEAV?$basic_json@Vmap@std@@Vvector@2@V?$basic_string@DU?$char_traits@D@std@@V?$allocator@D@2@@2@_N_J_KNVallocator@2@Uadl_serializer@json_abi_v3_11_3@nlohmann@@V?$vector@EV?$allocator@E@std@@@2@X@json_abi_v3_11_3@nlohmann@@AEA_K@Z
	??$_Emplace_one_at_back@AEA_N@?$vector@V?$basic_json@Vmap@std@@Vvector@2@V?$basic_string@DU?$char_traits@D@std@@V?$allocator@D@2@@2@_N_J_KNVallocator@2@Uadl_serializer@json_abi_v3_11_3@nlohmann@@V?$vector@EV?$allocator@E@std@@@2@X@json_abi_v3_11_3@nlohmann@@V?$allocator@V?$basic_json@Vmap@std@@Vvector@2@V?$basic_string@DU?$char_traits@D@std@@V?$allocator@D@2@@2@_N_J_KNVallocator@2@Uadl_serializer@json_abi_v3_11_3@nlohmann@@V?$vector@EV?$allocator@E@std@@@2@X@json_abi_v3_11_3@nlohmann@@@std@@@std@@AEAAAEAV?$basic_json@Vmap@std@@Vvector@2@V?$basic_string@DU?$char_traits@D@std@@V?$allocator@D@2@@2@_N_J_KNVallocator@2@Uadl_serializer@json_abi_v3_11_3@nlohmann@@V?$vector@EV?$allocator@E@std@@@2@X@json_abi_v3_11_3@nlohmann@@AEA_N@Z
	??$_Emplace_one_at_back@AEBN@?$vector@NV?$allocator@N@std@@@std@@AEAAAEANAEBN@Z
	??$_Emplace_one_at_back@AEBQEAV?$basic_json@Vmap@std@@Vvector@2@V?$basic_string@DU?$char_traits@D@std@@V?$allocator@D@2@@2@_N_J_KNVallocator@2@Uadl_serializer@json_abi_v3_11_3@nlohmann@@V?$vector@EV?$allocator@E@std@@@2@X@json_abi_v3_11_3@nlohmann@@@?$vector@PEAV?$basic_json@Vmap@std@@Vvector@2@V?$basic_string@DU?$char_traits@D@std@@V?$allocator@D@2@@2@_N_J_KNVallocator@2@Uadl_serializer@json_abi_v3_11_3@nlohmann@@V?$vector@EV?$allocator@E@std@@@2@X@json_abi_v3_11_3@nlohmann@@V?$allocator@PEAV?$basic_json@Vmap@std@@Vvector@2@V?$basic_string@DU?$char_traits@D@std@@V?$allocator@D@2@@2@_N_J_KNVallocator@2@Uadl_serializer@json_abi_v3_11_3@nlohmann@@V?$vector@EV?$allocator@E@std@@@2@X@json_abi_v3_11_3@nlohmann@@@std@@@std@@AEAAAEAPEAV?$basic_json@Vmap@std@@Vvector@2@V?$basic_string@DU?$char_traits@D@std@@V?$allocator@D@2@@2@_N_J_KNVallocator@2@Uadl_serializer@json_abi_v3_11_3@nlohmann@@V?$vector@EV?$allocator@E@std@@@2@X@json_abi_v3_11_3@nlohmann@@AEBQEAV234@@Z
	??$_Emplace_one_at_back@AEBUBinding@vrc@@@?$vector@UBinding@vrc@@V?$allocator@UBinding@vrc@@@std@@@std@@AEAAAEAUBinding@vrc@@AEBU23@@Z
	??$_Emplace_one_at_back@AEBUD3D12_CPU_DESCRIPTOR_HANDLE@@@?$vector@UD3D12_CPU_DESCRIPTOR_HANDLE@@V?$allocator@UD3D12_CPU_DESCRIPTOR_HANDLE@@@std@@@std@@AEAAAEAUD3D12_CPU_DESCRIPTOR_HANDLE@@AEBU2@@Z
	??$_Emplace_one_at_back@AEBV?$basic_json@Vmap@std@@Vvector@2@V?$basic_string@DU?$char_traits@D@std@@V?$allocator@D@2@@2@_N_J_KNVallocator@2@Uadl_serializer@json_abi_v3_11_3@nlohmann@@V?$vector@EV?$allocator@E@std@@@2@X@json_abi_v3_11_3@nlohmann@@@?$vector@V?$basic_json@Vmap@std@@Vvector@2@V?$basic_string@DU?$char_traits@D@std@@V?$allocator@D@2@@2@_N_J_KNVallocator@2@Uadl_serializer@json_abi_v3_11_3@nlohmann@@V?$vector@EV?$allocator@E@std@@@2@X@json_abi_v3_11_3@nlohmann@@V?$allocator@V?$basic_json@Vmap@std@@Vvector@2@V?$basic_string@DU?$char_traits@D@std@@V?$allocator@D@2@@2@_N_J_KNVallocator@2@Uadl_serializer@json_abi_v3_11_3@nlohmann@@V?$vector@EV?$allocator@E@std@@@2@X@json_abi_v3_11_3@nlohmann@@@std@@@std@@AEAAAEAV?$basic_json@Vmap@std@@Vvector@2@V?$basic_string@DU?$char_traits@D@std@@V?$allocator@D@2@@2@_N_J_KNVallocator@2@Uadl_serializer@json_abi_v3_11_3@nlohmann@@V?$vector@EV?$allocator@E@std@@@2@X@json_abi_v3_11_3@nlohmann@@AEBV234@@Z
	??$_Emplace_one_at_back@AEBV?$basic_string@DU?$char_traits@D@std@@V?$allocator@D@2@@std@@@?$vector@V?$basic_string@DU?$char_traits@D@std@@V?$allocator@D@2@@std@@V?$allocator@V?$basic_string@DU?$char_traits@D@std@@V?$allocator@D@2@@std@@@2@@std@@AEAAAEAV?$basic_string@DU?$char_traits@D@std@@V?$allocator@D@2@@1@AEBV21@@Z
	??$_Emplace_one_at_back@D@?$vector@DV?$allocator@D@std@@@std@@AEAAAEAD$$QEAD@Z
	??$_Emplace_one_at_back@PEAV?$basic_json@Vmap@std@@Vvector@2@V?$basic_string@DU?$char_traits@D@std@@V?$allocator@D@2@@2@_N_J_KNVallocator@2@Uadl_serializer@json_abi_v3_11_3@nlohmann@@V?$vector@EV?$allocator@E@std@@@2@X@json_abi_v3_11_3@nlohmann@@@?$vector@PEAV?$basic_json@Vmap@std@@Vvector@2@V?$basic_string@DU?$char_traits@D@std@@V?$allocator@D@2@@2@_N_J_KNVallocator@2@Uadl_serializer@json_abi_v3_11_3@nlohmann@@V?$vector@EV?$allocator@E@std@@@2@X@json_abi_v3_11_3@nlohmann@@V?$allocator@PEAV?$basic_json@Vmap@std@@Vvector@2@V?$basic_string@DU?$char_traits@D@std@@V?$allocator@D@2@@2@_N_J_KNVallocator@2@Uadl_serializer@json_abi_v3_11_3@nlohmann@@V?$vector@EV?$allocator@E@std@@@2@X@json_abi_v3_11_3@nlohmann@@@std@@@std@@AEAAAEAPEAV?$basic_json@Vmap@std@@Vvector@2@V?$basic_string@DU?$char_traits@D@std@@V?$allocator@D@2@@2@_N_J_KNVallocator@2@Uadl_serializer@json_abi_v3_11_3@nlohmann@@V?$vector@EV?$allocator@E@std@@@2@X@json_abi_v3_11_3@nlohmann@@$$QEAPEAV234@@Z
	??$_Emplace_one_at_back@PEAX@?$vector@PEAXV?$allocator@PEAX@std@@@std@@AEAAAEAPEAX$$QEAPEAX@Z
	??$_Emplace_one_at_back@PEBD@?$vector@PEBDV?$allocator@PEBD@std@@@std@@AEAAAEAPEBD$$QEAPEBD@Z
	??$_Emplace_one_at_back@U?$pair@PEAXP6AJPEAUIDXGISwapChain@@II@Z@std@@@?$vector@U?$pair@PEAXP6AJPEAUIDXGISwapChain@@II@Z@std@@V?$allocator@U?$pair@PEAXP6AJPEAUIDXGISwapChain@@II@Z@std@@@2@@std@@AEAAAEAU?$pair@PEAXP6AJPEAUIDXGISwapChain@@II@Z@1@$$QEAU21@@Z
	??$_Emplace_one_at_back@UXrActionSuggestedBinding@@@?$vector@UXrActionSuggestedBinding@@V?$allocator@UXrActionSuggestedBinding@@@std@@@std@@AEAAAEAUXrActionSuggestedBinding@@$$QEAU2@@Z
	??$_Emplace_one_at_back@V?$basic_json@Vmap@std@@Vvector@2@V?$basic_string@DU?$char_traits@D@std@@V?$allocator@D@2@@2@_N_J_KNVallocator@2@Uadl_serializer@json_abi_v3_11_3@nlohmann@@V?$vector@EV?$allocator@E@std@@@2@X@json_abi_v3_11_3@nlohmann@@@?$vector@V?$basic_json@Vmap@std@@Vvector@2@V?$basic_string@DU?$char_traits@D@std@@V?$allocator@D@2@@2@_N_J_KNVallocator@2@Uadl_serializer@json_abi_v3_11_3@nlohmann@@V?$vector@EV?$allocator@E@std@@@2@X@json_abi_v3_11_3@nlohmann@@V?$allocator@V?$basic_json@Vmap@std@@Vvector@2@V?$basic_string@DU?$char_traits@D@std@@V?$allocator@D@2@@2@_N_J_KNVallocator@2@Uadl_serializer@json_abi_v3_11_3@nlohmann@@V?$vector@EV?$allocator@E@std@@@2@X@json_abi_v3_11_3@nlohmann@@@std@@@std@@AEAAAEAV?$basic_json@Vmap@std@@Vvector@2@V?$basic_string@DU?$char_traits@D@std@@V?$allocator@D@2@@2@_N_J_KNVallocator@2@Uadl_serializer@json_abi_v3_11_3@nlohmann@@V?$vector@EV?$allocator@E@std@@@2@X@json_abi_v3_11_3@nlohmann@@$$QEAV234@@Z
	??$_Emplace_one_at_back@W4value_t@detail@json_abi_v3_11_3@nlohmann@@@?$vector@V?$basic_json@Vmap@std@@Vvector@2@V?$basic_string@DU?$char_traits@D@std@@V?$allocator@D@2@@2@_N_J_KNVallocator@2@Uadl_serializer@json_abi_v3_11_3@nlohmann@@V?$vector@EV?$allocator@E@std@@@2@X@json_abi_v3_11_3@nlohmann@@V?$allocator@V?$basic_json@Vmap@std@@Vvector@2@V?$basic_string@DU?$char_traits@D@std@@V?$allocator@D@2@@2@_N_J_KNVallocator@2@Uadl_serializer@json_abi_v3_11_3@nlohmann@@V?$vector@EV?$allocator@E@std@@@2@X@json_abi_v3_11_3@nlohmann@@@std@@@std@@AEAAAEAV?$basic_json@Vmap@std@@Vvector@2@V?$basic_string@DU?$char_traits@D@std@@V?$allocator@D@2@@2@_N_J_KNVallocator@2@Uadl_serializer@json_abi_v3_11_3@nlohmann@@V?$vector@EV?$allocator@E@std@@@2@X@json_abi_v3_11_3@nlohmann@@$$QEAW4value_t@detail@34@@Z
	??$_Emplace_reallocate@$$T@?$vector@V?$basic_json@Vmap@std@@Vvector@2@V?$basic_string@DU?$char_traits@D@std@@V?$allocator@D@2@@2@_N_J_KNVallocator@2@Uadl_serializer@json_abi_v3_11_3@nlohmann@@V?$vector@EV?$allocator@E@std@@@2@X@json_abi_v3_11_3@nlohmann@@V?$allocator@V?$basic_json@Vmap@std@@Vvector@2@V?$basic_string@DU?$char_traits@D@std@@V?$allocator@D@2@@2@_N_J_KNVallocator@2@Uadl_serializer@json_abi_v3_11_3@nlohmann@@V?$vector@EV?$allocator@E@std@@@2@X@json_abi_v3_11_3@nlohmann@@@std@@@std@@AEAAPEAV?$basic_json@Vmap@std@@Vvector@2@V?$basic_string@DU?$char_traits@D@std@@V?$allocator@D@2@@2@_N_J_KNVallocator@2@Uadl_serializer@json_abi_v3_11_3@nlohmann@@V?$vector@EV?$allocator@E@std@@@2@X@json_abi_v3_11_3@nlohmann@@QEAV234@$$QEA$$T@Z
	??$_Emplace_reallocate@AEAN@?$vector@V?$basic_json@Vmap@std@@Vvector@2@V?$basic_string@DU?$char_traits@D@std@@V?$allocator@D@2@@2@_N_J_KNVallocator@2@Uadl_serializer@json_abi_v3_11_3@nlohmann@@V?$vector@EV?$allocator@E@std@@@2@X@json_abi_v3_11_3@nlohmann@@V?$allocator@V?$basic_json@Vmap@std@@Vvector@2@V?$basic_string@DU?$char_traits@D@std@@V?$allocator@D@2@@2@_N_J_KNVallocator@2@Uadl_serializer@json_abi_v3_11_3@nlohmann@@V?$vector@EV?$allocator@E@std@@@2@X@json_abi_v3_11_3@nlohmann@@@std@@@std@@AEAAPEAV?$basic_json@Vmap@std@@Vvector@2@V?$basic_string@DU?$char_traits@D@std@@V?$allocator@D@2@@2@_N_J_KNVallocator@2@Uadl_serializer@json_abi_v3_11_3@nlohmann@@V?$vector@EV?$allocator@E@std@@@2@X@json_abi_v3_11_3@nlohmann@@QEAV234@AEAN@Z
	??$_Emplace_reallocate@AEAV?$basic_string@DU?$char_traits@D@std@@V?$allocator@D@2@@std@@@?$vector@V?$basic_json@Vmap@std@@Vvector@2@V?$basic_string@DU?$char_traits@D@std@@V?$allocator@D@2@@2@_N_J_KNVallocator@2@Uadl_serializer@json_abi_v3_11_3@nlohmann@@V?$vector@EV?$allocator@E@std@@@2@X@json_abi_v3_11_3@nlohmann@@V?$allocator@V?$basic_json@Vmap@std@@Vvector@2@V?$basic_string@DU?$char_traits@D@std@@V?$allocator@D@2@@2@_N_J_KNVallocator@2@Uadl_serializer@json_abi_v3_11_3@nlohmann@@V?$vector@EV?$allocator@E@std@@@2@X@json_abi_v3_11_3@nlohmann@@@std@@@std@@AEAAPEAV?$basic_json@Vmap@std@@Vvector@2@V?$basic_string@DU?$char_traits@D@std@@V?$allocator@D@2@@2@_N_J_KNVallocator@2@Uadl_serializer@json_abi_v3_11_3@nlohmann@@V?$vector@EV?$allocator@E@std@@@2@X@json_abi_v3_11_3@nlohmann@@QEAV234@AEAV?$basic_string@DU?$char_traits@D@std@@V?$allocator@D@2@@1@@Z
	??$_Emplace_reallocate@AEA_J@?$vector@V?$basic_json@Vmap@std@@Vvector@2@V?$basic_string@DU?$char_traits@D@std@@V?$allocator@D@2@@2@_N_J_KNVallocator@2@Uadl_serializer@json_abi_v3_11_3@nlohmann@@V?$vector@EV?$allocator@E@std@@@2@X@json_abi_v3_11_3@nlohmann@@V?$allocator@V?$basic_json@Vmap@std@@Vvector@2@V?$basic_string@DU?$char_traits@D@std@@V?$allocator@D@2@@2@_N_J_KNVallocator@2@Uadl_serializer@json_abi_v3_11_3@nlohmann@@V?$vector@EV?$allocator@E@std@@@2@X@json_abi_v3_11_3@nlohmann@@@std@@@std@@AEAAPEAV?$basic_json@Vmap@std@@Vvector@2@V?$basic_string@DU?$char_traits@D@std@@V?$allocator@D@2@@2@_N_J_KNVallocator@2@Uadl_serializer@json_abi_v3_11_3@nlohmann@@V?$vector@EV?$allocator@E@std@@@2@X@json_abi_v3_11_3@nlohmann@@QEAV234@AEA_J@Z
	??$_Emplace_reallocate@AEA_K@?$vector@V?$basic_json@Vmap@std@@Vvector@2@V?$basic_string@DU?$char_traits@D@std@@V?$allocator@D@2@@2@_N_J_KNVallocator@2@Uadl_serializer@json_abi_v3_11_3@nlohmann@@V?$vector@EV?$allocator@E@std@@@2@X@json_abi_v3_11_3@nlohmann@@V?$allocator@V?$basic_json@Vmap@std@@Vvector@2@V?$basic_string@DU?$char_traits@D@std@@V?$allocator@D@2@@2@_N_J_KNVallocator@2@Uadl_serializer@json_abi_v3_11_3@nlohmann@@V?$vector@EV?$allocator@E@std@@@2@X@json_abi_v3_11_3@nlohmann@@@std@@@std@@AEAAPEAV?$basic_json@Vmap@std@@Vvector@2@V?$basic_string@DU?$char_traits@D@std@@V?$allocator@D@2@@2@_N_J_KNVallocator@2@Uadl_serializer@json_abi_v3_11_3@nlohmann@@V?$vector@EV?$allocator@E@std@@@2@X@json_abi_v3_11_3@nlohmann@@QEAV234@AEA_K@Z
	??$_Emplace_reallocate@AEA_N@?$vector@V?$basic_json@Vmap@std@@Vvector@2@V?$basic_string@DU?$char_traits@D@std@@V?$allocator@D@2@@2@_N_J_KNVallocator@2@Uadl_serializer@json_abi_v3_11_3@nlohmann@@V?$vector@EV?$allocator@E@std@@@2@X@json_abi_v3_11_3@nlohmann@@V?$allocator@V?$basic_json@Vmap@std@@Vvector@2@V?$basic_string@DU?$char_traits@D@std@@V?$allocator@D@2@@2@_N_J_KNVallocator@2@Uadl_serializer@json_abi_v3_11_3@nlohmann@@V?$vector@EV?$allocator@E@std@@@2@X@json_abi_v3_11_3@nlohmann@@@std@@@std@@AEAAPEAV?$basic_json@Vmap@std@@Vvector@2@V?$basic_string@DU?$char_traits@D@std@@V?$allocator@D@2@@2@_N_J_KNVallocator@2@Uadl_serializer@json_abi_v3_11_3@nlohmann@@V?$vector@EV?$allocator@E@std@@@2@X@json_abi_v3_11_3@nlohmann@@QEAV234@AEA_N@Z
	??$_Emplace_reallocate@AEBN@?$vector@NV?$allocator@N@std@@@std@@AEAAPEANQEANAEBN@Z
	??$_Emplace_reallocate@AEBQEAV?$basic_json@Vmap@std@@Vvector@2@V?$basic_string@DU?$char_traits@D@std@@V?$allocator@D@2@@2@_N_J_KNVallocator@2@Uadl_serializer@json_abi_v3_11_3@nlohmann@@V?$vector@EV?$allocator@E@std@@@2@X@json_abi_v3_11_3@nlohmann@@@?$vector@PEAV?$basic_json@Vmap@std@@Vvector@2@V?$basic_string@DU?$char_traits@D@std@@V?$allocator@D@2@@2@_N_J_KNVallocator@2@Uadl_serializer@json_abi_v3_11_3@nlohmann@@V?$vector@EV?$allocator@E@std@@@2@X@json_abi_v3_11_3@nlohmann@@V?$allocator@PEAV?$basic_json@Vmap@std@@Vvector@2@V?$basic_string@DU?$char_traits@D@std@@V?$allocator@D@2@@2@_N_J_KNVallocator@2@Uadl_serializer@json_abi_v3_11_3@nlohmann@@V?$vector@EV?$allocator@E@std@@@2@X@json_abi_v3_11_3@nlohmann@@@std@@@std@@AEAAPEAPEAV?$basic_json@Vmap@std@@Vvector@2@V?$basic_string@DU?$char_traits@D@std@@V?$allocator@D@2@@2@_N_J_KNVallocator@2@Uadl_serializer@json_abi_v3_11_3@nlohmann@@V?$vector@EV?$allocator@E@std@@@2@X@json_abi_v3_11_3@nlohmann@@QEAPEAV234@AEBQEAV234@@Z
	??$_Emplace_reallocate@AEBUBinding@vrc@@@?$vector@UBinding@vrc@@V?$allocator@UBinding@vrc@@@std@@@std@@AEAAPEAUBinding@vrc@@QEAU23@AEBU23@@Z
	??$_Emplace_reallocate@AEBUD3D12_CPU_DESCRIPTOR_HANDLE@@@?$vector@UD3D12_CPU_DESCRIPTOR_HANDLE@@V?$allocator@UD3D12_CPU_DESCRIPTOR_HANDLE@@@std@@@std@@AEAAPEAUD3D12_CPU_DESCRIPTOR_HANDLE@@QEAU2@AEBU2@@Z
	??$_Emplace_reallocate@AEBV?$basic_json@Vmap@std@@Vvector@2@V?$basic_string@DU?$char_traits@D@std@@V?$allocator@D@2@@2@_N_J_KNVallocator@2@Uadl_serializer@json_abi_v3_11_3@nlohmann@@V?$vector@EV?$allocator@E@std@@@2@X@json_abi_v3_11_3@nlohmann@@@?$vector@V?$basic_json@Vmap@std@@Vvector@2@V?$basic_string@DU?$char_traits@D@std@@V?$allocator@D@2@@2@_N_J_KNVallocator@2@Uadl_serializer@json_abi_v3_11_3@nlohmann@@V?$vector@EV?$allocator@E@std@@@2@X@json_abi_v3_11_3@nlohmann@@V?$allocator@V?$basic_json@Vmap@std@@Vvector@2@V?$basic_string@DU?$char_traits@D@std@@V?$allocator@D@2@@2@_N_J_KNVallocator@2@Uadl_serializer@json_abi_v3_11_3@nlohmann@@V?$vector@EV?$allocator@E@std@@@2@X@json_abi_v3_11_3@nlohmann@@@std@@@std@@AEAAPEAV?$basic_json@Vmap@std@@Vvector@2@V?$basic_string@DU?$char_traits@D@std@@V?$allocator@D@2@@2@_N_J_KNVallocator@2@Uadl_serializer@json_abi_v3_11_3@nlohmann@@V?$vector@EV?$allocator@E@std@@@2@X@json_abi_v3_11_3@nlohmann@@QEAV234@AEBV234@@Z
	??$_Emplace_reallocate@AEBV?$basic_string@DU?$char_traits@D@std@@V?$allocator@D@2@@std@@@?$vector@V?$basic_string@DU?$char_traits@D@std@@V?$allocator@D@2@@std@@V?$allocator@V?$basic_string@DU?$char_traits@D@std@@V?$allocator@D@2@@std@@@2@@std@@AEAAPEAV?$basic_string@DU?$char_traits@D@std@@V?$allocator@D@2@@1@QEAV21@AEBV21@@Z
	??$_Emplace_reallocate@D@?$vector@DV?$allocator@D@std@@@std@@AEAAPEADQEAD$$QEAD@Z
	??$_Emplace_reallocate@PEAV?$basic_json@Vmap@std@@Vvector@2@V?$basic_string@DU?$char_traits@D@std@@V?$allocator@D@2@@2@_N_J_KNVallocator@2@Uadl_serializer@json_abi_v3_11_3@nlohmann@@V?$vector@EV?$allocator@E@std@@@2@X@json_abi_v3_11_3@nlohmann@@@?$vector@PEAV?$basic_json@Vmap@std@@Vvector@2@V?$basic_string@DU?$char_traits@D@std@@V?$allocator@D@2@@2@_N_J_KNVallocator@2@Uadl_serializer@json_abi_v3_11_3@nlohmann@@V?$vector@EV?$allocator@E@std@@@2@X@json_abi_v3_11_3@nlohmann@@V?$allocator@PEAV?$basic_json@Vmap@std@@Vvector@2@V?$basic_string@DU?$char_traits@D@std@@V?$allocator@D@2@@2@_N_J_KNVallocator@2@Uadl_serializer@json_abi_v3_11_3@nlohmann@@V?$vector@EV?$allocator@E@std@@@2@X@json_abi_v3_11_3@nlohmann@@@std@@@std@@AEAAPEAPEAV?$basic_json@Vmap@std@@Vvector@2@V?$basic_string@DU?$char_traits@D@std@@V?$allocator@D@2@@2@_N_J_KNVallocator@2@Uadl_serializer@json_abi_v3_11_3@nlohmann@@V?$vector@EV?$allocator@E@std@@@2@X@json_abi_v3_11_3@nlohmann@@QEAPEAV234@$$QEAPEAV234@@Z
	??$_Emplace_reallocate@PEAX@?$vector@PEAXV?$allocator@PEAX@std@@@std@@AEAAPEAPEAXQEAPEAX$$QEAPEAX@Z
	??$_Emplace_reallocate@PEBD@?$vector@PEBDV?$allocator@PEBD@std@@@std@@AEAAPEAPEBDQEAPEBD$$QEAPEBD@Z
	??$_Emplace_reallocate@U?$pair@PEAXP6AJPEAUIDXGISwapChain@@II@Z@std@@@?$vector@U?$pair@PEAXP6AJPEAUIDXGISwapChain@@II@Z@std@@V?$allocator@U?$pair@PEAXP6AJPEAUIDXGISwapChain@@II@Z@std@@@2@@std@@AEAAPEAU?$pair@PEAXP6AJPEAUIDXGISwapChain@@II@Z@1@QEAU21@$$QEAU21@@Z
	??$_Emplace_reallocate@UXrActionSuggestedBinding@@@?$vector@UXrActionSuggestedBinding@@V?$allocator@UXrActionSuggestedBinding@@@std@@@std@@AEAAPEAUXrActionSuggestedBinding@@QEAU2@$$QEAU2@@Z
	??$_Emplace_reallocate@V?$basic_json@Vmap@std@@Vvector@2@V?$basic_string@DU?$char_traits@D@std@@V?$allocator@D@2@@2@_N_J_KNVallocator@2@Uadl_serializer@json_abi_v3_11_3@nlohmann@@V?$vector@EV?$allocator@E@std@@@2@X@json_abi_v3_11_3@nlohmann@@@?$vector@V?$basic_json@Vmap@std@@Vvector@2@V?$basic_string@DU?$char_traits@D@std@@V?$allocator@D@2@@2@_N_J_KNVallocator@2@Uadl_serializer@json_abi_v3_11_3@nlohmann@@V?$vector@EV?$allocator@E@std@@@2@X@json_abi_v3_11_3@nlohmann@@V?$allocator@V?$basic_json@Vmap@std@@Vvector@2@V?$basic_string@DU?$char_traits@D@std@@V?$allocator@D@2@@2@_N_J_KNVallocator@2@Uadl_serializer@json_abi_v3_11_3@nlohmann@@V?$vector@EV?$allocator@E@std@@@2@X@json_abi_v3_11_3@nlohmann@@@std@@@std@@AEAAPEAV?$basic_json@Vmap@std@@Vvector@2@V?$basic_string@DU?$char_traits@D@std@@V?$allocator@D@2@@2@_N_J_KNVallocator@2@Uadl_serializer@json_abi_v3_11_3@nlohmann@@V?$vector@EV?$allocator@E@std@@@2@X@json_abi_v3_11_3@nlohmann@@QEAV234@$$QEAV234@@Z
	??$_Emplace_reallocate@W4value_t@detail@json_abi_v3_11_3@nlohmann@@@?$vector@V?$basic_json@Vmap@std@@Vvector@2@V?$basic_string@DU?$char_traits@D@std@@V?$allocator@D@2@@2@_N_J_KNVallocator@2@Uadl_serializer@json_abi_v3_11_3@nlohmann@@V?$vector@EV?$allocator@E@std@@@2@X@json_abi_v3_11_3@nlohmann@@V?$allocator@V?$basic_json@Vmap@std@@Vvector@2@V?$basic_string@DU?$char_traits@D@std@@V?$allocator@D@2@@2@_N_J_KNVallocator@2@Uadl_serializer@json_abi_v3_11_3@nlohmann@@V?$vector@EV?$allocator@E@std@@@2@X@json_abi_v3_11_3@nlohmann@@@std@@@std@@AEAAPEAV?$basic_json@Vmap@std@@Vvector@2@V?$basic_string@DU?$char_traits@D@std@@V?$allocator@D@2@@2@_N_J_KNVallocator@2@Uadl_serializer@json_abi_v3_11_3@nlohmann@@V?$vector@EV?$allocator@E@std@@@2@X@json_abi_v3_11_3@nlohmann@@QEAV234@$$QEAW4value_t@detail@34@@Z
	??$_Erase@V?$basic_string@DU?$char_traits@D@std@@V?$allocator@D@2@@std@@@?$_Hash@V?$_Umap_traits@V?$basic_string@DU?$char_traits@D@std@@V?$allocator@D@2@@std@@V?$function@$$A6AXXZ@2@V?$_Uhash_compare@V?$basic_string@DU?$char_traits@D@std@@V?$allocator@D@2@@std@@U?$hash@V?$basic_string@DU?$char_traits@D@std@@V?$allocator@D@2@@std@@@2@U?$equal_to@V?$basic_string@DU?$char_traits@D@std@@V?$allocator@D@2@@std@@@2@@2@V?$allocator@U?$pair@$$CBV?$basic_string@DU?$char_traits@D@std@@V?$allocator@D@2@@std@@V?$function@$$A6AXXZ@2@@std@@@2@$0A@@std@@@std@@AEAA_KAEBV?$basic_string@DU?$char_traits@D@std@@V?$allocator@D@2@@1@@Z
	??$_Erase_head@V?$allocator@U?$_Tree_node@U?$pair@$$CBV?$basic_string@DU?$char_traits@D@std@@V?$allocator@D@2@@std@@V?$basic_json@Vmap@std@@Vvector@2@V?$basic_string@DU?$char_traits@D@std@@V?$allocator@D@2@@2@_N_J_KNVallocator@2@Uadl_serializer@json_abi_v3_11_3@nlohmann@@V?$vector@EV?$allocator@E@std@@@2@X@json_abi_v3_11_3@nlohmann@@@std@@PEAX@std@@@std@@@?$_Tree_val@U?$_Tree_simple_types@U?$pair@$$CBV?$basic_string@DU?$char_traits@D@std@@V?$allocator@D@2@@std@@V?$basic_json@Vmap@std@@Vvector@2@V?$basic_string@DU?$char_traits@D@std@@V?$allocator@D@2@@2@_N_J_KNVallocator@2@Uadl_serializer@json_abi_v3_11_3@nlohmann@@V?$vector@EV?$allocator@E@std@@@2@X@json_abi_v3_11_3@nlohmann@@@std@@@std@@@std@@QEAAXAEAV?$allocator@U?$_Tree_node@U?$pair@$$CBV?$basic_string@DU?$char_traits@D@std@@V?$allocator@D@2@@std@@V?$basic_json@Vmap@std@@Vvector@2@V?$basic_string@DU?$char_traits@D@std@@V?$allocator@D@2@@2@_N_J_KNVallocator@2@Uadl_serializer@json_abi_v3_11_3@nlohmann@@V?$vector@EV?$allocator@E@std@@@2@X@json_abi_v3_11_3@nlohmann@@@std@@PEAX@std@@@1@@Z
	??$_Erase_tree@V?$allocator@U?$_Tree_node@U?$pair@$$CBV?$basic_string@DU?$char_traits@D@std@@V?$allocator@D@2@@std@@V?$basic_json@Vmap@std@@Vvector@2@V?$basic_string@DU?$char_traits@D@std@@V?$allocator@D@2@@2@_N_J_KNVallocator@2@Uadl_serializer@json_abi_v3_11_3@nlohmann@@V?$vector@EV?$allocator@E@std@@@2@X@json_abi_v3_11_3@nlohmann@@@std@@PEAX@std@@@std@@@?$_Tree_val@U?$_Tree_simple_types@U?$pair@$$CBV?$basic_string@DU?$char_traits@D@std@@V?$allocator@D@2@@std@@V?$basic_json@Vmap@std@@Vvector@2@V?$basic_string@DU?$char_traits@D@std@@V?$allocator@D@2@@2@_N_J_KNVallocator@2@Uadl_serializer@json_abi_v3_11_3@nlohmann@@V?$vector@EV?$allocator@E@std@@@2@X@json_abi_v3_11_3@nlohmann@@@std@@@std@@@std@@QEAAXAEAV?$allocator@U?$_Tree_node@U?$pair@$$CBV?$basic_string@DU?$char_traits@D@std@@V?$allocator@D@2@@std@@V?$basic_json@Vmap@std@@Vvector@2@V?$basic_string@DU?$char_traits@D@std@@V?$allocator@D@2@@2@_N_J_KNVallocator@2@Uadl_serializer@json_abi_v3_11_3@nlohmann@@V?$vector@EV?$allocator@E@std@@@2@X@json_abi_v3_11_3@nlohmann@@@std@@PEAX@std@@@1@PEAU?$_Tree_node@U?$pair@$$CBV?$basic_string@DU?$char_traits@D@std@@V?$allocator@D@2@@std@@V?$basic_json@Vmap@std@@Vvector@2@V?$basic_string@DU?$char_traits@D@std@@V?$allocator@D@2@@2@_N_J_KNVallocator@2@Uadl_serializer@json_abi_v3_11_3@nlohmann@@V?$vector@EV?$allocator@E@std@@@2@X@json_abi_v3_11_3@nlohmann@@@std@@PEAX@1@@Z
	??$_Erase_tree_and_orphan@V?$allocator@U?$_Tree_node@U?$pair@$$CBV?$basic_string@DU?$char_traits@D@std@@V?$allocator@D@2@@std@@V?$basic_json@Vmap@std@@Vvector@2@V?$basic_string@DU?$char_traits@D@std@@V?$allocator@D@2@@2@_N_J_KNVallocator@2@Uadl_serializer@json_abi_v3_11_3@nlohmann@@V?$vector@EV?$allocator@E@std@@@2@X@json_abi_v3_11_3@nlohmann@@@std@@PEAX@std@@@std@@@?$_Tree_val@U?$_Tree_simple_types@U?$pair@$$CBV?$basic_string@DU?$char_traits@D@std@@V?$allocator@D@2@@std@@V?$basic_json@Vmap@std@@Vvector@2@V?$basic_string@DU?$char_traits@D@std@@V?$allocator@D@2@@2@_N_J_KNVallocator@2@Uadl_serializer@json_abi_v3_11_3@nlohmann@@V?$vector@EV?$allocator@E@std@@@2@X@json_abi_v3_11_3@nlohmann@@@std@@@std@@@std@@QEAAXAEAV?$allocator@U?$_Tree_node@U?$pair@$$CBV?$basic_string@DU?$char_traits@D@std@@V?$allocator@D@2@@std@@V?$basic_json@Vmap@std@@Vvector@2@V?$basic_string@DU?$char_traits@D@std@@V?$allocator@D@2@@2@_N_J_KNVallocator@2@Uadl_serializer@json_abi_v3_11_3@nlohmann@@V?$vector@EV?$allocator@E@std@@@2@X@json_abi_v3_11_3@nlohmann@@@std@@PEAX@std@@@1@PEAU?$_Tree_node@U?$pair@$$CBV?$basic_string@DU?$char_traits@D@std@@V?$allocator@D@2@@std@@V?$basic_json@Vmap@std@@Vvector@2@V?$basic_string@DU?$char_traits@D@std@@V?$allocator@D@2@@2@_N_J_KNVallocator@2@Uadl_serializer@json_abi_v3_11_3@nlohmann@@V?$vector@EV?$allocator@E@std@@@2@X@json_abi_v3_11_3@nlohmann@@@std@@PEAX@1@@Z
	??$_Fgetc@D@std@@YA_NAEADPEAU_iobuf@@@Z
	??$_Fill_memset@PEADD@std@@YAXPEADD_K@Z
	??$_Fill_vbool@V?$_Vb_iterator@U?$_Wrap_alloc@V?$allocator@I@std@@@std@@@std@@@std@@YAXV?$_Vb_iterator@U?$_Wrap_alloc@V?$allocator@I@std@@@std@@@0@V10@_N@Z
	??$_Fill_zero_memset@PEAI@std@@YAXPEAI_K@Z
	??$_Find@$$BY03D@?$_Tree@V?$_Tmap_traits@V?$basic_string@DU?$char_traits@D@std@@V?$allocator@D@2@@std@@V?$basic_json@Vmap@std@@Vvector@2@V?$basic_string@DU?$char_traits@D@std@@V?$allocator@D@2@@2@_N_J_KNVallocator@2@Uadl_serializer@json_abi_v3_11_3@nlohmann@@V?$vector@EV?$allocator@E@std@@@2@X@json_abi_v3_11_3@nlohmann@@U?$less@X@2@V?$allocator@U?$pair@$$CBV?$basic_string@DU?$char_traits@D@std@@V?$allocator@D@2@@std@@V?$basic_json@Vmap@std@@Vvector@2@V?$basic_string@DU?$char_traits@D@std@@V?$allocator@D@2@@2@_N_J_KNVallocator@2@Uadl_serializer@json_abi_v3_11_3@nlohmann@@V?$vector@EV?$allocator@E@std@@@2@X@json_abi_v3_11_3@nlohmann@@@std@@@2@$0A@@std@@@std@@AEBAPEAU?$_Tree_node@U?$pair@$$CBV?$basic_string@DU?$char_traits@D@std@@V?$allocator@D@2@@std@@V?$basic_json@Vmap@std@@Vvector@2@V?$basic_string@DU?$char_traits@D@std@@V?$allocator@D@2@@2@_N_J_KNVallocator@2@Uadl_serializer@json_abi_v3_11_3@nlohmann@@V?$vector@EV?$allocator@E@std@@@2@X@json_abi_v3_11_3@nlohmann@@@std@@PEAX@1@AEAY03$$CBD@Z
	??$_Find@$$BY04D@?$_Tree@V?$_Tmap_traits@V?$basic_string@DU?$char_traits@D@std@@V?$allocator@D@2@@std@@V?$basic_json@Vmap@std@@Vvector@2@V?$basic_string@DU?$char_traits@D@std@@V?$allocator@D@2@@2@_N_J_KNVallocator@2@Uadl_serializer@json_abi_v3_11_3@nlohmann@@V?$vector@EV?$allocator@E@std@@@2@X@json_abi_v3_11_3@nlohmann@@U?$less@X@2@V?$allocator@U?$pair@$$CBV?$basic_string@DU?$char_traits@D@std@@V?$allocator@D@2@@std@@V?$basic_json@Vmap@std@@Vvector@2@V?$basic_string@DU?$char_traits@D@std@@V?$allocator@D@2@@2@_N_J_KNVallocator@2@Uadl_serializer@json_abi_v3_11_3@nlohmann@@V?$vector@EV?$allocator@E@std@@@2@X@json_abi_v3_11_3@nlohmann@@@std@@@2@$0A@@std@@@std@@AEBAPEAU?$_Tree_node@U?$pair@$$CBV?$basic_string@DU?$char_traits@D@std@@V?$allocator@D@2@@std@@V?$basic_json@Vmap@std@@Vvector@2@V?$basic_string@DU?$char_traits@D@std@@V?$allocator@D@2@@2@_N_J_KNVallocator@2@Uadl_serializer@json_abi_v3_11_3@nlohmann@@V?$vector@EV?$allocator@E@std@@@2@X@json_abi_v3_11_3@nlohmann@@@std@@PEAX@1@AEAY04$$CBD@Z
	??$_Find@$$BY05D@?$_Tree@V?$_Tmap_traits@V?$basic_string@DU?$char_traits@D@std@@V?$allocator@D@2@@std@@V?$basic_json@Vmap@std@@Vvector@2@V?$basic_string@DU?$char_traits@D@std@@V?$allocator@D@2@@2@_N_J_KNVallocator@2@Uadl_serializer@json_abi_v3_11_3@nlohmann@@V?$vector@EV?$allocator@E@std@@@2@X@json_abi_v3_11_3@nlohmann@@U?$less@X@2@V?$allocator@U?$pair@$$CBV?$basic_string@DU?$char_traits@D@std@@V?$allocator@D@2@@std@@V?$basic_json@Vmap@std@@Vvector@2@V?$basic_string@DU?$char_traits@D@std@@V?$allocator@D@2@@2@_N_J_KNVallocator@2@Uadl_serializer@json_abi_v3_11_3@nlohmann@@V?$vector@EV?$allocator@E@std@@@2@X@json_abi_v3_11_3@nlohmann@@@std@@@2@$0A@@std@@@std@@AEBAPEAU?$_Tree_node@U?$pair@$$CBV?$basic_string@DU?$char_traits@D@std@@V?$allocator@D@2@@std@@V?$basic_json@Vmap@std@@Vvector@2@V?$basic_string@DU?$char_traits@D@std@@V?$allocator@D@2@@2@_N_J_KNVallocator@2@Uadl_serializer@json_abi_v3_11_3@nlohmann@@V?$vector@EV?$allocator@E@std@@@2@X@json_abi_v3_11_3@nlohmann@@@std@@PEAX@1@AEAY05$$CBD@Z
	??$_Find@$$BY06D@?$_Tree@V?$_Tmap_traits@V?$basic_string@DU?$char_traits@D@std@@V?$allocator@D@2@@std@@V?$basic_json@Vmap@std@@Vvector@2@V?$basic_string@DU?$char_traits@D@std@@V?$allocator@D@2@@2@_N_J_KNVallocator@2@Uadl_serializer@json_abi_v3_11_3@nlohmann@@V?$vector@EV?$allocator@E@std@@@2@X@json_abi_v3_11_3@nlohmann@@U?$less@X@2@V?$allocator@U?$pair@$$CBV?$basic_string@DU?$char_traits@D@std@@V?$allocator@D@2@@std@@V?$basic_json@Vmap@std@@Vvector@2@V?$basic_string@DU?$char_traits@D@std@@V?$allocator@D@2@@2@_N_J_KNVallocator@2@Uadl_serializer@json_abi_v3_11_3@nlohmann@@V?$vector@EV?$allocator@E@std@@@2@X@json_abi_v3_11_3@nlohmann@@@std@@@2@$0A@@std@@@std@@AEBAPEAU?$_Tree_node@U?$pair@$$CBV?$basic_string@DU?$char_traits@D@std@@V?$allocator@D@2@@std@@V?$basic_json@Vmap@std@@Vvector@2@V?$basic_string@DU?$char_traits@D@std@@V?$allocator@D@2@@2@_N_J_KNVallocator@2@Uadl_serializer@json_abi_v3_11_3@nlohmann@@V?$vector@EV?$allocator@E@std@@@2@X@json_abi_v3_11_3@nlohmann@@@std@@PEAX@1@AEAY06$$CBD@Z
	??$_Find@$$BY07D@?$_Tree@V?$_Tmap_traits@V?$basic_string@DU?$char_traits@D@std@@V?$allocator@D@2@@std@@V?$basic_json@Vmap@std@@Vvector@2@V?$basic_string@DU?$char_traits@D@std@@V?$allocator@D@2@@2@_N_J_KNVallocator@2@Uadl_serializer@json_abi_v3_11_3@nlohmann@@V?$vector@EV?$allocator@E@std@@@2@X@json_abi_v3_11_3@nlohmann@@U?$less@X@2@V?$allocator@U?$pair@$$CBV?$basic_string@DU?$char_traits@D@std@@V?$allocator@D@2@@std@@V?$basic_json@Vmap@std@@Vvector@2@V?$basic_string@DU?$char_traits@D@std@@V?$allocator@D@2@@2@_N_J_KNVallocator@2@Uadl_serializer@json_abi_v3_11_3@nlohmann@@V?$vector@EV?$allocator@E@std@@@2@X@json_abi_v3_11_3@nlohmann@@@std@@@2@$0A@@std@@@std@@AEBAPEAU?$_Tree_node@U?$pair@$$CBV?$basic_string@DU?$char_traits@D@std@@V?$allocator@D@2@@std@@V?$basic_json@Vmap@std@@Vvector@2@V?$basic_string@DU?$char_traits@D@std@@V?$allocator@D@2@@2@_N_J_KNVallocator@2@Uadl_serializer@json_abi_v3_11_3@nlohmann@@V?$vector@EV?$allocator@E@std@@@2@X@json_abi_v3_11_3@nlohmann@@@std@@PEAX@1@AEAY07$$CBD@Z
	??$_Find@$$BY08D@?$_Tree@V?$_Tmap_traits@V?$basic_string@DU?$char_traits@D@std@@V?$allocator@D@2@@std@@V?$basic_json@Vmap@std@@Vvector@2@V?$basic_string@DU?$char_traits@D@std@@V?$allocator@D@2@@2@_N_J_KNVallocator@2@Uadl_serializer@json_abi_v3_11_3@nlohmann@@V?$vector@EV?$allocator@E@std@@@2@X@json_abi_v3_11_3@nlohmann@@U?$less@X@2@V?$allocator@U?$pair@$$CBV?$basic_string@DU?$char_traits@D@std@@V?$allocator@D@2@@std@@V?$basic_json@Vmap@std@@Vvector@2@V?$basic_string@DU?$char_traits@D@std@@V?$allocator@D@2@@2@_N_J_KNVallocator@2@Uadl_serializer@json_abi_v3_11_3@nlohmann@@V?$vector@EV?$allocator@E@std@@@2@X@json_abi_v3_11_3@nlohmann@@@std@@@2@$0A@@std@@@std@@AEBAPEAU?$_Tree_node@U?$pair@$$CBV?$basic_string@DU?$char_traits@D@std@@V?$allocator@D@2@@std@@V?$basic_json@Vmap@std@@Vvector@2@V?$basic_string@DU?$char_traits@D@std@@V?$allocator@D@2@@2@_N_J_KNVallocator@2@Uadl_serializer@json_abi_v3_11_3@nlohmann@@V?$vector@EV?$allocator@E@std@@@2@X@json_abi_v3_11_3@nlohmann@@@std@@PEAX@1@AEAY08$$CBD@Z
	??$_Find@$$BY09D@?$_Tree@V?$_Tmap_traits@V?$basic_string@DU?$char_traits@D@std@@V?$allocator@D@2@@std@@V?$basic_json@Vmap@std@@Vvector@2@V?$basic_string@DU?$char_traits@D@std@@V?$allocator@D@2@@2@_N_J_KNVallocator@2@Uadl_serializer@json_abi_v3_11_3@nlohmann@@V?$vector@EV?$allocator@E@std@@@2@X@json_abi_v3_11_3@nlohmann@@U?$less@X@2@V?$allocator@U?$pair@$$CBV?$basic_string@DU?$char_traits@D@std@@V?$allocator@D@2@@std@@V?$basic_json@Vmap@std@@Vvector@2@V?$basic_string@DU?$char_traits@D@std@@V?$allocator@D@2@@2@_N_J_KNVallocator@2@Uadl_serializer@json_abi_v3_11_3@nlohmann@@V?$vector@EV?$allocator@E@std@@@2@X@json_abi_v3_11_3@nlohmann@@@std@@@2@$0A@@std@@@std@@AEBAPEAU?$_Tree_node@U?$pair@$$CBV?$basic_string@DU?$char_traits@D@std@@V?$allocator@D@2@@std@@V?$basic_json@Vmap@std@@Vvector@2@V?$basic_string@DU?$char_traits@D@std@@V?$allocator@D@2@@2@_N_J_KNVallocator@2@Uadl_serializer@json_abi_v3_11_3@nlohmann@@V?$vector@EV?$allocator@E@std@@@2@X@json_abi_v3_11_3@nlohmann@@@std@@PEAX@1@AEAY09$$CBD@Z
	??$_Find@$$BY0BA@D@?$_Tree@V?$_Tmap_traits@V?$basic_string@DU?$char_traits@D@std@@V?$allocator@D@2@@std@@V?$basic_json@Vmap@std@@Vvector@2@V?$basic_string@DU?$char_traits@D@std@@V?$allocator@D@2@@2@_N_J_KNVallocator@2@Uadl_serializer@json_abi_v3_11_3@nlohmann@@V?$vector@EV?$allocator@E@std@@@2@X@json_abi_v3_11_3@nlohmann@@U?$less@X@2@V?$allocator@U?$pair@$$CBV?$basic_string@DU?$char_traits@D@std@@V?$allocator@D@2@@std@@V?$basic_json@Vmap@std@@Vvector@2@V?$basic_string@DU?$char_traits@D@std@@V?$allocator@D@2@@2@_N_J_KNVallocator@2@Uadl_serializer@json_abi_v3_11_3@nlohmann@@V?$vector@EV?$allocator@E@std@@@2@X@json_abi_v3_11_3@nlohmann@@@std@@@2@$0A@@std@@@std@@AEBAPEAU?$_Tree_node@U?$pair@$$CBV?$basic_string@DU?$char_traits@D@std@@V?$allocator@D@2@@std@@V?$basic_json@Vmap@std@@Vvector@2@V?$basic_string@DU?$char_traits@D@std@@V?$allocator@D@2@@2@_N_J_KNVallocator@2@Uadl_serializer@json_abi_v3_11_3@nlohmann@@V?$vector@EV?$allocator@E@std@@@2@X@json_abi_v3_11_3@nlohmann@@@std@@PEAX@1@AEAY0BA@$$CBD@Z
	??$_Find@$$BY0BB@D@?$_Tree@V?$_Tmap_traits@V?$basic_string@DU?$char_traits@D@std@@V?$allocator@D@2@@std@@V?$basic_json@Vmap@std@@Vvector@2@V?$basic_string@DU?$char_traits@D@std@@V?$allocator@D@2@@2@_N_J_KNVallocator@2@Uadl_serializer@json_abi_v3_11_3@nlohmann@@V?$vector@EV?$allocator@E@std@@@2@X@json_abi_v3_11_3@nlohmann@@U?$less@X@2@V?$allocator@U?$pair@$$CBV?$basic_string@DU?$char_traits@D@std@@V?$allocator@D@2@@std@@V?$basic_json@Vmap@std@@Vvector@2@V?$basic_string@DU?$char_traits@D@std@@V?$allocator@D@2@@2@_N_J_KNVallocator@2@Uadl_serializer@json_abi_v3_11_3@nlohmann@@V?$vector@EV?$allocator@E@std@@@2@X@json_abi_v3_11_3@nlohmann@@@std@@@2@$0A@@std@@@std@@AEBAPEAU?$_Tree_node@U?$pair@$$CBV?$basic_string@DU?$char_traits@D@std@@V?$allocator@D@2@@std@@V?$basic_json@Vmap@std@@Vvector@2@V?$basic_string@DU?$char_traits@D@std@@V?$allocator@D@2@@2@_N_J_KNVallocator@2@Uadl_serializer@json_abi_v3_11_3@nlohmann@@V?$vector@EV?$allocator@E@std@@@2@X@json_abi_v3_11_3@nlohmann@@@std@@PEAX@1@AEAY0BB@$$CBD@Z
	??$_Find@$$BY0BD@D@?$_Tree@V?$_Tmap_traits@V?$basic_string@DU?$char_traits@D@std@@V?$allocator@D@2@@std@@V?$basic_json@Vmap@std@@Vvector@2@V?$basic_string@DU?$char_traits@D@std@@V?$allocator@D@2@@2@_N_J_KNVallocator@2@Uadl_serializer@json_abi_v3_11_3@nlohmann@@V?$vector@EV?$allocator@E@std@@@2@X@json_abi_v3_11_3@nlohmann@@U?$less@X@2@V?$allocator@U?$pair@$$CBV?$basic_string@DU?$char_traits@D@std@@V?$allocator@D@2@@std@@V?$basic_json@Vmap@std@@Vvector@2@V?$basic_string@DU?$char_traits@D@std@@V?$allocator@D@2@@2@_N_J_KNVallocator@2@Uadl_serializer@json_abi_v3_11_3@nlohmann@@V?$vector@EV?$allocator@E@std@@@2@X@json_abi_v3_11_3@nlohmann@@@std@@@2@$0A@@std@@@std@@AEBAPEAU?$_Tree_node@U?$pair@$$CBV?$basic_string@DU?$char_traits@D@std@@V?$allocator@D@2@@std@@V?$basic_json@Vmap@std@@Vvector@2@V?$basic_string@DU?$char_traits@D@std@@V?$allocator@D@2@@2@_N_J_KNVallocator@2@Uadl_serializer@json_abi_v3_11_3@nlohmann@@V?$vector@EV?$allocator@E@std@@@2@X@json_abi_v3_11_3@nlohmann@@@std@@PEAX@1@AEAY0BD@$$CBD@Z
	??$_Find@$$BY0BF@D@?$_Tree@V?$_Tmap_traits@V?$basic_string@DU?$char_traits@D@std@@V?$allocator@D@2@@std@@V?$basic_json@Vmap@std@@Vvector@2@V?$basic_string@DU?$char_traits@D@std@@V?$allocator@D@2@@2@_N_J_KNVallocator@2@Uadl_serializer@json_abi_v3_11_3@nlohmann@@V?$vector@EV?$allocator@E@std@@@2@X@json_abi_v3_11_3@nlohmann@@U?$less@X@2@V?$allocator@U?$pair@$$CBV?$basic_string@DU?$char_traits@D@std@@V?$allocator@D@2@@std@@V?$basic_json@Vmap@std@@Vvector@2@V?$basic_string@DU?$char_traits@D@std@@V?$allocator@D@2@@2@_N_J_KNVallocator@2@Uadl_serializer@json_abi_v3_11_3@nlohmann@@V?$vector@EV?$allocator@E@std@@@2@X@json_abi_v3_11_3@nlohmann@@@std@@@2@$0A@@std@@@std@@AEBAPEAU?$_Tree_node@U?$pair@$$CBV?$basic_string@DU?$char_traits@D@std@@V?$allocator@D@2@@std@@V?$basic_json@Vmap@std@@Vvector@2@V?$basic_string@DU?$char_traits@D@std@@V?$allocator@D@2@@2@_N_J_KNVallocator@2@Uadl_serializer@json_abi_v3_11_3@nlohmann@@V?$vector@EV?$allocator@E@std@@@2@X@json_abi_v3_11_3@nlohmann@@@std@@PEAX@1@AEAY0BF@$$CBD@Z
	??$_Find@$$BY0BH@D@?$_Tree@V?$_Tmap_traits@V?$basic_string@DU?$char_traits@D@std@@V?$allocator@D@2@@std@@V?$basic_json@Vmap@std@@Vvector@2@V?$basic_string@DU?$char_traits@D@std@@V?$allocator@D@2@@2@_N_J_KNVallocator@2@Uadl_serializer@json_abi_v3_11_3@nlohmann@@V?$vector@EV?$allocator@E@std@@@2@X@json_abi_v3_11_3@nlohmann@@U?$less@X@2@V?$allocator@U?$pair@$$CBV?$basic_string@DU?$char_traits@D@std@@V?$allocator@D@2@@std@@V?$basic_json@Vmap@std@@Vvector@2@V?$basic_string@DU?$char_traits@D@std@@V?$allocator@D@2@@2@_N_J_KNVallocator@2@Uadl_serializer@json_abi_v3_11_3@nlohmann@@V?$vector@EV?$allocator@E@std@@@2@X@json_abi_v3_11_3@nlohmann@@@std@@@2@$0A@@std@@@std@@AEBAPEAU?$_Tree_node@U?$pair@$$CBV?$basic_string@DU?$char_traits@D@std@@V?$allocator@D@2@@std@@V?$basic_json@Vmap@std@@Vvector@2@V?$basic_string@DU?$char_traits@D@std@@V?$allocator@D@2@@2@_N_J_KNVallocator@2@Uadl_serializer@json_abi_v3_11_3@nlohmann@@V?$vector@EV?$allocator@E@std@@@2@X@json_abi_v3_11_3@nlohmann@@@std@@PEAX@1@AEAY0BH@$$CBD@Z
	??$_Find@$$BY0M@D@?$_Tree@V?$_Tmap_traits@V?$basic_string@DU?$char_traits@D@std@@V?$allocator@D@2@@std@@V?$basic_json@Vmap@std@@Vvector@2@V?$basic_string@DU?$char_traits@D@std@@V?$allocator@D@2@@2@_N_J_KNVallocator@2@Uadl_serializer@json_abi_v3_11_3@nlohmann@@V?$vector@EV?$allocator@E@std@@@2@X@json_abi_v3_11_3@nlohmann@@U?$less@X@2@V?$allocator@U?$pair@$$CBV?$basic_string@DU?$char_traits@D@std@@V?$allocator@D@2@@std@@V?$basic_json@Vmap@std@@Vvector@2@V?$basic_string@DU?$char_traits@D@std@@V?$allocator@D@2@@2@_N_J_KNVallocator@2@Uadl_serializer@json_abi_v3_11_3@nlohmann@@V?$vector@EV?$allocator@E@std@@@2@X@json_abi_v3_11_3@nlohmann@@@std@@@2@$0A@@std@@@std@@AEBAPEAU?$_Tree_node@U?$pair@$$CBV?$basic_string@DU?$char_traits@D@std@@V?$allocator@D@2@@std@@V?$basic_json@Vmap@std@@Vvector@2@V?$basic_string@DU?$char_traits@D@std@@V?$allocator@D@2@@2@_N_J_KNVallocator@2@Uadl_serializer@json_abi_v3_11_3@nlohmann@@V?$vector@EV?$allocator@E@std@@@2@X@json_abi_v3_11_3@nlohmann@@@std@@PEAX@1@AEAY0M@$$CBD@Z
	??$_Find@$$BY0N@D@?$_Tree@V?$_Tmap_traits@V?$basic_string@DU?$char_traits@D@std@@V?$allocator@D@2@@std@@V?$basic_json@Vmap@std@@Vvector@2@V?$basic_string@DU?$char_traits@D@std@@V?$allocator@D@2@@2@_N_J_KNVallocator@2@Uadl_serializer@json_abi_v3_11_3@nlohmann@@V?$vector@EV?$allocator@E@std@@@2@X@json_abi_v3_11_3@nlohmann@@U?$less@X@2@V?$allocator@U?$pair@$$CBV?$basic_string@DU?$char_traits@D@std@@V?$allocator@D@2@@std@@V?$basic_json@Vmap@std@@Vvector@2@V?$basic_string@DU?$char_traits@D@std@@V?$allocator@D@2@@2@_N_J_KNVallocator@2@Uadl_serializer@json_abi_v3_11_3@nlohmann@@V?$vector@EV?$allocator@E@std@@@2@X@json_abi_v3_11_3@nlohmann@@@std@@@2@$0A@@std@@@std@@AEBAPEAU?$_Tree_node@U?$pair@$$CBV?$basic_string@DU?$char_traits@D@std@@V?$allocator@D@2@@std@@V?$basic_json@Vmap@std@@Vvector@2@V?$basic_string@DU?$char_traits@D@std@@V?$allocator@D@2@@2@_N_J_KNVallocator@2@Uadl_serializer@json_abi_v3_11_3@nlohmann@@V?$vector@EV?$allocator@E@std@@@2@X@json_abi_v3_11_3@nlohmann@@@std@@PEAX@1@AEAY0N@$$CBD@Z
	??$_Find@$$BY0O@D@?$_Tree@V?$_Tmap_traits@V?$basic_string@DU?$char_traits@D@std@@V?$allocator@D@2@@std@@V?$basic_json@Vmap@std@@Vvector@2@V?$basic_string@DU?$char_traits@D@std@@V?$allocator@D@2@@2@_N_J_KNVallocator@2@Uadl_serializer@json_abi_v3_11_3@nlohmann@@V?$vector@EV?$allocator@E@std@@@2@X@json_abi_v3_11_3@nlohmann@@U?$less@X@2@V?$allocator@U?$pair@$$CBV?$basic_string@DU?$char_traits@D@std@@V?$allocator@D@2@@std@@V?$basic_json@Vmap@std@@Vvector@2@V?$basic_string@DU?$char_traits@D@std@@V?$allocator@D@2@@2@_N_J_KNVallocator@2@Uadl_serializer@json_abi_v3_11_3@nlohmann@@V?$vector@EV?$allocator@E@std@@@2@X@json_abi_v3_11_3@nlohmann@@@std@@@2@$0A@@std@@@std@@AEBAPEAU?$_Tree_node@U?$pair@$$CBV?$basic_string@DU?$char_traits@D@std@@V?$allocator@D@2@@std@@V?$basic_json@Vmap@std@@Vvector@2@V?$basic_string@DU?$char_traits@D@std@@V?$allocator@D@2@@2@_N_J_KNVallocator@2@Uadl_serializer@json_abi_v3_11_3@nlohmann@@V?$vector@EV?$allocator@E@std@@@2@X@json_abi_v3_11_3@nlohmann@@@std@@PEAX@1@AEAY0O@$$CBD@Z
	??$_Find@$$BY0P@D@?$_Tree@V?$_Tmap_traits@V?$basic_string@DU?$char_traits@D@std@@V?$allocator@D@2@@std@@V?$basic_json@Vmap@std@@Vvector@2@V?$basic_string@DU?$char_traits@D@std@@V?$allocator@D@2@@2@_N_J_KNVallocator@2@Uadl_serializer@json_abi_v3_11_3@nlohmann@@V?$vector@EV?$allocator@E@std@@@2@X@json_abi_v3_11_3@nlohmann@@U?$less@X@2@V?$allocator@U?$pair@$$CBV?$basic_string@DU?$char_traits@D@std@@V?$allocator@D@2@@std@@V?$basic_json@Vmap@std@@Vvector@2@V?$basic_string@DU?$char_traits@D@std@@V?$allocator@D@2@@2@_N_J_KNVallocator@2@Uadl_serializer@json_abi_v3_11_3@nlohmann@@V?$vector@EV?$allocator@E@std@@@2@X@json_abi_v3_11_3@nlohmann@@@std@@@2@$0A@@std@@@std@@AEBAPEAU?$_Tree_node@U?$pair@$$CBV?$basic_string@DU?$char_traits@D@std@@V?$allocator@D@2@@std@@V?$basic_json@Vmap@std@@Vvector@2@V?$basic_string@DU?$char_traits@D@std@@V?$allocator@D@2@@2@_N_J_KNVallocator@2@Uadl_serializer@json_abi_v3_11_3@nlohmann@@V?$vector@EV?$allocator@E@std@@@2@X@json_abi_v3_11_3@nlohmann@@@std@@PEAX@1@AEAY0P@$$CBD@Z
	??$_Find@V?$basic_string@DU?$char_traits@D@std@@V?$allocator@D@2@@std@@@?$_Hash@V?$_Umap_traits@V?$basic_string@DU?$char_traits@D@std@@V?$allocator@D@2@@std@@UConfigProfile@vrc@@V?$_Uhash_compare@V?$basic_string@DU?$char_traits@D@std@@V?$allocator@D@2@@std@@U?$hash@V?$basic_string@DU?$char_traits@D@std@@V?$allocator@D@2@@std@@@2@U?$equal_to@V?$basic_string@DU?$char_traits@D@std@@V?$allocator@D@2@@std@@@2@@2@V?$allocator@U?$pair@$$CBV?$basic_string@DU?$char_traits@D@std@@V?$allocator@D@2@@std@@UConfigProfile@vrc@@@std@@@2@$0A@@std@@@std@@AEBAPEAU?$_List_node@U?$pair@$$CBV?$basic_string@DU?$char_traits@D@std@@V?$allocator@D@2@@std@@UConfigProfile@vrc@@@std@@PEAX@1@AEBV?$basic_string@DU?$char_traits@D@std@@V?$allocator@D@2@@1@_K@Z
	??$_Find@V?$basic_string@DU?$char_traits@D@std@@V?$allocator@D@2@@std@@@?$_Hash@V?$_Umap_traits@V?$basic_string@DU?$char_traits@D@std@@V?$allocator@D@2@@std@@UInputProfile@vrc@@V?$_Uhash_compare@V?$basic_string@DU?$char_traits@D@std@@V?$allocator@D@2@@std@@U?$hash@V?$basic_string@DU?$char_traits@D@std@@V?$allocator@D@2@@std@@@2@U?$equal_to@V?$basic_string@DU?$char_traits@D@std@@V?$allocator@D@2@@std@@@2@@2@V?$allocator@U?$pair@$$CBV?$basic_string@DU?$char_traits@D@std@@V?$allocator@D@2@@std@@UInputProfile@vrc@@@std@@@2@$0A@@std@@@std@@AEBAPEAU?$_List_node@U?$pair@$$CBV?$basic_string@DU?$char_traits@D@std@@V?$allocator@D@2@@std@@UInputProfile@vrc@@@std@@PEAX@1@AEBV?$basic_string@DU?$char_traits@D@std@@V?$allocator@D@2@@1@_K@Z
	??$_Find@W4InputAction@vrc@@@?$_Hash@V?$_Umap_traits@W4InputAction@vrc@@MV?$_Uhash_compare@W4InputAction@vrc@@U?$hash@W4InputAction@vrc@@@std@@U?$equal_to@W4InputAction@vrc@@@4@@std@@V?$allocator@U?$pair@$$CBW4InputAction@vrc@@M@std@@@4@$0A@@std@@@std@@AEBAPEAU?$_List_node@U?$pair@$$CBW4InputAction@vrc@@M@std@@PEAX@1@AEBW4InputAction@vrc@@_K@Z
	??$_Find_last@G@?$_Hash@V?$_Umap_traits@G_NV?$_Uhash_compare@GU?$hash@G@std@@U?$equal_to@G@2@@std@@V?$allocator@U?$pair@$$CBG_N@std@@@2@$0A@@std@@@std@@IEBA?AU?$_Hash_find_last_result@PEAU?$_List_node@U?$pair@$$CBG_N@std@@PEAX@std@@@1@AEBG_K@Z
	??$_Find_last@V?$basic_string@DU?$char_traits@D@std@@V?$allocator@D@2@@std@@@?$_Hash@V?$_Umap_traits@V?$basic_string@DU?$char_traits@D@std@@V?$allocator@D@2@@std@@UConfigProfile@vrc@@V?$_Uhash_compare@V?$basic_string@DU?$char_traits@D@std@@V?$allocator@D@2@@std@@U?$hash@V?$basic_string@DU?$char_traits@D@std@@V?$allocator@D@2@@std@@@2@U?$equal_to@V?$basic_string@DU?$char_traits@D@std@@V?$allocator@D@2@@std@@@2@@2@V?$allocator@U?$pair@$$CBV?$basic_string@DU?$char_traits@D@std@@V?$allocator@D@2@@std@@UConfigProfile@vrc@@@std@@@2@$0A@@std@@@std@@IEBA?AU?$_Hash_find_last_result@PEAU?$_List_node@U?$pair@$$CBV?$basic_string@DU?$char_traits@D@std@@V?$allocator@D@2@@std@@UConfigProfile@vrc@@@std@@PEAX@std@@@1@AEBV?$basic_string@DU?$char_traits@D@std@@V?$allocator@D@2@@1@_K@Z
	??$_Find_last@V?$basic_string@DU?$char_traits@D@std@@V?$allocator@D@2@@std@@@?$_Hash@V?$_Umap_traits@V?$basic_string@DU?$char_traits@D@std@@V?$allocator@D@2@@std@@UInputProfile@vrc@@V?$_Uhash_compare@V?$basic_string@DU?$char_traits@D@std@@V?$allocator@D@2@@std@@U?$hash@V?$basic_string@DU?$char_traits@D@std@@V?$allocator@D@2@@std@@@2@U?$equal_to@V?$basic_string@DU?$char_traits@D@std@@V?$allocator@D@2@@std@@@2@@2@V?$allocator@U?$pair@$$CBV?$basic_string@DU?$char_traits@D@std@@V?$allocator@D@2@@std@@UInputProfile@vrc@@@std@@@2@$0A@@std@@@std@@IEBA?AU?$_Hash_find_last_result@PEAU?$_List_node@U?$pair@$$CBV?$basic_string@DU?$char_traits@D@std@@V?$allocator@D@2@@std@@UInputProfile@vrc@@@std@@PEAX@std@@@1@AEBV?$basic_string@DU?$char_traits@D@std@@V?$allocator@D@2@@1@_K@Z
	??$_Find_last@V?$basic_string@DU?$char_traits@D@std@@V?$allocator@D@2@@std@@@?$_Hash@V?$_Umap_traits@V?$basic_string@DU?$char_traits@D@std@@V?$allocator@D@2@@std@@V?$function@$$A6AXXZ@2@V?$_Uhash_compare@V?$basic_string@DU?$char_traits@D@std@@V?$allocator@D@2@@std@@U?$hash@V?$basic_string@DU?$char_traits@D@std@@V?$allocator@D@2@@std@@@2@U?$equal_to@V?$basic_string@DU?$char_traits@D@std@@V?$allocator@D@2@@std@@@2@@2@V?$allocator@U?$pair@$$CBV?$basic_string@DU?$char_traits@D@std@@V?$allocator@D@2@@std@@V?$function@$$A6AXXZ@2@@std@@@2@$0A@@std@@@std@@IEBA?AU?$_Hash_find_last_result@PEAU?$_List_node@U?$pair@$$CBV?$basic_string@DU?$char_traits@D@std@@V?$allocator@D@2@@std@@V?$function@$$A6AXXZ@2@@std@@PEAX@std@@@1@AEBV?$basic_string@DU?$char_traits@D@std@@V?$allocator@D@2@@1@_K@Z
	??$_Find_last@W4InputAction@vrc@@@?$_Hash@V?$_Umap_traits@W4InputAction@vrc@@MV?$_Uhash_compare@W4InputAction@vrc@@U?$hash@W4InputAction@vrc@@@std@@U?$equal_to@W4InputAction@vrc@@@4@@std@@V?$allocator@U?$pair@$$CBW4InputAction@vrc@@M@std@@@4@$0A@@std@@@std@@IEBA?AU?$_Hash_find_last_result@PEAU?$_List_node@U?$pair@$$CBW4InputAction@vrc@@M@std@@PEAX@std@@@1@AEBW4InputAction@vrc@@_K@Z
	??$_Find_lower_bound@$$BY03D@?$_Tree@V?$_Tmap_traits@V?$basic_string@DU?$char_traits@D@std@@V?$allocator@D@2@@std@@V?$basic_json@Vmap@std@@Vvector@2@V?$basic_string@DU?$char_traits@D@std@@V?$allocator@D@2@@2@_N_J_KNVallocator@2@Uadl_serializer@json_abi_v3_11_3@nlohmann@@V?$vector@EV?$allocator@E@std@@@2@X@json_abi_v3_11_3@nlohmann@@U?$less@X@2@V?$allocator@U?$pair@$$CBV?$basic_string@DU?$char_traits@D@std@@V?$allocator@D@2@@std@@V?$basic_json@Vmap@std@@Vvector@2@V?$basic_string@DU?$char_traits@D@std@@V?$allocator@D@2@@2@_N_J_KNVallocator@2@Uadl_serializer@json_abi_v3_11_3@nlohmann@@V?$vector@EV?$allocator@E@std@@@2@X@json_abi_v3_11_3@nlohmann@@@std@@@2@$0A@@std@@@std@@IEBA?AU?$_Tree_find_result@PEAU?$_Tree_node@U?$pair@$$CBV?$basic_string@DU?$char_traits@D@std@@V?$allocator@D@2@@std@@V?$basic_json@Vmap@std@@Vvector@2@V?$basic_string@DU?$char_traits@D@std@@V?$allocator@D@2@@2@_N_J_KNVallocator@2@Uadl_serializer@json_abi_v3_11_3@nlohmann@@V?$vector@EV?$allocator@E@std@@@2@X@json_abi_v3_11_3@nlohmann@@@std@@PEAX@std@@@1@AEAY03$$CBD@Z
	??$_Find_lower_bound@$$BY04D@?$_Tree@V?$_Tmap_traits@V?$basic_string@DU?$char_traits@D@std@@V?$allocator@D@2@@std@@V?$basic_json@Vmap@std@@Vvector@2@V?$basic_string@DU?$char_traits@D@std@@V?$allocator@D@2@@2@_N_J_KNVallocator@2@Uadl_serializer@json_abi_v3_11_3@nlohmann@@V?$vector@EV?$allocator@E@std@@@2@X@json_abi_v3_11_3@nlohmann@@U?$less@X@2@V?$allocator@U?$pair@$$CBV?$basic_string@DU?$char_traits@D@std@@V?$allocator@D@2@@std@@V?$basic_json@Vmap@std@@Vvector@2@V?$basic_string@DU?$char_traits@D@std@@V?$allocator@D@2@@2@_N_J_KNVallocator@2@Uadl_serializer@json_abi_v3_11_3@nlohmann@@V?$vector@EV?$allocator@E@std@@@2@X@json_abi_v3_11_3@nlohmann@@@std@@@2@$0A@@std@@@std@@IEBA?AU?$_Tree_find_result@PEAU?$_Tree_node@U?$pair@$$CBV?$basic_string@DU?$char_traits@D@std@@V?$allocator@D@2@@std@@V?$basic_json@Vmap@std@@Vvector@2@V?$basic_string@DU?$char_traits@D@std@@V?$allocator@D@2@@2@_N_J_KNVallocator@2@Uadl_serializer@json_abi_v3_11_3@nlohmann@@V?$vector@EV?$allocator@E@std@@@2@X@json_abi_v3_11_3@nlohmann@@@std@@PEAX@std@@@1@AEAY04$$CBD@Z
	??$_Find_lower_bound@$$BY05D@?$_Tree@V?$_Tmap_traits@V?$basic_string@DU?$char_traits@D@std@@V?$allocator@D@2@@std@@V?$basic_json@Vmap@std@@Vvector@2@V?$basic_string@DU?$char_traits@D@std@@V?$allocator@D@2@@2@_N_J_KNVallocator@2@Uadl_serializer@json_abi_v3_11_3@nlohmann@@V?$vector@EV?$allocator@E@std@@@2@X@json_abi_v3_11_3@nlohmann@@U?$less@X@2@V?$allocator@U?$pair@$$CBV?$basic_string@DU?$char_traits@D@std@@V?$allocator@D@2@@std@@V?$basic_json@Vmap@std@@Vvector@2@V?$basic_string@DU?$char_traits@D@std@@V?$allocator@D@2@@2@_N_J_KNVallocator@2@Uadl_serializer@json_abi_v3_11_3@nlohmann@@V?$vector@EV?$allocator@E@std@@@2@X@json_abi_v3_11_3@nlohmann@@@std@@@2@$0A@@std@@@std@@IEBA?AU?$_Tree_find_result@PEAU?$_Tree_node@U?$pair@$$CBV?$basic_string@DU?$char_traits@D@std@@V?$allocator@D@2@@std@@V?$basic_json@Vmap@std@@Vvector@2@V?$basic_string@DU?$char_traits@D@std@@V?$allocator@D@2@@2@_N_J_KNVallocator@2@Uadl_serializer@json_abi_v3_11_3@nlohmann@@V?$vector@EV?$allocator@E@std@@@2@X@json_abi_v3_11_3@nlohmann@@@std@@PEAX@std@@@1@AEAY05$$CBD@Z
	??$_Find_lower_bound@$$BY06D@?$_Tree@V?$_Tmap_traits@V?$basic_string@DU?$char_traits@D@std@@V?$allocator@D@2@@std@@V?$basic_json@Vmap@std@@Vvector@2@V?$basic_string@DU?$char_traits@D@std@@V?$allocator@D@2@@2@_N_J_KNVallocator@2@Uadl_serializer@json_abi_v3_11_3@nlohmann@@V?$vector@EV?$allocator@E@std@@@2@X@json_abi_v3_11_3@nlohmann@@U?$less@X@2@V?$allocator@U?$pair@$$CBV?$basic_string@DU?$char_traits@D@std@@V?$allocator@D@2@@std@@V?$basic_json@Vmap@std@@Vvector@2@V?$basic_string@DU?$char_traits@D@std@@V?$allocator@D@2@@2@_N_J_KNVallocator@2@Uadl_serializer@json_abi_v3_11_3@nlohmann@@V?$vector@EV?$allocator@E@std@@@2@X@json_abi_v3_11_3@nlohmann@@@std@@@2@$0A@@std@@@std@@IEBA?AU?$_Tree_find_result@PEAU?$_Tree_node@U?$pair@$$CBV?$basic_string@DU?$char_traits@D@std@@V?$allocator@D@2@@std@@V?$basic_json@Vmap@std@@Vvector@2@V?$basic_string@DU?$char_traits@D@std@@V?$allocator@D@2@@2@_N_J_KNVallocator@2@Uadl_serializer@json_abi_v3_11_3@nlohmann@@V?$vector@EV?$allocator@E@std@@@2@X@json_abi_v3_11_3@nlohmann@@@std@@PEAX@std@@@1@AEAY06$$CBD@Z
	??$_Find_lower_bound@$$BY07D@?$_Tree@V?$_Tmap_traits@V?$basic_string@DU?$char_traits@D@std@@V?$allocator@D@2@@std@@V?$basic_json@Vmap@std@@Vvector@2@V?$basic_string@DU?$char_traits@D@std@@V?$allocator@D@2@@2@_N_J_KNVallocator@2@Uadl_serializer@json_abi_v3_11_3@nlohmann@@V?$vector@EV?$allocator@E@std@@@2@X@json_abi_v3_11_3@nlohmann@@U?$less@X@2@V?$allocator@U?$pair@$$CBV?$basic_string@DU?$char_traits@D@std@@V?$allocator@D@2@@std@@V?$basic_json@Vmap@std@@Vvector@2@V?$basic_string@DU?$char_traits@D@std@@V?$allocator@D@2@@2@_N_J_KNVallocator@2@Uadl_serializer@json_abi_v3_11_3@nlohmann@@V?$vector@EV?$allocator@E@std@@@2@X@json_abi_v3_11_3@nlohmann@@@std@@@2@$0A@@std@@@std@@IEBA?AU?$_Tree_find_result@PEAU?$_Tree_node@U?$pair@$$CBV?$basic_string@DU?$char_traits@D@std@@V?$allocator@D@2@@std@@V?$basic_json@Vmap@std@@Vvector@2@V?$basic_string@DU?$char_traits@D@std@@V?$allocator@D@2@@2@_N_J_KNVallocator@2@Uadl_serializer@json_abi_v3_11_3@nlohmann@@V?$vector@EV?$allocator@E@std@@@2@X@json_abi_v3_11_3@nlohmann@@@std@@PEAX@std@@@1@AEAY07$$CBD@Z
	??$_Find_lower_bound@$$BY08D@?$_Tree@V?$_Tmap_traits@V?$basic_string@DU?$char_traits@D@std@@V?$allocator@D@2@@std@@V?$basic_json@Vmap@std@@Vvector@2@V?$basic_string@DU?$char_traits@D@std@@V?$allocator@D@2@@2@_N_J_KNVallocator@2@Uadl_serializer@json_abi_v3_11_3@nlohmann@@V?$vector@EV?$allocator@E@std@@@2@X@json_abi_v3_11_3@nlohmann@@U?$less@X@2@V?$allocator@U?$pair@$$CBV?$basic_string@DU?$char_traits@D@std@@V?$allocator@D@2@@std@@V?$basic_json@Vmap@std@@Vvector@2@V?$basic_string@DU?$char_traits@D@std@@V?$allocator@D@2@@2@_N_J_KNVallocator@2@Uadl_serializer@json_abi_v3_11_3@nlohmann@@V?$vector@EV?$allocator@E@std@@@2@X@json_abi_v3_11_3@nlohmann@@@std@@@2@$0A@@std@@@std@@IEBA?AU?$_Tree_find_result@PEAU?$_Tree_node@U?$pair@$$CBV?$basic_string@DU?$char_traits@D@std@@V?$allocator@D@2@@std@@V?$basic_json@Vmap@std@@Vvector@2@V?$basic_string@DU?$char_traits@D@std@@V?$allocator@D@2@@2@_N_J_KNVallocator@2@Uadl_serializer@json_abi_v3_11_3@nlohmann@@V?$vector@EV?$allocator@E@std@@@2@X@json_abi_v3_11_3@nlohmann@@@std@@PEAX@std@@@1@AEAY08$$CBD@Z
	??$_Find_lower_bound@$$BY09D@?$_Tree@V?$_Tmap_traits@V?$basic_string@DU?$char_traits@D@std@@V?$allocator@D@2@@std@@V?$basic_json@Vmap@std@@Vvector@2@V?$basic_string@DU?$char_traits@D@std@@V?$allocator@D@2@@2@_N_J_KNVallocator@2@Uadl_serializer@json_abi_v3_11_3@nlohmann@@V?$vector@EV?$allocator@E@std@@@2@X@json_abi_v3_11_3@nlohmann@@U?$less@X@2@V?$allocator@U?$pair@$$CBV?$basic_string@DU?$char_traits@D@std@@V?$allocator@D@2@@std@@V?$basic_json@Vmap@std@@Vvector@2@V?$basic_string@DU?$char_traits@D@std@@V?$allocator@D@2@@2@_N_J_KNVallocator@2@Uadl_serializer@json_abi_v3_11_3@nlohmann@@V?$vector@EV?$allocator@E@std@@@2@X@json_abi_v3_11_3@nlohmann@@@std@@@2@$0A@@std@@@std@@IEBA?AU?$_Tree_find_result@PEAU?$_Tree_node@U?$pair@$$CBV?$basic_string@DU?$char_traits@D@std@@V?$allocator@D@2@@std@@V?$basic_json@Vmap@std@@Vvector@2@V?$basic_string@DU?$char_traits@D@std@@V?$allocator@D@2@@2@_N_J_KNVallocator@2@Uadl_serializer@json_abi_v3_11_3@nlohmann@@V?$vector@EV?$allocator@E@std@@@2@X@json_abi_v3_11_3@nlohmann@@@std@@PEAX@std@@@1@AEAY09$$CBD@Z
	??$_Find_lower_bound@$$BY0BA@D@?$_Tree@V?$_Tmap_traits@V?$basic_string@DU?$char_traits@D@std@@V?$allocator@D@2@@std@@V?$basic_json@Vmap@std@@Vvector@2@V?$basic_string@DU?$char_traits@D@std@@V?$allocator@D@2@@2@_N_J_KNVallocator@2@Uadl_serializer@json_abi_v3_11_3@nlohmann@@V?$vector@EV?$allocator@E@std@@@2@X@json_abi_v3_11_3@nlohmann@@U?$less@X@2@V?$allocator@U?$pair@$$CBV?$basic_string@DU?$char_traits@D@std@@V?$allocator@D@2@@std@@V?$basic_json@Vmap@std@@Vvector@2@V?$basic_string@DU?$char_traits@D@std@@V?$allocator@D@2@@2@_N_J_KNVallocator@2@Uadl_serializer@json_abi_v3_11_3@nlohmann@@V?$vector@EV?$allocator@E@std@@@2@X@json_abi_v3_11_3@nlohmann@@@std@@@2@$0A@@std@@@std@@IEBA?AU?$_Tree_find_result@PEAU?$_Tree_node@U?$pair@$$CBV?$basic_string@DU?$char_traits@D@std@@V?$allocator@D@2@@std@@V?$basic_json@Vmap@std@@Vvector@2@V?$basic_string@DU?$char_traits@D@std@@V?$allocator@D@2@@2@_N_J_KNVallocator@2@Uadl_serializer@json_abi_v3_11_3@nlohmann@@V?$vector@EV?$allocator@E@std@@@2@X@json_abi_v3_11_3@nlohmann@@@std@@PEAX@std@@@1@AEAY0BA@$$CBD@Z
	??$_Find_lower_bound@$$BY0BB@D@?$_Tree@V?$_Tmap_traits@V?$basic_string@DU?$char_traits@D@std@@V?$allocator@D@2@@std@@V?$basic_json@Vmap@std@@Vvector@2@V?$basic_string@DU?$char_traits@D@std@@V?$allocator@D@2@@2@_N_J_KNVallocator@2@Uadl_serializer@json_abi_v3_11_3@nlohmann@@V?$vector@EV?$allocator@E@std@@@2@X@json_abi_v3_11_3@nlohmann@@U?$less@X@2@V?$allocator@U?$pair@$$CBV?$basic_string@DU?$char_traits@D@std@@V?$allocator@D@2@@std@@V?$basic_json@Vmap@std@@Vvector@2@V?$basic_string@DU?$char_traits@D@std@@V?$allocator@D@2@@2@_N_J_KNVallocator@2@Uadl_serializer@json_abi_v3_11_3@nlohmann@@V?$vector@EV?$allocator@E@std@@@2@X@json_abi_v3_11_3@nlohmann@@@std@@@2@$0A@@std@@@std@@IEBA?AU?$_Tree_find_result@PEAU?$_Tree_node@U?$pair@$$CBV?$basic_string@DU?$char_traits@D@std@@V?$allocator@D@2@@std@@V?$basic_json@Vmap@std@@Vvector@2@V?$basic_string@DU?$char_traits@D@std@@V?$allocator@D@2@@2@_N_J_KNVallocator@2@Uadl_serializer@json_abi_v3_11_3@nlohmann@@V?$vector@EV?$allocator@E@std@@@2@X@json_abi_v3_11_3@nlohmann@@@std@@PEAX@std@@@1@AEAY0BB@$$CBD@Z
	??$_Find_lower_bound@$$BY0BD@D@?$_Tree@V?$_Tmap_traits@V?$basic_string@DU?$char_traits@D@std@@V?$allocator@D@2@@std@@V?$basic_json@Vmap@std@@Vvector@2@V?$basic_string@DU?$char_traits@D@std@@V?$allocator@D@2@@2@_N_J_KNVallocator@2@Uadl_serializer@json_abi_v3_11_3@nlohmann@@V?$vector@EV?$allocator@E@std@@@2@X@json_abi_v3_11_3@nlohmann@@U?$less@X@2@V?$allocator@U?$pair@$$CBV?$basic_string@DU?$char_traits@D@std@@V?$allocator@D@2@@std@@V?$basic_json@Vmap@std@@Vvector@2@V?$basic_string@DU?$char_traits@D@std@@V?$allocator@D@2@@2@_N_J_KNVallocator@2@Uadl_serializer@json_abi_v3_11_3@nlohmann@@V?$vector@EV?$allocator@E@std@@@2@X@json_abi_v3_11_3@nlohmann@@@std@@@2@$0A@@std@@@std@@IEBA?AU?$_Tree_find_result@PEAU?$_Tree_node@U?$pair@$$CBV?$basic_string@DU?$char_traits@D@std@@V?$allocator@D@2@@std@@V?$basic_json@Vmap@std@@Vvector@2@V?$basic_string@DU?$char_traits@D@std@@V?$allocator@D@2@@2@_N_J_KNVallocator@2@Uadl_serializer@json_abi_v3_11_3@nlohmann@@V?$vector@EV?$allocator@E@std@@@2@X@json_abi_v3_11_3@nlohmann@@@std@@PEAX@std@@@1@AEAY0BD@$$CBD@Z
	??$_Find_lower_bound@$$BY0BF@D@?$_Tree@V?$_Tmap_traits@V?$basic_string@DU?$char_traits@D@std@@V?$allocator@D@2@@std@@V?$basic_json@Vmap@std@@Vvector@2@V?$basic_string@DU?$char_traits@D@std@@V?$allocator@D@2@@2@_N_J_KNVallocator@2@Uadl_serializer@json_abi_v3_11_3@nlohmann@@V?$vector@EV?$allocator@E@std@@@2@X@json_abi_v3_11_3@nlohmann@@U?$less@X@2@V?$allocator@U?$pair@$$CBV?$basic_string@DU?$char_traits@D@std@@V?$allocator@D@2@@std@@V?$basic_json@Vmap@std@@Vvector@2@V?$basic_string@DU?$char_traits@D@std@@V?$allocator@D@2@@2@_N_J_KNVallocator@2@Uadl_serializer@json_abi_v3_11_3@nlohmann@@V?$vector@EV?$allocator@E@std@@@2@X@json_abi_v3_11_3@nlohmann@@@std@@@2@$0A@@std@@@std@@IEBA?AU?$_Tree_find_result@PEAU?$_Tree_node@U?$pair@$$CBV?$basic_string@DU?$char_traits@D@std@@V?$allocator@D@2@@std@@V?$basic_json@Vmap@std@@Vvector@2@V?$basic_string@DU?$char_traits@D@std@@V?$allocator@D@2@@2@_N_J_KNVallocator@2@Uadl_serializer@json_abi_v3_11_3@nlohmann@@V?$vector@EV?$allocator@E@std@@@2@X@json_abi_v3_11_3@nlohmann@@@std@@PEAX@std@@@1@AEAY0BF@$$CBD@Z
	??$_Find_lower_bound@$$BY0BH@D@?$_Tree@V?$_Tmap_traits@V?$basic_string@DU?$char_traits@D@std@@V?$allocator@D@2@@std@@V?$basic_json@Vmap@std@@Vvector@2@V?$basic_string@DU?$char_traits@D@std@@V?$allocator@D@2@@2@_N_J_KNVallocator@2@Uadl_serializer@json_abi_v3_11_3@nlohmann@@V?$vector@EV?$allocator@E@std@@@2@X@json_abi_v3_11_3@nlohmann@@U?$less@X@2@V?$allocator@U?$pair@$$CBV?$basic_string@DU?$char_traits@D@std@@V?$allocator@D@2@@std@@V?$basic_json@Vmap@std@@Vvector@2@V?$basic_string@DU?$char_traits@D@std@@V?$allocator@D@2@@2@_N_J_KNVallocator@2@Uadl_serializer@json_abi_v3_11_3@nlohmann@@V?$vector@EV?$allocator@E@std@@@2@X@json_abi_v3_11_3@nlohmann@@@std@@@2@$0A@@std@@@std@@IEBA?AU?$_Tree_find_result@PEAU?$_Tree_node@U?$pair@$$CBV?$basic_string@DU?$char_traits@D@std@@V?$allocator@D@2@@std@@V?$basic_json@Vmap@std@@Vvector@2@V?$basic_string@DU?$char_traits@D@std@@V?$allocator@D@2@@2@_N_J_KNVallocator@2@Uadl_serializer@json_abi_v3_11_3@nlohmann@@V?$vector@EV?$allocator@E@std@@@2@X@json_abi_v3_11_3@nlohmann@@@std@@PEAX@std@@@1@AEAY0BH@$$CBD@Z
	??$_Find_lower_bound@$$BY0M@D@?$_Tree@V?$_Tmap_traits@V?$basic_string@DU?$char_traits@D@std@@V?$allocator@D@2@@std@@V?$basic_json@Vmap@std@@Vvector@2@V?$basic_string@DU?$char_traits@D@std@@V?$allocator@D@2@@2@_N_J_KNVallocator@2@Uadl_serializer@json_abi_v3_11_3@nlohmann@@V?$vector@EV?$allocator@E@std@@@2@X@json_abi_v3_11_3@nlohmann@@U?$less@X@2@V?$allocator@U?$pair@$$CBV?$basic_string@DU?$char_traits@D@std@@V?$allocator@D@2@@std@@V?$basic_json@Vmap@std@@Vvector@2@V?$basic_string@DU?$char_traits@D@std@@V?$allocator@D@2@@2@_N_J_KNVallocator@2@Uadl_serializer@json_abi_v3_11_3@nlohmann@@V?$vector@EV?$allocator@E@std@@@2@X@json_abi_v3_11_3@nlohmann@@@std@@@2@$0A@@std@@@std@@IEBA?AU?$_Tree_find_result@PEAU?$_Tree_node@U?$pair@$$CBV?$basic_string@DU?$char_traits@D@std@@V?$allocator@D@2@@std@@V?$basic_json@Vmap@std@@Vvector@2@V?$basic_string@DU?$char_traits@D@std@@V?$allocator@D@2@@2@_N_J_KNVallocator@2@Uadl_serializer@json_abi_v3_11_3@nlohmann@@V?$vector@EV?$allocator@E@std@@@2@X@json_abi_v3_11_3@nlohmann@@@std@@PEAX@std@@@1@AEAY0M@$$CBD@Z
	??$_Find_lower_bound@$$BY0N@D@?$_Tree@V?$_Tmap_traits@V?$basic_string@DU?$char_traits@D@std@@V?$allocator@D@2@@std@@V?$basic_json@Vmap@std@@Vvector@2@V?$basic_string@DU?$char_traits@D@std@@V?$allocator@D@2@@2@_N_J_KNVallocator@2@Uadl_serializer@json_abi_v3_11_3@nlohmann@@V?$vector@EV?$allocator@E@std@@@2@X@json_abi_v3_11_3@nlohmann@@U?$less@X@2@V?$allocator@U?$pair@$$CBV?$basic_string@DU?$char_traits@D@std@@V?$allocator@D@2@@std@@V?$basic_json@Vmap@std@@Vvector@2@V?$basic_string@DU?$char_traits@D@std@@V?$allocator@D@2@@2@_N_J_KNVallocator@2@Uadl_serializer@json_abi_v3_11_3@nlohmann@@V?$vector@EV?$allocator@E@std@@@2@X@json_abi_v3_11_3@nlohmann@@@std@@@2@$0A@@std@@@std@@IEBA?AU?$_Tree_find_result@PEAU?$_Tree_node@U?$pair@$$CBV?$basic_string@DU?$char_traits@D@std@@V?$allocator@D@2@@std@@V?$basic_json@Vmap@std@@Vvector@2@V?$basic_string@DU?$char_traits@D@std@@V?$allocator@D@2@@2@_N_J_KNVallocator@2@Uadl_serializer@json_abi_v3_11_3@nlohmann@@V?$vector@EV?$allocator@E@std@@@2@X@json_abi_v3_11_3@nlohmann@@@std@@PEAX@std@@@1@AEAY0N@$$CBD@Z
	??$_Find_lower_bound@$$BY0O@D@?$_Tree@V?$_Tmap_traits@V?$basic_string@DU?$char_traits@D@std@@V?$allocator@D@2@@std@@V?$basic_json@Vmap@std@@Vvector@2@V?$basic_string@DU?$char_traits@D@std@@V?$allocator@D@2@@2@_N_J_KNVallocator@2@Uadl_serializer@json_abi_v3_11_3@nlohmann@@V?$vector@EV?$allocator@E@std@@@2@X@json_abi_v3_11_3@nlohmann@@U?$less@X@2@V?$allocator@U?$pair@$$CBV?$basic_string@DU?$char_traits@D@std@@V?$allocator@D@2@@std@@V?$basic_json@Vmap@std@@Vvector@2@V?$basic_string@DU?$char_traits@D@std@@V?$allocator@D@2@@2@_N_J_KNVallocator@2@Uadl_serializer@json_abi_v3_11_3@nlohmann@@V?$vector@EV?$allocator@E@std@@@2@X@json_abi_v3_11_3@nlohmann@@@std@@@2@$0A@@std@@@std@@IEBA?AU?$_Tree_find_result@PEAU?$_Tree_node@U?$pair@$$CBV?$basic_string@DU?$char_traits@D@std@@V?$allocator@D@2@@std@@V?$basic_json@Vmap@std@@Vvector@2@V?$basic_string@DU?$char_traits@D@std@@V?$allocator@D@2@@2@_N_J_KNVallocator@2@Uadl_serializer@json_abi_v3_11_3@nlohmann@@V?$vector@EV?$allocator@E@std@@@2@X@json_abi_v3_11_3@nlohmann@@@std@@PEAX@std@@@1@AEAY0O@$$CBD@Z
	??$_Find_lower_bound@$$BY0P@D@?$_Tree@V?$_Tmap_traits@V?$basic_string@DU?$char_traits@D@std@@V?$allocator@D@2@@std@@V?$basic_json@Vmap@std@@Vvector@2@V?$basic_string@DU?$char_traits@D@std@@V?$allocator@D@2@@2@_N_J_KNVallocator@2@Uadl_serializer@json_abi_v3_11_3@nlohmann@@V?$vector@EV?$allocator@E@std@@@2@X@json_abi_v3_11_3@nlohmann@@U?$less@X@2@V?$allocator@U?$pair@$$CBV?$basic_string@DU?$char_traits@D@std@@V?$allocator@D@2@@std@@V?$basic_json@Vmap@std@@Vvector@2@V?$basic_string@DU?$char_traits@D@std@@V?$allocator@D@2@@2@_N_J_KNVallocator@2@Uadl_serializer@json_abi_v3_11_3@nlohmann@@V?$vector@EV?$allocator@E@std@@@2@X@json_abi_v3_11_3@nlohmann@@@std@@@2@$0A@@std@@@std@@IEBA?AU?$_Tree_find_result@PEAU?$_Tree_node@U?$pair@$$CBV?$basic_string@DU?$char_traits@D@std@@V?$allocator@D@2@@std@@V?$basic_json@Vmap@std@@Vvector@2@V?$basic_string@DU?$char_traits@D@std@@V?$allocator@D@2@@2@_N_J_KNVallocator@2@Uadl_serializer@json_abi_v3_11_3@nlohmann@@V?$vector@EV?$allocator@E@std@@@2@X@json_abi_v3_11_3@nlohmann@@@std@@PEAX@std@@@1@AEAY0P@$$CBD@Z
	??$_Find_lower_bound@V?$basic_string@DU?$char_traits@D@std@@V?$allocator@D@2@@std@@@?$_Tree@V?$_Tmap_traits@V?$basic_string@DU?$char_traits@D@std@@V?$allocator@D@2@@std@@V?$basic_json@Vmap@std@@Vvector@2@V?$basic_string@DU?$char_traits@D@std@@V?$allocator@D@2@@2@_N_J_KNVallocator@2@Uadl_serializer@json_abi_v3_11_3@nlohmann@@V?$vector@EV?$allocator@E@std@@@2@X@json_abi_v3_11_3@nlohmann@@U?$less@X@2@V?$allocator@U?$pair@$$CBV?$basic_string@DU?$char_traits@D@std@@V?$allocator@D@2@@std@@V?$basic_json@Vmap@std@@Vvector@2@V?$basic_string@DU?$char_traits@D@std@@V?$allocator@D@2@@2@_N_J_KNVallocator@2@Uadl_serializer@json_abi_v3_11_3@nlohmann@@V?$vector@EV?$allocator@E@std@@@2@X@json_abi_v3_11_3@nlohmann@@@std@@@2@$0A@@std@@@std@@IEBA?AU?$_Tree_find_result@PEAU?$_Tree_node@U?$pair@$$CBV?$basic_string@DU?$char_traits@D@std@@V?$allocator@D@2@@std@@V?$basic_json@Vmap@std@@Vvector@2@V?$basic_string@DU?$char_traits@D@std@@V?$allocator@D@2@@2@_N_J_KNVallocator@2@Uadl_serializer@json_abi_v3_11_3@nlohmann@@V?$vector@EV?$allocator@E@std@@@2@X@json_abi_v3_11_3@nlohmann@@@std@@PEAX@std@@@1@AEBV?$basic_string@DU?$char_traits@D@std@@V?$allocator@D@2@@1@@Z
	??$_Find_unchecked@PEADD@std@@YAPEADPEADQEADAEBD@Z
	??$_Find_unchecked@PEBDD@std@@YAPEBDPEBDQEBDAEBD@Z
	??$_Find_vectorized@$$CBDD@std@@YAPEBDQEBD0D@Z
	??$_Find_vectorized@DD@std@@YAPEADQEAD0D@Z
	??$_Floating_to_chars@$00M@std@@YA?AUto_chars_result@0@PEADQEADMW4chars_format@0@H@Z
	??$_Floating_to_chars@$00N@std@@YA?AUto_chars_result@0@PEADQEADNW4chars_format@0@H@Z
	??$_Floating_to_chars@$01M@std@@YA?AUto_chars_result@0@PEADQEADMW4chars_format@0@H@Z
	??$_Floating_to_chars@$01N@std@@YA?AUto_chars_result@0@PEADQEADNW4chars_format@0@H@Z
	??$_Floating_to_chars@$0A@M@std@@YA?AUto_chars_result@0@PEADQEADMW4chars_format@0@H@Z
	??$_Floating_to_chars@$0A@N@std@@YA?AUto_chars_result@0@PEADQEADNW4chars_format@0@H@Z
	??$_Floating_to_chars_fixed_precision@M@std@@YA?AUto_chars_result@0@QEAD0MH@Z
	??$_Floating_to_chars_fixed_precision@N@std@@YA?AUto_chars_result@0@QEAD0NH@Z
	??$_Floating_to_chars_general_precision@M@std@@YA?AUto_chars_result@0@PEADQEADMH@Z
	??$_Floating_to_chars_general_precision@N@std@@YA?AUto_chars_result@0@PEADQEADNH@Z
	??$_Floating_to_chars_hex_precision@M@std@@YA?AUto_chars_result@0@PEADQEADMH@Z
	??$_Floating_to_chars_hex_precision@N@std@@YA?AUto_chars_result@0@PEADQEADNH@Z
	??$_Floating_to_chars_hex_shortest@M@std@@YA?AUto_chars_result@0@PEADQEADM@Z
	??$_Floating_to_chars_hex_shortest@N@std@@YA?AUto_chars_result@0@PEADQEADN@Z
	??$_Floating_to_chars_ryu@M@std@@YA?AUto_chars_result@0@QEAD0MW4chars_format@0@@Z
	??$_Floating_to_chars_ryu@N@std@@YA?AUto_chars_result@0@QEAD0NW4chars_format@0@@Z
	??$_Floating_to_chars_scientific_precision@M@std@@YA?AUto_chars_result@0@QEAD0MH@Z
	??$_Floating_to_chars_scientific_precision@N@std@@YA?AUto_chars_result@0@QEAD0NH@Z
	??$_Flush@D@?$_Fmt_iterator_flush@V?$back_insert_iterator@V?$basic_string@DU?$char_traits@D@std@@V?$allocator@D@2@@std@@@std@@@std@@SA?AV?$back_insert_iterator@V?$basic_string@DU?$char_traits@D@std@@V?$allocator@D@2@@std@@@1@QEBD0V21@@Z
	??$_Fmt_write@DV?$back_insert_iterator@V?$_Fmt_buffer@D@std@@@std@@@std@@YA?AV?$back_insert_iterator@V?$_Fmt_buffer@D@std@@@0@V10@D@Z
	??$_Fmt_write@DV?$back_insert_iterator@V?$_Fmt_buffer@D@std@@@std@@@std@@YA?AV?$back_insert_iterator@V?$_Fmt_buffer@D@std@@@0@V10@DU?$_Basic_format_specs@D@0@V_Lazy_locale@0@@Z
	??$_Fmt_write@DV?$back_insert_iterator@V?$_Fmt_buffer@D@std@@@std@@@std@@YA?AV?$back_insert_iterator@V?$_Fmt_buffer@D@std@@@0@V10@PEBD@Z
	??$_Fmt_write@DV?$back_insert_iterator@V?$_Fmt_buffer@D@std@@@std@@@std@@YA?AV?$back_insert_iterator@V?$_Fmt_buffer@D@std@@@0@V10@PEBDAEBU?$_Basic_format_specs@D@0@V_Lazy_locale@0@@Z
	??$_Fmt_write@DV?$back_insert_iterator@V?$_Fmt_buffer@D@std@@@std@@@std@@YA?AV?$back_insert_iterator@V?$_Fmt_buffer@D@std@@@0@V10@QEBX@Z
	??$_Fmt_write@DV?$back_insert_iterator@V?$_Fmt_buffer@D@std@@@std@@@std@@YA?AV?$back_insert_iterator@V?$_Fmt_buffer@D@std@@@0@V10@QEBXAEBU?$_Basic_format_specs@D@0@V_Lazy_locale@0@@Z
	??$_Fmt_write@DV?$back_insert_iterator@V?$_Fmt_buffer@D@std@@@std@@@std@@YA?AV?$back_insert_iterator@V?$_Fmt_buffer@D@std@@@0@V10@Umonostate@0@@Z
	??$_Fmt_write@DV?$back_insert_iterator@V?$_Fmt_buffer@D@std@@@std@@@std@@YA?AV?$back_insert_iterator@V?$_Fmt_buffer@D@std@@@0@V10@Umonostate@0@AEBU?$_Basic_format_specs@D@0@V_Lazy_locale@0@@Z
	??$_Fmt_write@DV?$back_insert_iterator@V?$_Fmt_buffer@D@std@@@std@@@std@@YA?AV?$back_insert_iterator@V?$_Fmt_buffer@D@std@@@0@V10@V?$basic_string_view@DU?$char_traits@D@std@@@0@@Z
	??$_Fmt_write@DV?$back_insert_iterator@V?$_Fmt_buffer@D@std@@@std@@@std@@YA?AV?$back_insert_iterator@V?$_Fmt_buffer@D@std@@@0@V10@V?$basic_string_view@DU?$char_traits@D@std@@@0@AEBU?$_Basic_format_specs@D@0@V_Lazy_locale@0@@Z
	??$_Fmt_write@DV?$back_insert_iterator@V?$_Fmt_buffer@D@std@@@std@@@std@@YA?AV?$back_insert_iterator@V?$_Fmt_buffer@D@std@@@0@V10@_N@Z
	??$_Fmt_write@DV?$back_insert_iterator@V?$_Fmt_buffer@D@std@@@std@@@std@@YA?AV?$back_insert_iterator@V?$_Fmt_buffer@D@std@@@0@V10@_NU?$_Basic_format_specs@D@0@V_Lazy_locale@0@@Z
	??$_Fmt_write@DV?$back_insert_iterator@V?$_Fmt_buffer@D@std@@@std@@H@std@@YA?AV?$back_insert_iterator@V?$_Fmt_buffer@D@std@@@0@V10@H@Z
	??$_Fmt_write@DV?$back_insert_iterator@V?$_Fmt_buffer@D@std@@@std@@H@std@@YA?AV?$back_insert_iterator@V?$_Fmt_buffer@D@std@@@0@V10@HAEBU?$_Basic_format_specs@D@0@V_Lazy_locale@0@@Z
	??$_Fmt_write@DV?$back_insert_iterator@V?$_Fmt_buffer@D@std@@@std@@I@std@@YA?AV?$back_insert_iterator@V?$_Fmt_buffer@D@std@@@0@V10@I@Z
	??$_Fmt_write@DV?$back_insert_iterator@V?$_Fmt_buffer@D@std@@@std@@I@std@@YA?AV?$back_insert_iterator@V?$_Fmt_buffer@D@std@@@0@V10@IAEBU?$_Basic_format_specs@D@0@V_Lazy_locale@0@@Z
	??$_Fmt_write@DV?$back_insert_iterator@V?$_Fmt_buffer@D@std@@@std@@M@std@@YA?AV?$back_insert_iterator@V?$_Fmt_buffer@D@std@@@0@V10@M@Z
	??$_Fmt_write@DV?$back_insert_iterator@V?$_Fmt_buffer@D@std@@@std@@M@std@@YA?AV?$back_insert_iterator@V?$_Fmt_buffer@D@std@@@0@V10@MAEBU?$_Basic_format_specs@D@0@V_Lazy_locale@0@@Z
	??$_Fmt_write@DV?$back_insert_iterator@V?$_Fmt_buffer@D@std@@@std@@N@std@@YA?AV?$back_insert_iterator@V?$_Fmt_buffer@D@std@@@0@V10@N@Z
	??$_Fmt_write@DV?$back_insert_iterator@V?$_Fmt_buffer@D@std@@@std@@N@std@@YA?AV?$back_insert_iterator@V?$_Fmt_buffer@D@std@@@0@V10@NAEBU?$_Basic_format_specs@D@0@V_Lazy_locale@0@@Z
	??$_Fmt_write@DV?$back_insert_iterator@V?$_Fmt_buffer@D@std@@@std@@O@std@@YA?AV?$back_insert_iterator@V?$_Fmt_buffer@D@std@@@0@V10@O@Z
	??$_Fmt_write@DV?$back_insert_iterator@V?$_Fmt_buffer@D@std@@@std@@O@std@@YA?AV?$back_insert_iterator@V?$_Fmt_buffer@D@std@@@0@V10@OAEBU?$_Basic_format_specs@D@0@V_Lazy_locale@0@@Z
	??$_Fmt_write@DV?$back_insert_iterator@V?$_Fmt_buffer@D@std@@@std@@_J@std@@YA?AV?$back_insert_iterator@V?$_Fmt_buffer@D@std@@@0@V10@_J@Z
	??$_Fmt_write@DV?$back_insert_iterator@V?$_Fmt_buffer@D@std@@@std@@_J@std@@YA?AV?$back_insert_iterator@V?$_Fmt_buffer@D@std@@@0@V10@_JAEBU?$_Basic_format_specs@D@0@V_Lazy_locale@0@@Z
	??$_Fmt_write@DV?$back_insert_iterator@V?$_Fmt_buffer@D@std@@@std@@_K@std@@YA?AV?$back_insert_iterator@V?$_Fmt_buffer@D@std@@@0@V10@_K@Z
	??$_Fmt_write@DV?$back_insert_iterator@V?$_Fmt_buffer@D@std@@@std@@_K@std@@YA?AV?$back_insert_iterator@V?$_Fmt_buffer@D@std@@@0@V10@_KAEBU?$_Basic_format_specs@D@0@V_Lazy_locale@0@@Z
	??$_Fnv1a_append_value@G@std@@YA_K_KAEBG@Z
	??$_Fnv1a_append_value@W4InputAction@vrc@@@std@@YA_K_KAEBW4InputAction@vrc@@@Z
	??$_Format_to_it@DV?$back_insert_iterator@V?$basic_string@DU?$char_traits@D@std@@V?$allocator@D@2@@std@@@std@@V?$basic_format_context@V?$back_insert_iterator@V?$_Fmt_buffer@D@std@@@std@@D@2@@std@@YA?AV?$back_insert_iterator@V?$basic_string@DU?$char_traits@D@std@@V?$allocator@D@2@@std@@@0@V10@V?$basic_string_view@DU?$char_traits@D@std@@@0@V?$basic_format_args@V?$basic_format_context@V?$back_insert_iterator@V?$_Fmt_buffer@D@std@@@std@@D@std@@@0@V_Lazy_locale@0@@Z
	??$_Fputc@D@std@@YA_NDPEAU_iobuf@@@Z
	??$_Free_non_head@V?$allocator@U?$_List_node@U?$pair@$$CBG_N@std@@PEAX@std@@@std@@@?$_List_node@U?$pair@$$CBG_N@std@@PEAX@std@@SAXAEAV?$allocator@U?$_List_node@U?$pair@$$CBG_N@std@@PEAX@std@@@1@PEAU01@@Z
	??$_Free_non_head@V?$allocator@U?$_List_node@U?$pair@$$CBV?$basic_string@DU?$char_traits@D@std@@V?$allocator@D@2@@std@@UConfigProfile@vrc@@@std@@PEAX@std@@@std@@@?$_List_node@U?$pair@$$CBV?$basic_string@DU?$char_traits@D@std@@V?$allocator@D@2@@std@@UConfigProfile@vrc@@@std@@PEAX@std@@SAXAEAV?$allocator@U?$_List_node@U?$pair@$$CBV?$basic_string@DU?$char_traits@D@std@@V?$allocator@D@2@@std@@UConfigProfile@vrc@@@std@@PEAX@std@@@1@PEAU01@@Z
	??$_Free_non_head@V?$allocator@U?$_List_node@U?$pair@$$CBV?$basic_string@DU?$char_traits@D@std@@V?$allocator@D@2@@std@@UInputProfile@vrc@@@std@@PEAX@std@@@std@@@?$_List_node@U?$pair@$$CBV?$basic_string@DU?$char_traits@D@std@@V?$allocator@D@2@@std@@UInputProfile@vrc@@@std@@PEAX@std@@SAXAEAV?$allocator@U?$_List_node@U?$pair@$$CBV?$basic_string@DU?$char_traits@D@std@@V?$allocator@D@2@@std@@UInputProfile@vrc@@@std@@PEAX@std@@@1@PEAU01@@Z
	??$_Free_non_head@V?$allocator@U?$_List_node@U?$pair@$$CBV?$basic_string@DU?$char_traits@D@std@@V?$allocator@D@2@@std@@V?$function@$$A6AXXZ@2@@std@@PEAX@std@@@std@@@?$_List_node@U?$pair@$$CBV?$basic_string@DU?$char_traits@D@std@@V?$allocator@D@2@@std@@V?$function@$$A6AXXZ@2@@std@@PEAX@std@@SAXAEAV?$allocator@U?$_List_node@U?$pair@$$CBV?$basic_string@DU?$char_traits@D@std@@V?$allocator@D@2@@std@@V?$function@$$A6AXXZ@2@@std@@PEAX@std@@@1@PEAU01@@Z
	??$_Free_non_head@V?$allocator@U?$_List_node@U?$pair@$$CBW4InputAction@vrc@@M@std@@PEAX@std@@@std@@@?$_List_node@U?$pair@$$CBW4InputAction@vrc@@M@std@@PEAX@std@@SAXAEAV?$allocator@U?$_List_node@U?$pair@$$CBW4InputAction@vrc@@M@std@@PEAX@std@@@1@PEAU01@@Z
	??$_Freenode0@V?$allocator@U?$_List_node@U?$pair@$$CBG_N@std@@PEAX@std@@@std@@@?$_List_node@U?$pair@$$CBG_N@std@@PEAX@std@@SAXAEAV?$allocator@U?$_List_node@U?$pair@$$CBG_N@std@@PEAX@std@@@1@PEAU01@@Z
	??$_Freenode0@V?$allocator@U?$_List_node@U?$pair@$$CBV?$basic_string@DU?$char_traits@D@std@@V?$allocator@D@2@@std@@UConfigProfile@vrc@@@std@@PEAX@std@@@std@@@?$_List_node@U?$pair@$$CBV?$basic_string@DU?$char_traits@D@std@@V?$allocator@D@2@@std@@UConfigProfile@vrc@@@std@@PEAX@std@@SAXAEAV?$allocator@U?$_List_node@U?$pair@$$CBV?$basic_string@DU?$char_traits@D@std@@V?$allocator@D@2@@std@@UConfigProfile@vrc@@@std@@PEAX@std@@@1@PEAU01@@Z
	??$_Freenode0@V?$allocator@U?$_List_node@U?$pair@$$CBV?$basic_string@DU?$char_traits@D@std@@V?$allocator@D@2@@std@@UInputProfile@vrc@@@std@@PEAX@std@@@std@@@?$_List_node@U?$pair@$$CBV?$basic_string@DU?$char_traits@D@std@@V?$allocator@D@2@@std@@UInputProfile@vrc@@@std@@PEAX@std@@SAXAEAV?$allocator@U?$_List_node@U?$pair@$$CBV?$basic_string@DU?$char_traits@D@std@@V?$allocator@D@2@@std@@UInputProfile@vrc@@@std@@PEAX@std@@@1@PEAU01@@Z
	??$_Freenode0@V?$allocator@U?$_List_node@U?$pair@$$CBV?$basic_string@DU?$char_traits@D@std@@V?$allocator@D@2@@std@@V?$function@$$A6AXXZ@2@@std@@PEAX@std@@@std@@@?$_List_node@U?$pair@$$CBV?$basic_string@DU?$char_traits@D@std@@V?$allocator@D@2@@std@@V?$function@$$A6AXXZ@2@@std@@PEAX@std@@SAXAEAV?$allocator@U?$_List_node@U?$pair@$$CBV?$basic_string@DU?$char_traits@D@std@@V?$allocator@D@2@@std@@V?$function@$$A6AXXZ@2@@std@@PEAX@std@@@1@PEAU01@@Z
	??$_Freenode0@V?$allocator@U?$_List_node@U?$pair@$$CBW4InputAction@vrc@@M@std@@PEAX@std@@@std@@@?$_List_node@U?$pair@$$CBW4InputAction@vrc@@M@std@@PEAX@std@@SAXAEAV?$allocator@U?$_List_node@U?$pair@$$CBW4InputAction@vrc@@M@std@@PEAX@std@@@1@PEAU01@@Z
	??$_Freenode0@V?$allocator@U?$_Tree_node@U?$pair@$$CBV?$basic_string@DU?$char_traits@D@std@@V?$allocator@D@2@@std@@V?$basic_json@Vmap@std@@Vvector@2@V?$basic_string@DU?$char_traits@D@std@@V?$allocator@D@2@@2@_N_J_KNVallocator@2@Uadl_serializer@json_abi_v3_11_3@nlohmann@@V?$vector@EV?$allocator@E@std@@@2@X@json_abi_v3_11_3@nlohmann@@@std@@PEAX@std@@@std@@@?$_Tree_node@U?$pair@$$CBV?$basic_string@DU?$char_traits@D@std@@V?$allocator@D@2@@std@@V?$basic_json@Vmap@std@@Vvector@2@V?$basic_string@DU?$char_traits@D@std@@V?$allocator@D@2@@2@_N_J_KNVallocator@2@Uadl_serializer@json_abi_v3_11_3@nlohmann@@V?$vector@EV?$allocator@E@std@@@2@X@json_abi_v3_11_3@nlohmann@@@std@@PEAX@std@@SAXAEAV?$allocator@U?$_Tree_node@U?$pair@$$CBV?$basic_string@DU?$char_traits@D@std@@V?$allocator@D@2@@std@@V?$basic_json@Vmap@std@@Vvector@2@V?$basic_string@DU?$char_traits@D@std@@V?$allocator@D@2@@2@_N_J_KNVallocator@2@Uadl_serializer@json_abi_v3_11_3@nlohmann@@V?$vector@EV?$allocator@E@std@@@2@X@json_abi_v3_11_3@nlohmann@@@std@@PEAX@std@@@1@PEAU01@@Z
	??$_Freenode@V?$allocator@U?$_List_node@U?$pair@$$CBG_N@std@@PEAX@std@@@std@@@?$_List_node@U?$pair@$$CBG_N@std@@PEAX@std@@SAXAEAV?$allocator@U?$_List_node@U?$pair@$$CBG_N@std@@PEAX@std@@@1@PEAU01@@Z
	??$_Freenode@V?$allocator@U?$_List_node@U?$pair@$$CBV?$basic_string@DU?$char_traits@D@std@@V?$allocator@D@2@@std@@UConfigProfile@vrc@@@std@@PEAX@std@@@std@@@?$_List_node@U?$pair@$$CBV?$basic_string@DU?$char_traits@D@std@@V?$allocator@D@2@@std@@UConfigProfile@vrc@@@std@@PEAX@std@@SAXAEAV?$allocator@U?$_List_node@U?$pair@$$CBV?$basic_string@DU?$char_traits@D@std@@V?$allocator@D@2@@std@@UConfigProfile@vrc@@@std@@PEAX@std@@@1@PEAU01@@Z
	??$_Freenode@V?$allocator@U?$_List_node@U?$pair@$$CBV?$basic_string@DU?$char_traits@D@std@@V?$allocator@D@2@@std@@UInputProfile@vrc@@@std@@PEAX@std@@@std@@@?$_List_node@U?$pair@$$CBV?$basic_string@DU?$char_traits@D@std@@V?$allocator@D@2@@std@@UInputProfile@vrc@@@std@@PEAX@std@@SAXAEAV?$allocator@U?$_List_node@U?$pair@$$CBV?$basic_string@DU?$char_traits@D@std@@V?$allocator@D@2@@std@@UInputProfile@vrc@@@std@@PEAX@std@@@1@PEAU01@@Z
	??$_Freenode@V?$allocator@U?$_List_node@U?$pair@$$CBV?$basic_string@DU?$char_traits@D@std@@V?$allocator@D@2@@std@@V?$function@$$A6AXXZ@2@@std@@PEAX@std@@@std@@@?$_List_node@U?$pair@$$CBV?$basic_string@DU?$char_traits@D@std@@V?$allocator@D@2@@std@@V?$function@$$A6AXXZ@2@@std@@PEAX@std@@SAXAEAV?$allocator@U?$_List_node@U?$pair@$$CBV?$basic_string@DU?$char_traits@D@std@@V?$allocator@D@2@@std@@V?$function@$$A6AXXZ@2@@std@@PEAX@std@@@1@PEAU01@@Z
	??$_Freenode@V?$allocator@U?$_List_node@U?$pair@$$CBW4InputAction@vrc@@M@std@@PEAX@std@@@std@@@?$_List_node@U?$pair@$$CBW4InputAction@vrc@@M@std@@PEAX@std@@SAXAEAV?$allocator@U?$_List_node@U?$pair@$$CBW4InputAction@vrc@@M@std@@PEAX@std@@@1@PEAU01@@Z
	??$_Freenode@V?$allocator@U?$_Tree_node@U?$pair@$$CBV?$basic_string@DU?$char_traits@D@std@@V?$allocator@D@2@@std@@V?$basic_json@Vmap@std@@Vvector@2@V?$basic_string@DU?$char_traits@D@std@@V?$allocator@D@2@@2@_N_J_KNVallocator@2@Uadl_serializer@json_abi_v3_11_3@nlohmann@@V?$vector@EV?$allocator@E@std@@@2@X@json_abi_v3_11_3@nlohmann@@@std@@PEAX@std@@@std@@@?$_Tree_node@U?$pair@$$CBV?$basic_string@DU?$char_traits@D@std@@V?$allocator@D@2@@std@@V?$basic_json@Vmap@std@@Vvector@2@V?$basic_string@DU?$char_traits@D@std@@V?$allocator@D@2@@2@_N_J_KNVallocator@2@Uadl_serializer@json_abi_v3_11_3@nlohmann@@V?$vector@EV?$allocator@E@std@@@2@X@json_abi_v3_11_3@nlohmann@@@std@@PEAX@std@@SAXAEAV?$allocator@U?$_Tree_node@U?$pair@$$CBV?$basic_string@DU?$char_traits@D@std@@V?$allocator@D@2@@std@@V?$basic_json@Vmap@std@@Vvector@2@V?$basic_string@DU?$char_traits@D@std@@V?$allocator@D@2@@2@_N_J_KNVallocator@2@Uadl_serializer@json_abi_v3_11_3@nlohmann@@V?$vector@EV?$allocator@E@std@@@2@X@json_abi_v3_11_3@nlohmann@@@std@@PEAX@std@@@1@PEAU01@@Z
	??$_Get_arg@V?$basic_format_context@V?$back_insert_iterator@V?$_Fmt_buffer@D@std@@@std@@D@std@@@std@@YA?AV?$basic_format_arg@V?$basic_format_context@V?$back_insert_iterator@V?$_Fmt_buffer@D@std@@@std@@D@std@@@0@AEBV?$basic_format_context@V?$back_insert_iterator@V?$_Fmt_buffer@D@std@@@std@@D@0@_K@Z
	??$_Get_dynamic_specs@V_Precision_checker@std@@V?$basic_format_arg@V?$basic_format_context@V?$back_insert_iterator@V?$_Fmt_buffer@D@std@@@std@@D@std@@@2@@std@@YAHV?$basic_format_arg@V?$basic_format_context@V?$back_insert_iterator@V?$_Fmt_buffer@D@std@@@std@@D@std@@@0@@Z
	??$_Get_dynamic_specs@V_Width_checker@std@@V?$basic_format_arg@V?$basic_format_context@V?$back_insert_iterator@V?$_Fmt_buffer@D@std@@@std@@D@std@@@2@@std@@YAHV?$basic_format_arg@V?$basic_format_context@V?$back_insert_iterator@V?$_Fmt_buffer@D@std@@@std@@D@std@@@0@@Z
	??$_Get_fmt_codec@D@std@@YA?AV?$_Fmt_codec@D$00@0@XZ
	??$_Get_index@$0A@@id@locale@std@@QEAA_KXZ
	??$_Get_integral_prefix@E@std@@YA?AV?$basic_string_view@DU?$char_traits@D@std@@@0@DE@Z
	??$_Get_integral_prefix@H@std@@YA?AV?$basic_string_view@DU?$char_traits@D@std@@@0@DH@Z
	??$_Get_integral_prefix@I@std@@YA?AV?$basic_string_view@DU?$char_traits@D@std@@@0@DI@Z
	??$_Get_integral_prefix@_J@std@@YA?AV?$basic_string_view@DU?$char_traits@D@std@@@0@D_J@Z
	??$_Get_integral_prefix@_K@std@@YA?AV?$basic_string_view@DU?$char_traits@D@std@@@0@D_K@Z
	??$_Get_proxy_allocator@V?$allocator@D@std@@@std@@YA?AU_Fake_allocator@0@AEBV?$allocator@D@0@@Z
	??$_Get_proxy_allocator@V?$allocator@E@std@@@std@@YA?AU_Fake_allocator@0@AEBV?$allocator@E@0@@Z
	??$_Get_proxy_allocator@V?$allocator@I@std@@@std@@YA?AU_Fake_allocator@0@AEBV?$allocator@I@0@@Z
	??$_Get_proxy_allocator@V?$allocator@N@std@@@std@@YA?AU_Fake_allocator@0@AEBV?$allocator@N@0@@Z
	??$_Get_proxy_allocator@V?$allocator@PEAV?$basic_json@Vmap@std@@Vvector@2@V?$basic_string@DU?$char_traits@D@std@@V?$allocator@D@2@@2@_N_J_KNVallocator@2@Uadl_serializer@json_abi_v3_11_3@nlohmann@@V?$vector@EV?$allocator@E@std@@@2@X@json_abi_v3_11_3@nlohmann@@@std@@@std@@YA?AU_Fake_allocator@0@AEBV?$allocator@PEAV?$basic_json@Vmap@std@@Vvector@2@V?$basic_string@DU?$char_traits@D@std@@V?$allocator@D@2@@2@_N_J_KNVallocator@2@Uadl_serializer@json_abi_v3_11_3@nlohmann@@V?$vector@EV?$allocator@E@std@@@2@X@json_abi_v3_11_3@nlohmann@@@0@@Z
	??$_Get_proxy_allocator@V?$allocator@PEAX@std@@@std@@YA?AU_Fake_allocator@0@AEBV?$allocator@PEAX@0@@Z
	??$_Get_proxy_allocator@V?$allocator@PEBD@std@@@std@@YA?AU_Fake_allocator@0@AEBV?$allocator@PEBD@0@@Z
	??$_Get_proxy_allocator@V?$allocator@U?$_List_node@U?$pair@$$CBG_N@std@@PEAX@std@@@std@@@std@@YA?AU_Fake_allocator@0@AEBV?$allocator@U?$_List_node@U?$pair@$$CBG_N@std@@PEAX@std@@@0@@Z
	??$_Get_proxy_allocator@V?$allocator@U?$_List_node@U?$pair@$$CBV?$basic_string@DU?$char_traits@D@std@@V?$allocator@D@2@@std@@UConfigProfile@vrc@@@std@@PEAX@std@@@std@@@std@@YA?AU_Fake_allocator@0@AEBV?$allocator@U?$_List_node@U?$pair@$$CBV?$basic_string@DU?$char_traits@D@std@@V?$allocator@D@2@@std@@UConfigProfile@vrc@@@std@@PEAX@std@@@0@@Z
	??$_Get_proxy_allocator@V?$allocator@U?$_List_node@U?$pair@$$CBV?$basic_string@DU?$char_traits@D@std@@V?$allocator@D@2@@std@@UInputProfile@vrc@@@std@@PEAX@std@@@std@@@std@@YA?AU_Fake_allocator@0@AEBV?$allocator@U?$_List_node@U?$pair@$$CBV?$basic_string@DU?$char_traits@D@std@@V?$allocator@D@2@@std@@UInputProfile@vrc@@@std@@PEAX@std@@@0@@Z
	??$_Get_proxy_allocator@V?$allocator@U?$_List_node@U?$pair@$$CBV?$basic_string@DU?$char_traits@D@std@@V?$allocator@D@2@@std@@V?$function@$$A6AXXZ@2@@std@@PEAX@std@@@std@@@std@@YA?AU_Fake_allocator@0@AEBV?$allocator@U?$_List_node@U?$pair@$$CBV?$basic_string@DU?$char_traits@D@std@@V?$allocator@D@2@@std@@V?$function@$$A6AXXZ@2@@std@@PEAX@std@@@0@@Z
	??$_Get_proxy_allocator@V?$allocator@U?$_List_node@U?$pair@$$CBW4InputAction@vrc@@M@std@@PEAX@std@@@std@@@std@@YA?AU_Fake_allocator@0@AEBV?$allocator@U?$_List_node@U?$pair@$$CBW4InputAction@vrc@@M@std@@PEAX@std@@@0@@Z
	??$_Get_proxy_allocator@V?$allocator@U?$_Tree_node@U?$pair@$$CBV?$basic_string@DU?$char_traits@D@std@@V?$allocator@D@2@@std@@V?$basic_json@Vmap@std@@Vvector@2@V?$basic_string@DU?$char_traits@D@std@@V?$allocator@D@2@@2@_N_J_KNVallocator@2@Uadl_serializer@json_abi_v3_11_3@nlohmann@@V?$vector@EV?$allocator@E@std@@@2@X@json_abi_v3_11_3@nlohmann@@@std@@PEAX@std@@@std@@@std@@YA?AU_Fake_allocator@0@AEBV?$allocator@U?$_Tree_node@U?$pair@$$CBV?$basic_string@DU?$char_traits@D@std@@V?$allocator@D@2@@std@@V?$basic_json@Vmap@std@@Vvector@2@V?$basic_string@DU?$char_traits@D@std@@V?$allocator@D@2@@2@_N_J_KNVallocator@2@Uadl_serializer@json_abi_v3_11_3@nlohmann@@V?$vector@EV?$allocator@E@std@@@2@X@json_abi_v3_11_3@nlohmann@@@std@@PEAX@std@@@0@@Z
	??$_Get_proxy_allocator@V?$allocator@UBinding@vrc@@@std@@@std@@YA?AU_Fake_allocator@0@AEBV?$allocator@UBinding@vrc@@@0@@Z
	??$_Get_proxy_allocator@V?$allocator@UD3D12_CPU_DESCRIPTOR_HANDLE@@@std@@@std@@YA?AU_Fake_allocator@0@AEBV?$allocator@UD3D12_CPU_DESCRIPTOR_HANDLE@@@0@@Z
	??$_Get_proxy_allocator@V?$allocator@UXrActionSuggestedBinding@@@std@@@std@@YA?AU_Fake_allocator@0@AEBV?$allocator@UXrActionSuggestedBinding@@@0@@Z
	??$_Get_proxy_allocator@V?$allocator@UXrExtensionProperties@@@std@@@std@@YA?AU_Fake_allocator@0@AEBV?$allocator@UXrExtensionProperties@@@0@@Z
	??$_Get_proxy_allocator@V?$allocator@UXrSwapchainImageD3D11KHR@@@std@@@std@@YA?AU_Fake_allocator@0@AEBV?$allocator@UXrSwapchainImageD3D11KHR@@@0@@Z
	??$_Get_proxy_allocator@V?$allocator@UXrSwapchainImageD3D12KHR@@@std@@@std@@YA?AU_Fake_allocator@0@AEBV?$allocator@UXrSwapchainImageD3D12KHR@@@0@@Z
	??$_Get_proxy_allocator@V?$allocator@UXrViewConfigurationView@@@std@@@std@@YA?AU_Fake_allocator@0@AEBV?$allocator@UXrViewConfigurationView@@@0@@Z
	??$_Get_proxy_allocator@V?$allocator@V?$_List_unchecked_iterator@V?$_List_val@U?$_List_simple_types@U?$pair@$$CBG_N@std@@@std@@@std@@@std@@@std@@@std@@YA?AU_Fake_allocator@0@AEBV?$allocator@V?$_List_unchecked_iterator@V?$_List_val@U?$_List_simple_types@U?$pair@$$CBG_N@std@@@std@@@std@@@std@@@0@@Z
	??$_Get_proxy_allocator@V?$allocator@V?$_List_unchecked_iterator@V?$_List_val@U?$_List_simple_types@U?$pair@$$CBV?$basic_string@DU?$char_traits@D@std@@V?$allocator@D@2@@std@@UConfigProfile@vrc@@@std@@@std@@@std@@@std@@@std@@@std@@YA?AU_Fake_allocator@0@AEBV?$allocator@V?$_List_unchecked_iterator@V?$_List_val@U?$_List_simple_types@U?$pair@$$CBV?$basic_string@DU?$char_traits@D@std@@V?$allocator@D@2@@std@@UConfigProfile@vrc@@@std@@@std@@@std@@@std@@@0@@Z
	??$_Get_proxy_allocator@V?$allocator@V?$_List_unchecked_iterator@V?$_List_val@U?$_List_simple_types@U?$pair@$$CBV?$basic_string@DU?$char_traits@D@std@@V?$allocator@D@2@@std@@UInputProfile@vrc@@@std@@@std@@@std@@@std@@@std@@@std@@YA?AU_Fake_allocator@0@AEBV?$allocator@V?$_List_unchecked_iterator@V?$_List_val@U?$_List_simple_types@U?$pair@$$CBV?$basic_string@DU?$char_traits@D@std@@V?$allocator@D@2@@std@@UInputProfile@vrc@@@std@@@std@@@std@@@std@@@0@@Z
	??$_Get_proxy_allocator@V?$allocator@V?$_List_unchecked_iterator@V?$_List_val@U?$_List_simple_types@U?$pair@$$CBV?$basic_string@DU?$char_traits@D@std@@V?$allocator@D@2@@std@@V?$function@$$A6AXXZ@2@@std@@@std@@@std@@@std@@@std@@@std@@YA?AU_Fake_allocator@0@AEBV?$allocator@V?$_List_unchecked_iterator@V?$_List_val@U?$_List_simple_types@U?$pair@$$CBV?$basic_string@DU?$char_traits@D@std@@V?$allocator@D@2@@std@@V?$function@$$A6AXXZ@2@@std@@@std@@@std@@@std@@@0@@Z
	??$_Get_proxy_allocator@V?$allocator@V?$_List_unchecked_iterator@V?$_List_val@U?$_List_simple_types@U?$pair@$$CBW4InputAction@vrc@@M@std@@@std@@@std@@@std@@@std@@@std@@YA?AU_Fake_allocator@0@AEBV?$allocator@V?$_List_unchecked_iterator@V?$_List_val@U?$_List_simple_types@U?$pair@$$CBW4InputAction@vrc@@M@std@@@std@@@std@@@std@@@0@@Z
	??$_Get_proxy_allocator@V?$allocator@V?$basic_json@Vmap@std@@Vvector@2@V?$basic_string@DU?$char_traits@D@std@@V?$allocator@D@2@@2@_N_J_KNVallocator@2@Uadl_serializer@json_abi_v3_11_3@nlohmann@@V?$vector@EV?$allocator@E@std@@@2@X@json_abi_v3_11_3@nlohmann@@@std@@@std@@YA?AU_Fake_allocator@0@AEBV?$allocator@V?$basic_json@Vmap@std@@Vvector@2@V?$basic_string@DU?$char_traits@D@std@@V?$allocator@D@2@@2@_N_J_KNVallocator@2@Uadl_serializer@json_abi_v3_11_3@nlohmann@@V?$vector@EV?$allocator@E@std@@@2@X@json_abi_v3_11_3@nlohmann@@@0@@Z
	??$_Get_proxy_allocator@V?$allocator@V?$basic_string@DU?$char_traits@D@std@@V?$allocator@D@2@@std@@@std@@@std@@YA?AU_Fake_allocator@0@AEBV?$allocator@V?$basic_string@DU?$char_traits@D@std@@V?$allocator@D@2@@std@@@0@@Z
	??$_Get_proxy_allocator@V?$allocator@_W@std@@@std@@YA?AU_Fake_allocator@0@AEBV?$allocator@_W@0@@Z
	??$_Get_size_of_n@$00@std@@YA_K_K@Z
	??$_Get_size_of_n@$01@std@@YA_K_K@Z
	??$_Get_size_of_n@$03@std@@YA_K_K@Z
	??$_Get_size_of_n@$07@std@@YA_K_K@Z
	??$_Get_size_of_n@$0BA@@std@@YA_K_K@Z
	??$_Get_size_of_n@$0BI@@std@@YA_K_K@Z
	??$_Get_size_of_n@$0CA@@std@@YA_K_K@Z
	??$_Get_size_of_n@$0CI@@std@@YA_K_K@Z
	??$_Get_size_of_n@$0DA@@std@@YA_K_K@Z
	??$_Get_size_of_n@$0EA@@std@@YA_K_K@Z
	??$_Get_size_of_n@$0EI@@std@@YA_K_K@Z
	??$_Get_size_of_n@$0FA@@std@@YA_K_K@Z
	??$_Get_size_of_n@$0FI@@std@@YA_K_K@Z
	??$_Get_size_of_n@$0HA@@std@@YA_K_K@Z
	??$_Get_size_of_n@$0II@@std@@YA_K_K@Z
	??$_Get_size_of_n@$0JI@@std@@YA_K_K@Z
	??$_Get_size_of_n@$0KA@@std@@YA_K_K@Z
	??$_Get_unwrapped@AEAPEAD@std@@YA?A_TAEAPEAD@Z
	??$_Get_unwrapped@AEAPEBI@std@@YA?A_TAEAPEBI@Z
	??$_Get_unwrapped@AEAPEBV?$json_ref@V?$basic_json@Vmap@std@@Vvector@2@V?$basic_string@DU?$char_traits@D@std@@V?$allocator@D@2@@2@_N_J_KNVallocator@2@Uadl_serializer@json_abi_v3_11_3@nlohmann@@V?$vector@EV?$allocator@E@std@@@2@X@json_abi_v3_11_3@nlohmann@@@detail@json_abi_v3_11_3@nlohmann@@@std@@YA?A_TAEAPEBV?$json_ref@V?$basic_json@Vmap@std@@Vvector@2@V?$basic_string@DU?$char_traits@D@std@@V?$allocator@D@2@@2@_N_J_KNVallocator@2@Uadl_serializer@json_abi_v3_11_3@nlohmann@@V?$vector@EV?$allocator@E@std@@@2@X@json_abi_v3_11_3@nlohmann@@@detail@json_abi_v3_11_3@nlohmann@@@Z
	??$_Get_unwrapped@AEAPEB_K@std@@YA?A_TAEAPEB_K@Z
	??$_Get_unwrapped@AEAPEB_U@std@@YA?A_TAEAPEB_U@Z
	??$_Get_unwrapped@AEAPEB_W@std@@YA?A_TAEAPEB_W@Z
	??$_Get_unwrapped@AEAV?$_Vb_iterator@U?$_Wrap_alloc@V?$allocator@I@std@@@std@@@std@@@std@@YA?A_TAEAV?$_Vb_iterator@U?$_Wrap_alloc@V?$allocator@I@std@@@std@@@0@@Z
	??$_Get_unwrapped@AEAV?$_Vector_iterator@V?$_Vector_val@U?$_Simple_types@N@std@@@std@@@std@@@std@@YA?A_TAEAV?$_Vector_iterator@V?$_Vector_val@U?$_Simple_types@N@std@@@std@@@0@@Z
	??$_Get_unwrapped@AEAV?$_Vector_iterator@V?$_Vector_val@U?$_Simple_types@V?$basic_json@Vmap@std@@Vvector@2@V?$basic_string@DU?$char_traits@D@std@@V?$allocator@D@2@@2@_N_J_KNVallocator@2@Uadl_serializer@json_abi_v3_11_3@nlohmann@@V?$vector@EV?$allocator@E@std@@@2@X@json_abi_v3_11_3@nlohmann@@@std@@@std@@@std@@@std@@YA?A_TAEAV?$_Vector_iterator@V?$_Vector_val@U?$_Simple_types@V?$basic_json@Vmap@std@@Vvector@2@V?$basic_string@DU?$char_traits@D@std@@V?$allocator@D@2@@2@_N_J_KNVallocator@2@Uadl_serializer@json_abi_v3_11_3@nlohmann@@V?$vector@EV?$allocator@E@std@@@2@X@json_abi_v3_11_3@nlohmann@@@std@@@std@@@0@@Z
	??$_Get_unwrapped@AEBQEAD@std@@YA?A_TAEBQEAD@Z
	??$_Get_unwrapped@AEBQEAI@std@@YA?A_TAEBQEAI@Z
	??$_Get_unwrapped@AEBQEAN@std@@YA?A_TAEBQEAN@Z
	??$_Get_unwrapped@AEBQEAPEAULatencySnapshot@vrc@@@std@@YA?A_TAEBQEAPEAULatencySnapshot@vrc@@@Z
	??$_Get_unwrapped@AEBQEAPEAUPerfSample@vrc@@@std@@YA?A_TAEBQEAPEAUPerfSample@vrc@@@Z
	??$_Get_unwrapped@AEBQEAPEAURotationSample@LatencyCompensator@vrc@@@std@@YA?A_TAEBQEAPEAURotationSample@LatencyCompensator@vrc@@@Z
	??$_Get_unwrapped@AEBQEAPEAUTrackingSample@vrc@@@std@@YA?A_TAEBQEAPEAUTrackingSample@vrc@@@Z
	??$_Get_unwrapped@AEBQEAPEAV?$basic_json@Vmap@std@@Vvector@2@V?$basic_string@DU?$char_traits@D@std@@V?$allocator@D@2@@2@_N_J_KNVallocator@2@Uadl_serializer@json_abi_v3_11_3@nlohmann@@V?$vector@EV?$allocator@E@std@@@2@X@json_abi_v3_11_3@nlohmann@@@std@@YA?A_TAEBQEAPEAV?$basic_json@Vmap@std@@Vvector@2@V?$basic_string@DU?$char_traits@D@std@@V?$allocator@D@2@@2@_N_J_KNVallocator@2@Uadl_serializer@json_abi_v3_11_3@nlohmann@@V?$vector@EV?$allocator@E@std@@@2@X@json_abi_v3_11_3@nlohmann@@@Z
	??$_Get_unwrapped@AEBQEAPEAX@std@@YA?A_TAEBQEAPEAX@Z
	??$_Get_unwrapped@AEBQEAPEBD@std@@YA?A_TAEBQEAPEBD@Z
	??$_Get_unwrapped@AEBQEAU?$pair@PEAXP6AJPEAUIDXGISwapChain@@II@Z@std@@@std@@YA?A_TAEBQEAU?$pair@PEAXP6AJPEAUIDXGISwapChain@@II@Z@0@@Z
	??$_Get_unwrapped@AEBQEAUBinding@vrc@@@std@@YA?A_TAEBQEAUBinding@vrc@@@Z
	??$_Get_unwrapped@AEBQEAUD3D12_CPU_DESCRIPTOR_HANDLE@@@std@@YA?A_TAEBQEAUD3D12_CPU_DESCRIPTOR_HANDLE@@@Z
	??$_Get_unwrapped@AEBQEAUXrActionSuggestedBinding@@@std@@YA?A_TAEBQEAUXrActionSuggestedBinding@@@Z
	??$_Get_unwrapped@AEBQEAUXrSwapchainImageD3D11KHR@@@std@@YA?A_TAEBQEAUXrSwapchainImageD3D11KHR@@@Z
	??$_Get_unwrapped@AEBQEAUXrSwapchainImageD3D12KHR@@@std@@YA?A_TAEBQEAUXrSwapchainImageD3D12KHR@@@Z
	??$_Get_unwrapped@AEBQEAV?$_List_unchecked_iterator@V?$_List_val@U?$_List_simple_types@U?$pair@$$CBG_N@std@@@std@@@std@@@std@@@std@@YA?A_TAEBQEAV?$_List_unchecked_iterator@V?$_List_val@U?$_List_simple_types@U?$pair@$$CBG_N@std@@@std@@@std@@@0@@Z
	??$_Get_unwrapped@AEBQEAV?$_List_unchecked_iterator@V?$_List_val@U?$_List_simple_types@U?$pair@$$CBV?$basic_string@DU?$char_traits@D@std@@V?$allocator@D@2@@std@@UConfigProfile@vrc@@@std@@@std@@@std@@@std@@@std@@YA?A_TAEBQEAV?$_List_unchecked_iterator@V?$_List_val@U?$_List_simple_types@U?$pair@$$CBV?$basic_string@DU?$char_traits@D@std@@V?$allocator@D@2@@std@@UConfigProfile@vrc@@@std@@@std@@@std@@@0@@Z
	??$_Get_unwrapped@AEBQEAV?$_List_unchecked_iterator@V?$_List_val@U?$_List_simple_types@U?$pair@$$CBV?$basic_string@DU?$char_traits@D@std@@V?$allocator@D@2@@std@@UInputProfile@vrc@@@std@@@std@@@std@@@std@@@std@@YA?A_TAEBQEAV?$_List_unchecked_iterator@V?$_List_val@U?$_List_simple_types@U?$pair@$$CBV?$basic_string@DU?$char_traits@D@std@@V?$allocator@D@2@@std@@UInputProfile@vrc@@@std@@@std@@@std@@@0@@Z
	??$_Get_unwrapped@AEBQEAV?$_List_unchecked_iterator@V?$_List_val@U?$_List_simple_types@U?$pair@$$CBV?$basic_string@DU?$char_traits@D@std@@V?$allocator@D@2@@std@@V?$function@$$A6AXXZ@2@@std@@@std@@@std@@@std@@@std@@YA?A_TAEBQEAV?$_List_unchecked_iterator@V?$_List_val@U?$_List_simple_types@U?$pair@$$CBV?$basic_string@DU?$char_traits@D@std@@V?$allocator@D@2@@std@@V?$function@$$A6AXXZ@2@@std@@@std@@@std@@@0@@Z
	??$_Get_unwrapped@AEBQEAV?$_List_unchecked_iterator@V?$_List_val@U?$_List_simple_types@U?$pair@$$CBW4InputAction@vrc@@M@std@@@std@@@std@@@std@@@std@@YA?A_TAEBQEAV?$_List_unchecked_iterator@V?$_List_val@U?$_List_simple_types@U?$pair@$$CBW4InputAction@vrc@@M@std@@@std@@@std@@@0@@Z
	??$_Get_unwrapped@AEBQEAV?$basic_json@Vmap@std@@Vvector@2@V?$basic_string@DU?$char_traits@D@std@@V?$allocator@D@2@@2@_N_J_KNVallocator@2@Uadl_serializer@json_abi_v3_11_3@nlohmann@@V?$vector@EV?$allocator@E@std@@@2@X@json_abi_v3_11_3@nlohmann@@@std@@YA?A_TAEBQEAV?$basic_json@Vmap@std@@Vvector@2@V?$basic_string@DU?$char_traits@D@std@@V?$allocator@D@2@@2@_N_J_KNVallocator@2@Uadl_serializer@json_abi_v3_11_3@nlohmann@@V?$vector@EV?$allocator@E@std@@@2@X@json_abi_v3_11_3@nlohmann@@@Z
	??$_Get_unwrapped@AEBQEAV?$basic_string@DU?$char_traits@D@std@@V?$allocator@D@2@@std@@@std@@YA?A_TAEBQEAV?$basic_string@DU?$char_traits@D@std@@V?$allocator@D@2@@0@@Z
	??$_Get_unwrapped@AEBQEBD@std@@YA?A_TAEBQEBD@Z
	??$_Get_unwrapped@AEBQEBI@std@@YA?A_TAEBQEBI@Z
	??$_Get_unwrapped@AEBQEB_K@std@@YA?A_TAEBQEB_K@Z
	??$_Get_unwrapped@AEBQEB_W@std@@YA?A_TAEBQEB_W@Z
	??$_Get_unwrapped@AEBV?$_Vector_iterator@V?$_Vector_val@U?$_Simple_types@N@std@@@std@@@std@@@std@@YA?A_TAEBV?$_Vector_iterator@V?$_Vector_val@U?$_Simple_types@N@std@@@std@@@0@@Z
	??$_Get_unwrapped@PEAUBinding@vrc@@@std@@YA?A_T$$QEAPEAUBinding@vrc@@@Z
	??$_Get_unwrapped_n@AEAPEADH@std@@YA?A_TAEAPEADH@Z
	??$_Get_unwrapped_n@AEAPEADI@std@@YA?A_TAEAPEADI@Z
	??$_Get_unwrapped_n@AEAPEAPEAULatencySnapshot@vrc@@_J@std@@YA?A_TAEAPEAPEAULatencySnapshot@vrc@@_J@Z
	??$_Get_unwrapped_n@AEAPEAPEAUPerfSample@vrc@@_J@std@@YA?A_TAEAPEAPEAUPerfSample@vrc@@_J@Z
	??$_Get_unwrapped_n@AEAPEAPEAURotationSample@LatencyCompensator@vrc@@_J@std@@YA?A_TAEAPEAPEAURotationSample@LatencyCompensator@vrc@@_J@Z
	??$_Get_unwrapped_n@AEAPEAPEAUTrackingSample@vrc@@_J@std@@YA?A_TAEAPEAPEAUTrackingSample@vrc@@_J@Z
	??$_Get_unwrapped_n@AEAV?$_Vb_iterator@U?$_Wrap_alloc@V?$allocator@I@std@@@std@@@std@@_J@std@@YA?A_TAEAV?$_Vb_iterator@U?$_Wrap_alloc@V?$allocator@I@std@@@std@@@0@_J@Z
	??$_Get_unwrapped_n@AEAV?$back_insert_iterator@V?$vector@V?$basic_json@Vmap@std@@Vvector@2@V?$basic_string@DU?$char_traits@D@std@@V?$allocator@D@2@@2@_N_J_KNVallocator@2@Uadl_serializer@json_abi_v3_11_3@nlohmann@@V?$vector@EV?$allocator@E@std@@@2@X@json_abi_v3_11_3@nlohmann@@V?$allocator@V?$basic_json@Vmap@std@@Vvector@2@V?$basic_string@DU?$char_traits@D@std@@V?$allocator@D@2@@2@_N_J_KNVallocator@2@Uadl_serializer@json_abi_v3_11_3@nlohmann@@V?$vector@EV?$allocator@E@std@@@2@X@json_abi_v3_11_3@nlohmann@@@std@@@std@@@std@@_J@std@@YA?A_TAEAV?$back_insert_iterator@V?$vector@V?$basic_json@Vmap@std@@Vvector@2@V?$basic_string@DU?$char_traits@D@std@@V?$allocator@D@2@@2@_N_J_KNVallocator@2@Uadl_serializer@json_abi_v3_11_3@nlohmann@@V?$vector@EV?$allocator@E@std@@@2@X@json_abi_v3_11_3@nlohmann@@V?$allocator@V?$basic_json@Vmap@std@@Vvector@2@V?$basic_string@DU?$char_traits@D@std@@V?$allocator@D@2@@2@_N_J_KNVallocator@2@Uadl_serializer@json_abi_v3_11_3@nlohmann@@V?$vector@EV?$allocator@E@std@@@2@X@json_abi_v3_11_3@nlohmann@@@std@@@std@@@0@_J@Z
	??$_Get_unwrapped_n@V?$_Tree_const_iterator@V?$_Tree_val@U?$_Tree_simple_types@U?$pair@$$CBV?$basic_string@DU?$char_traits@D@std@@V?$allocator@D@2@@std@@V?$basic_json@Vmap@std@@Vvector@2@V?$basic_string@DU?$char_traits@D@std@@V?$allocator@D@2@@2@_N_J_KNVallocator@2@Uadl_serializer@json_abi_v3_11_3@nlohmann@@V?$vector@EV?$allocator@E@std@@@2@X@json_abi_v3_11_3@nlohmann@@@std@@@std@@@std@@@std@@_J@std@@YA?A_T$$QEAV?$_Tree_const_iterator@V?$_Tree_val@U?$_Tree_simple_types@U?$pair@$$CBV?$basic_string@DU?$char_traits@D@std@@V?$allocator@D@2@@std@@V?$basic_json@Vmap@std@@Vvector@2@V?$basic_string@DU?$char_traits@D@std@@V?$allocator@D@2@@2@_N_J_KNVallocator@2@Uadl_serializer@json_abi_v3_11_3@nlohmann@@V?$vector@EV?$allocator@E@std@@@2@X@json_abi_v3_11_3@nlohmann@@@std@@@std@@@std@@@0@_J@Z
	??$_Get_unwrapped_n@V?$_Tree_iterator@V?$_Tree_val@U?$_Tree_simple_types@U?$pair@$$CBV?$basic_string@DU?$char_traits@D@std@@V?$allocator@D@2@@std@@V?$basic_json@Vmap@std@@Vvector@2@V?$basic_string@DU?$char_traits@D@std@@V?$allocator@D@2@@2@_N_J_KNVallocator@2@Uadl_serializer@json_abi_v3_11_3@nlohmann@@V?$vector@EV?$allocator@E@std@@@2@X@json_abi_v3_11_3@nlohmann@@@std@@@std@@@std@@@std@@H@std@@YA?A_T$$QEAV?$_Tree_iterator@V?$_Tree_val@U?$_Tree_simple_types@U?$pair@$$CBV?$basic_string@DU?$char_traits@D@std@@V?$allocator@D@2@@std@@V?$basic_json@Vmap@std@@Vvector@2@V?$basic_string@DU?$char_traits@D@std@@V?$allocator@D@2@@2@_N_J_KNVallocator@2@Uadl_serializer@json_abi_v3_11_3@nlohmann@@V?$vector@EV?$allocator@E@std@@@2@X@json_abi_v3_11_3@nlohmann@@@std@@@std@@@std@@@0@H@Z
	??$_Get_unwrapped_n@V?$_Vb_iterator@U?$_Wrap_alloc@V?$allocator@I@std@@@std@@@std@@_J@std@@YA?A_T$$QEAV?$_Vb_iterator@U?$_Wrap_alloc@V?$allocator@I@std@@@std@@@0@_J@Z
	??$_Get_unwrapped_n@V?$back_insert_iterator@V?$_Fmt_buffer@D@std@@@std@@_J@std@@YA?A_T$$QEAV?$back_insert_iterator@V?$_Fmt_buffer@D@std@@@0@_J@Z
	??$_Get_unwrapped_unverified@AEAY08$$CBD@std@@YA?A_TAEAY08$$CBD@Z
	??$_Get_unwrapped_unverified@AEAY0BA@$$CBD@std@@YA?A_TAEAY0BA@$$CBD@Z
	??$_Get_unwrapped_unverified@AEAY0BAE@$$CBD@std@@YA?A_TAEAY0BAE@$$CBD@Z
	??$_Get_unwrapped_unverified@AEAY0BB@$$CBD@std@@YA?A_TAEAY0BB@$$CBD@Z
	??$_Get_unwrapped_unverified@AEAY0M@$$CBD@std@@YA?A_TAEAY0M@$$CBD@Z
	??$_Get_unwrapped_unverified@AEBQEAD@std@@YA?A_TAEBQEAD@Z
	??$_Get_value_from_memory@D@?$basic_format_args@V?$basic_format_context@V?$back_insert_iterator@V?$_Fmt_buffer@D@std@@@std@@D@std@@@std@@CA?A_PQEBE@Z
	??$_Get_value_from_memory@H@?$basic_format_args@V?$basic_format_context@V?$back_insert_iterator@V?$_Fmt_buffer@D@std@@@std@@D@std@@@std@@CA?A_PQEBE@Z
	??$_Get_value_from_memory@I@?$basic_format_args@V?$basic_format_context@V?$back_insert_iterator@V?$_Fmt_buffer@D@std@@@std@@D@std@@@std@@CA?A_PQEBE@Z
	??$_Get_value_from_memory@M@?$basic_format_args@V?$basic_format_context@V?$back_insert_iterator@V?$_Fmt_buffer@D@std@@@std@@D@std@@@std@@CA?A_PQEBE@Z
	??$_Get_value_from_memory@N@?$basic_format_args@V?$basic_format_context@V?$back_insert_iterator@V?$_Fmt_buffer@D@std@@@std@@D@std@@@std@@CA?A_PQEBE@Z
	??$_Get_value_from_memory@O@?$basic_format_args@V?$basic_format_context@V?$back_insert_iterator@V?$_Fmt_buffer@D@std@@@std@@D@std@@@std@@CA?A_PQEBE@Z
	??$_Get_value_from_memory@PEBD@?$basic_format_args@V?$basic_format_context@V?$back_insert_iterator@V?$_Fmt_buffer@D@std@@@std@@D@std@@@std@@CA?A_PQEBE@Z
	??$_Get_value_from_memory@PEBX@?$basic_format_args@V?$basic_format_context@V?$back_insert_iterator@V?$_Fmt_buffer@D@std@@@std@@D@std@@@std@@CA?A_PQEBE@Z
	??$_Get_value_from_memory@V?$basic_string_view@DU?$char_traits@D@std@@@std@@@?$basic_format_args@V?$basic_format_context@V?$back_insert_iterator@V?$_Fmt_buffer@D@std@@@std@@D@std@@@std@@CA?A_PQEBE@Z
	??$_Get_value_from_memory@Vhandle@?$basic_format_arg@V?$basic_format_context@V?$back_insert_iterator@V?$_Fmt_buffer@D@std@@@std@@D@std@@@std@@@?$basic_format_args@V?$basic_format_context@V?$back_insert_iterator@V?$_Fmt_buffer@D@std@@@std@@D@std@@@std@@CA?A_PQEBE@Z
	??$_Get_value_from_memory@_J@?$basic_format_args@V?$basic_format_context@V?$back_insert_iterator@V?$_Fmt_buffer@D@std@@@std@@D@std@@@std@@CA?A_PQEBE@Z
	??$_Get_value_from_memory@_K@?$basic_format_args@V?$basic_format_context@V?$back_insert_iterator@V?$_Fmt_buffer@D@std@@@std@@D@std@@@std@@CA?A_PQEBE@Z
	??$_Get_value_from_memory@_N@?$basic_format_args@V?$basic_format_context@V?$back_insert_iterator@V?$_Fmt_buffer@D@std@@@std@@D@std@@@std@@CA?A_PQEBE@Z
	??$_Getvals@_W@?$time_get@DV?$istreambuf_iterator@DU?$char_traits@D@std@@@std@@@std@@IEAAX_WAEBV_Locinfo@1@@Z
	??$_Getvals@_W@?$time_get@_WV?$istreambuf_iterator@_WU?$char_traits@_W@std@@@std@@@std@@IEAAX_WAEBV_Locinfo@1@@Z
	??$_Guess_median_unchecked@PEANU?$less@X@std@@@std@@YAXPEAN00U?$less@X@0@@Z
	??$_Hash_array_representation@D@std@@YA_KQEBD_K@Z
	??$_Hash_representation@G@std@@YA_KAEBG@Z
	??$_Hash_representation@W4InputAction@vrc@@@std@@YA_KAEBW4InputAction@vrc@@@Z
	??$_Idl_distance@$$CBV?$basic_string_view@DU?$char_traits@D@std@@@std@@@ranges@std@@YA?A_PAEBV?$basic_string_view@DU?$char_traits@D@std@@@1@@Z
	??$_Idl_distance@PEADPEADPEAD@ranges@std@@YA?A_PAEBQEAD0@Z
	??$_Idl_distance@PEAPEAULatencySnapshot@vrc@@PEAPEAU12@@std@@YA?A_PAEBQEAPEAULatencySnapshot@vrc@@0@Z
	??$_Idl_distance@PEAPEAUPerfSample@vrc@@PEAPEAU12@@std@@YA?A_PAEBQEAPEAUPerfSample@vrc@@0@Z
	??$_Idl_distance@PEAPEAURotationSample@LatencyCompensator@vrc@@PEAPEAU123@@std@@YA?A_PAEBQEAPEAURotationSample@LatencyCompensator@vrc@@0@Z
	??$_Idl_distance@PEAPEAUTrackingSample@vrc@@PEAPEAU12@@std@@YA?A_PAEBQEAPEAUTrackingSample@vrc@@0@Z
	??$_Idl_distance@V?$_Vb_iterator@U?$_Wrap_alloc@V?$allocator@I@std@@@std@@@std@@V12@@std@@YA?A_PAEBV?$_Vb_iterator@U?$_Wrap_alloc@V?$allocator@I@std@@@std@@@0@0@Z
	??$_Idl_distance@V?$_Vector_iterator@V?$_Vector_val@U?$_Simple_types@V?$basic_json@Vmap@std@@Vvector@2@V?$basic_string@DU?$char_traits@D@std@@V?$allocator@D@2@@2@_N_J_KNVallocator@2@Uadl_serializer@json_abi_v3_11_3@nlohmann@@V?$vector@EV?$allocator@E@std@@@2@X@json_abi_v3_11_3@nlohmann@@@std@@@std@@@std@@PEAV?$basic_json@Vmap@std@@Vvector@2@V?$basic_string@DU?$char_traits@D@std@@V?$allocator@D@2@@2@_N_J_KNVallocator@2@Uadl_serializer@json_abi_v3_11_3@nlohmann@@V?$vector@EV?$allocator@E@std@@@2@X@json_abi_v3_11_3@nlohmann@@@std@@YA?A_PAEBQEAV?$basic_json@Vmap@std@@Vvector@2@V?$basic_string@DU?$char_traits@D@std@@V?$allocator@D@2@@2@_N_J_KNVallocator@2@Uadl_serializer@json_abi_v3_11_3@nlohmann@@V?$vector@EV?$allocator@E@std@@@2@X@json_abi_v3_11_3@nlohmann@@0@Z
	??$_Immortalize_memcpy_image@V_Generic_error_category@std@@@std@@YAAEBV_Generic_error_category@0@XZ
	??$_Immortalize_memcpy_image@V_System_error_category@std@@@std@@YAAEBV_System_error_category@0@XZ
	??$_In_bounds@DE@std@@YA_NE@Z
	??$_In_bounds@DH@std@@YA_NH@Z
	??$_In_bounds@DI@std@@YA_NI@Z
	??$_In_bounds@D_J@std@@YA_N_J@Z
	??$_In_bounds@D_K@std@@YA_N_K@Z
	??$_In_range@CE@std@@YA_NE@Z
	??$_In_range@CH@std@@YA_NH@Z
	??$_In_range@CI@std@@YA_NI@Z
	??$_In_range@C_J@std@@YA_N_J@Z
	??$_In_range@C_K@std@@YA_N_K@Z
	??$_In_range@H_K@std@@YA_N_K@Z
	??$_Insert@D@?$basic_string@DU?$char_traits@D@std@@V?$allocator@D@2@@std@@AEAAAEAV01@_KQEBD0@Z
	??$_Insert_string@DU?$char_traits@D@std@@_K@std@@YAAEAV?$basic_ostream@DU?$char_traits@D@std@@@0@AEAV10@QEBD_K@Z
	??$_Insertion_sort_unchecked@PEANU?$less@X@std@@@std@@YAPEANQEAN0U?$less@X@0@@Z
	??$_Integer_to_chars@E@std@@YA?AUto_chars_result@0@PEADQEADEH@Z
	??$_Integer_to_chars@H@std@@YA?AUto_chars_result@0@PEADQEADHH@Z
	??$_Integer_to_chars@I@std@@YA?AUto_chars_result@0@PEADQEADIH@Z
	??$_Integer_to_chars@_J@std@@YA?AUto_chars_result@0@PEADQEAD_JH@Z
	??$_Integer_to_chars@_K@std@@YA?AUto_chars_result@0@PEADQEAD_KH@Z
	??$_Integral_to_string@DH@std@@YA?AV?$basic_string@DU?$char_traits@D@std@@V?$allocator@D@2@@0@H@Z
	??$_Integral_to_string@D_K@std@@YA?AV?$basic_string@DU?$char_traits@D@std@@V?$allocator@D@2@@0@_K@Z
	??$_Invoke@V?$tuple@P8OpenXRContext@vrc@@EAAXXZPEAV12@@std@@$0A@$00@thread@std@@CAIPEAX@Z
	??$_Is_all_bits_zero@I@std@@YA_NAEBI@Z
	??$_Kfn@$$CBG_N@?$_Umap_traits@G_NV?$_Uhash_compare@GU?$hash@G@std@@U?$equal_to@G@2@@std@@V?$allocator@U?$pair@$$CBG_N@std@@@2@$0A@@std@@SAAEBGAEBU?$pair@$$CBG_N@1@@Z
	??$_Kfn@$$CBV?$basic_string@DU?$char_traits@D@std@@V?$allocator@D@2@@std@@UConfigProfile@vrc@@@?$_Umap_traits@V?$basic_string@DU?$char_traits@D@std@@V?$allocator@D@2@@std@@UConfigProfile@vrc@@V?$_Uhash_compare@V?$basic_string@DU?$char_traits@D@std@@V?$allocator@D@2@@std@@U?$hash@V?$basic_string@DU?$char_traits@D@std@@V?$allocator@D@2@@std@@@2@U?$equal_to@V?$basic_string@DU?$char_traits@D@std@@V?$allocator@D@2@@std@@@2@@2@V?$allocator@U?$pair@$$CBV?$basic_string@DU?$char_traits@D@std@@V?$allocator@D@2@@std@@UConfigProfile@vrc@@@std@@@2@$0A@@std@@SAAEBV?$basic_string@DU?$char_traits@D@std@@V?$allocator@D@2@@1@AEBU?$pair@$$CBV?$basic_string@DU?$char_traits@D@std@@V?$allocator@D@2@@std@@UConfigProfile@vrc@@@1@@Z
	??$_Kfn@$$CBV?$basic_string@DU?$char_traits@D@std@@V?$allocator@D@2@@std@@UInputProfile@vrc@@@?$_Umap_traits@V?$basic_string@DU?$char_traits@D@std@@V?$allocator@D@2@@std@@UInputProfile@vrc@@V?$_Uhash_compare@V?$basic_string@DU?$char_traits@D@std@@V?$allocator@D@2@@std@@U?$hash@V?$basic_string@DU?$char_traits@D@std@@V?$allocator@D@2@@std@@@2@U?$equal_to@V?$basic_string@DU?$char_traits@D@std@@V?$allocator@D@2@@std@@@2@@2@V?$allocator@U?$pair@$$CBV?$basic_string@DU?$char_traits@D@std@@V?$allocator@D@2@@std@@UInputProfile@vrc@@@std@@@2@$0A@@std@@SAAEBV?$basic_string@DU?$char_traits@D@std@@V?$allocator@D@2@@1@AEBU?$pair@$$CBV?$basic_string@DU?$char_traits@D@std@@V?$allocator@D@2@@std@@UInputProfile@vrc@@@1@@Z
	??$_Kfn@$$CBV?$basic_string@DU?$char_traits@D@std@@V?$allocator@D@2@@std@@V?$basic_json@Vmap@std@@Vvector@2@V?$basic_string@DU?$char_traits@D@std@@V?$allocator@D@2@@2@_N_J_KNVallocator@2@Uadl_serializer@json_abi_v3_11_3@nlohmann@@V?$vector@EV?$allocator@E@std@@@2@X@json_abi_v3_11_3@nlohmann@@@?$_Tmap_traits@V?$basic_string@DU?$char_traits@D@std@@V?$allocator@D@2@@std@@V?$basic_json@Vmap@std@@Vvector@2@V?$basic_string@DU?$char_traits@D@std@@V?$allocator@D@2@@2@_N_J_KNVallocator@2@Uadl_serializer@json_abi_v3_11_3@nlohmann@@V?$vector@EV?$allocator@E@std@@@2@X@json_abi_v3_11_3@nlohmann@@U?$less@X@2@V?$allocator@U?$pair@$$CBV?$basic_string@DU?$char_traits@D@std@@V?$allocator@D@2@@std@@V?$basic_json@Vmap@std@@Vvector@2@V?$basic_string@DU?$char_traits@D@std@@V?$allocator@D@2@@2@_N_J_KNVallocator@2@Uadl_serializer@json_abi_v3_11_3@nlohmann@@V?$vector@EV?$allocator@E@std@@@2@X@json_abi_v3_11_3@nlohmann@@@std@@@2@$0A@@std@@SAAEBV?$basic_string@DU?$char_traits@D@std@@V?$allocator@D@2@@1@AEBU?$pair@$$CBV?$basic_string@DU?$char_traits@D@std@@V?$allocator@D@2@@std@@V?$basic_json@Vmap@std@@Vvector@2@V?$basic_string@DU?$char_traits@D@std@@V?$allocator@D@2@@2@_N_J_KNVallocator@2@Uadl_serializer@json_abi_v3_11_3@nlohmann@@V?$vector@EV?$allocator@E@std@@@2@X@json_abi_v3_11_3@nlohmann@@@1@@Z
	??$_Kfn@$$CBV?$basic_string@DU?$char_traits@D@std@@V?$allocator@D@2@@std@@V?$function@$$A6AXXZ@2@@?$_Umap_traits@V?$basic_string@DU?$char_traits@D@std@@V?$allocator@D@2@@std@@V?$function@$$A6AXXZ@2@V?$_Uhash_compare@V?$basic_string@DU?$char_traits@D@std@@V?$allocator@D@2@@std@@U?$hash@V?$basic_string@DU?$char_traits@D@std@@V?$allocator@D@2@@std@@@2@U?$equal_to@V?$basic_string@DU?$char_traits@D@std@@V?$allocator@D@2@@std@@@2@@2@V?$allocator@U?$pair@$$CBV?$basic_string@DU?$char_traits@D@std@@V?$allocator@D@2@@std@@V?$function@$$A6AXXZ@2@@std@@@2@$0A@@std@@SAAEBV?$basic_string@DU?$char_traits@D@std@@V?$allocator@D@2@@1@AEBU?$pair@$$CBV?$basic_string@DU?$char_traits@D@std@@V?$allocator@D@2@@std@@V?$function@$$A6AXXZ@2@@1@@Z
	??$_Kfn@$$CBW4InputAction@vrc@@M@?$_Umap_traits@W4InputAction@vrc@@MV?$_Uhash_compare@W4InputAction@vrc@@U?$hash@W4InputAction@vrc@@@std@@U?$equal_to@W4InputAction@vrc@@@4@@std@@V?$allocator@U?$pair@$$CBW4InputAction@vrc@@M@std@@@4@$0A@@std@@SAAEBW4InputAction@vrc@@AEBU?$pair@$$CBW4InputAction@vrc@@M@1@@Z
	??$_Large_integer_to_chars@D@std@@YA?AU?$pair@PEADW4errc@std@@@0@QEAD0IH@Z
	??$_Lower_bound_duplicate@$$BY03D@?$_Tree@V?$_Tmap_traits@V?$basic_string@DU?$char_traits@D@std@@V?$allocator@D@2@@std@@V?$basic_json@Vmap@std@@Vvector@2@V?$basic_string@DU?$char_traits@D@std@@V?$allocator@D@2@@2@_N_J_KNVallocator@2@Uadl_serializer@json_abi_v3_11_3@nlohmann@@V?$vector@EV?$allocator@E@std@@@2@X@json_abi_v3_11_3@nlohmann@@U?$less@X@2@V?$allocator@U?$pair@$$CBV?$basic_string@DU?$char_traits@D@std@@V?$allocator@D@2@@std@@V?$basic_json@Vmap@std@@Vvector@2@V?$basic_string@DU?$char_traits@D@std@@V?$allocator@D@2@@2@_N_J_KNVallocator@2@Uadl_serializer@json_abi_v3_11_3@nlohmann@@V?$vector@EV?$allocator@E@std@@@2@X@json_abi_v3_11_3@nlohmann@@@std@@@2@$0A@@std@@@std@@IEBA_NQEAU?$_Tree_node@U?$pair@$$CBV?$basic_string@DU?$char_traits@D@std@@V?$allocator@D@2@@std@@V?$basic_json@Vmap@std@@Vvector@2@V?$basic_string@DU?$char_traits@D@std@@V?$allocator@D@2@@2@_N_J_KNVallocator@2@Uadl_serializer@json_abi_v3_11_3@nlohmann@@V?$vector@EV?$allocator@E@std@@@2@X@json_abi_v3_11_3@nlohmann@@@std@@PEAX@1@AEAY03$$CBD@Z
	??$_Lower_bound_duplicate@$$BY04D@?$_Tree@V?$_Tmap_traits@V?$basic_string@DU?$char_traits@D@std@@V?$allocator@D@2@@std@@V?$basic_json@Vmap@std@@Vvector@2@V?$basic_string@DU?$char_traits@D@std@@V?$allocator@D@2@@2@_N_J_KNVallocator@2@Uadl_serializer@json_abi_v3_11_3@nlohmann@@V?$vector@EV?$allocator@E@std@@@2@X@json_abi_v3_11_3@nlohmann@@U?$less@X@2@V?$allocator@U?$pair@$$CBV?$basic_string@DU?$char_traits@D@std@@V?$allocator@D@2@@std@@V?$basic_json@Vmap@std@@Vvector@2@V?$basic_string@DU?$char_traits@D@std@@V?$allocator@D@2@@2@_N_J_KNVallocator@2@Uadl_serializer@json_abi_v3_11_3@nlohmann@@V?$vector@EV?$allocator@E@std@@@2@X@json_abi_v3_11_3@nlohmann@@@std@@@2@$0A@@std@@@std@@IEBA_NQEAU?$_Tree_node@U?$pair@$$CBV?$basic_string@DU?$char_traits@D@std@@V?$allocator@D@2@@std@@V?$basic_json@Vmap@std@@Vvector@2@V?$basic_string@DU?$char_traits@D@std@@V?$allocator@D@2@@2@_N_J_KNVallocator@2@Uadl_serializer@json_abi_v3_11_3@nlohmann@@V?$vector@EV?$allocator@E@std@@@2@X@json_abi_v3_11_3@nlohmann@@@std@@PEAX@1@AEAY04$$CBD@Z
	??$_Lower_bound_duplicate@$$BY05D@?$_Tree@V?$_Tmap_traits@V?$basic_string@DU?$char_traits@D@std@@V?$allocator@D@2@@std@@V?$basic_json@Vmap@std@@Vvector@2@V?$basic_string@DU?$char_traits@D@std@@V?$allocator@D@2@@2@_N_J_KNVallocator@2@Uadl_serializer@json_abi_v3_11_3@nlohmann@@V?$vector@EV?$allocator@E@std@@@2@X@json_abi_v3_11_3@nlohmann@@U?$less@X@2@V?$allocator@U?$pair@$$CBV?$basic_string@DU?$char_traits@D@std@@V?$allocator@D@2@@std@@V?$basic_json@Vmap@std@@Vvector@2@V?$basic_string@DU?$char_traits@D@std@@V?$allocator@D@2@@2@_N_J_KNVallocator@2@Uadl_serializer@json_abi_v3_11_3@nlohmann@@V?$vector@EV?$allocator@E@std@@@2@X@json_abi_v3_11_3@nlohmann@@@std@@@2@$0A@@std@@@std@@IEBA_NQEAU?$_Tree_node@U?$pair@$$CBV?$basic_string@DU?$char_traits@D@std@@V?$allocator@D@2@@std@@V?$basic_json@Vmap@std@@Vvector@2@V?$basic_string@DU?$char_traits@D@std@@V?$allocator@D@2@@2@_N_J_KNVallocator@2@Uadl_serializer@json_abi_v3_11_3@nlohmann@@V?$vector@EV?$allocator@E@std@@@2@X@json_abi_v3_11_3@nlohmann@@@std@@PEAX@1@AEAY05$$CBD@Z
	??$_Lower_bound_duplicate@$$BY06D@?$_Tree@V?$_Tmap_traits@V?$basic_string@DU?$char_traits@D@std@@V?$allocator@D@2@@std@@V?$basic_json@Vmap@std@@Vvector@2@V?$basic_string@DU?$char_traits@D@std@@V?$allocator@D@2@@2@_N_J_KNVallocator@2@Uadl_serializer@json_abi_v3_11_3@nlohmann@@V?$vector@EV?$allocator@E@std@@@2@X@json_abi_v3_11_3@nlohmann@@U?$less@X@2@V?$allocator@U?$pair@$$CBV?$basic_string@DU?$char_traits@D@std@@V?$allocator@D@2@@std@@V?$basic_json@Vmap@std@@Vvector@2@V?$basic_string@DU?$char_traits@D@std@@V?$allocator@D@2@@2@_N_J_KNVallocator@2@Uadl_serializer@json_abi_v3_11_3@nlohmann@@V?$vector@EV?$allocator@E@std@@@2@X@json_abi_v3_11_3@nlohmann@@@std@@@2@$0A@@std@@@std@@IEBA_NQEAU?$_Tree_node@U?$pair@$$CBV?$basic_string@DU?$char_traits@D@std@@V?$allocator@D@2@@std@@V?$basic_json@Vmap@std@@Vvector@2@V?$basic_string@DU?$char_traits@D@std@@V?$allocator@D@2@@2@_N_J_KNVallocator@2@Uadl_serializer@json_abi_v3_11_3@nlohmann@@V?$vector@EV?$allocator@E@std@@@2@X@json_abi_v3_11_3@nlohmann@@@std@@PEAX@1@AEAY06$$CBD@Z
	??$_Lower_bound_duplicate@$$BY07D@?$_Tree@V?$_Tmap_traits@V?$basic_string@DU?$char_traits@D@std@@V?$allocator@D@2@@std@@V?$basic_json@Vmap@std@@Vvector@2@V?$basic_string@DU?$char_traits@D@std@@V?$allocator@D@2@@2@_N_J_KNVallocator@2@Uadl_serializer@json_abi_v3_11_3@nlohmann@@V?$vector@EV?$allocator@E@std@@@2@X@json_abi_v3_11_3@nlohmann@@U?$less@X@2@V?$allocator@U?$pair@$$CBV?$basic_string@DU?$char_traits@D@std@@V?$allocator@D@2@@std@@V?$basic_json@Vmap@std@@Vvector@2@V?$basic_string@DU?$char_traits@D@std@@V?$allocator@D@2@@2@_N_J_KNVallocator@2@Uadl_serializer@json_abi_v3_11_3@nlohmann@@V?$vector@EV?$allocator@E@std@@@2@X@json_abi_v3_11_3@nlohmann@@@std@@@2@$0A@@std@@@std@@IEBA_NQEAU?$_Tree_node@U?$pair@$$CBV?$basic_string@DU?$char_traits@D@std@@V?$allocator@D@2@@std@@V?$basic_json@Vmap@std@@Vvector@2@V?$basic_string@DU?$char_traits@D@std@@V?$allocator@D@2@@2@_N_J_KNVallocator@2@Uadl_serializer@json_abi_v3_11_3@nlohmann@@V?$vector@EV?$allocator@E@std@@@2@X@json_abi_v3_11_3@nlohmann@@@std@@PEAX@1@AEAY07$$CBD@Z
	??$_Lower_bound_duplicate@$$BY08D@?$_Tree@V?$_Tmap_traits@V?$basic_string@DU?$char_traits@D@std@@V?$allocator@D@2@@std@@V?$basic_json@Vmap@std@@Vvector@2@V?$basic_string@DU?$char_traits@D@std@@V?$allocator@D@2@@2@_N_J_KNVallocator@2@Uadl_serializer@json_abi_v3_11_3@nlohmann@@V?$vector@EV?$allocator@E@std@@@2@X@json_abi_v3_11_3@nlohmann@@U?$less@X@2@V?$allocator@U?$pair@$$CBV?$basic_string@DU?$char_traits@D@std@@V?$allocator@D@2@@std@@V?$basic_json@Vmap@std@@Vvector@2@V?$basic_string@DU?$char_traits@D@std@@V?$allocator@D@2@@2@_N_J_KNVallocator@2@Uadl_serializer@json_abi_v3_11_3@nlohmann@@V?$vector@EV?$allocator@E@std@@@2@X@json_abi_v3_11_3@nlohmann@@@std@@@2@$0A@@std@@@std@@IEBA_NQEAU?$_Tree_node@U?$pair@$$CBV?$basic_string@DU?$char_traits@D@std@@V?$allocator@D@2@@std@@V?$basic_json@Vmap@std@@Vvector@2@V?$basic_string@DU?$char_traits@D@std@@V?$allocator@D@2@@2@_N_J_KNVallocator@2@Uadl_serializer@json_abi_v3_11_3@nlohmann@@V?$vector@EV?$allocator@E@std@@@2@X@json_abi_v3_11_3@nlohmann@@@std@@PEAX@1@AEAY08$$CBD@Z
	??$_Lower_bound_duplicate@$$BY09D@?$_Tree@V?$_Tmap_traits@V?$basic_string@DU?$char_traits@D@std@@V?$allocator@D@2@@std@@V?$basic_json@Vmap@std@@Vvector@2@V?$basic_string@DU?$char_traits@D@std@@V?$allocator@D@2@@2@_N_J_KNVallocator@2@Uadl_serializer@json_abi_v3_11_3@nlohmann@@V?$vector@EV?$allocator@E@std@@@2@X@json_abi_v3_11_3@nlohmann@@U?$less@X@2@V?$allocator@U?$pair@$$CBV?$basic_string@DU?$char_traits@D@std@@V?$allocator@D@2@@std@@V?$basic_json@Vmap@std@@Vvector@2@V?$basic_string@DU?$char_traits@D@std@@V?$allocator@D@2@@2@_N_J_KNVallocator@2@Uadl_serializer@json_abi_v3_11_3@nlohmann@@V?$vector@EV?$allocator@E@std@@@2@X@json_abi_v3_11_3@nlohmann@@@std@@@2@$0A@@std@@@std@@IEBA_NQEAU?$_Tree_node@U?$pair@$$CBV?$basic_string@DU?$char_traits@D@std@@V?$allocator@D@2@@std@@V?$basic_json@Vmap@std@@Vvector@2@V?$basic_string@DU?$char_traits@D@std@@V?$allocator@D@2@@2@_N_J_KNVallocator@2@Uadl_serializer@json_abi_v3_11_3@nlohmann@@V?$vector@EV?$allocator@E@std@@@2@X@json_abi_v3_11_3@nlohmann@@@std@@PEAX@1@AEAY09$$CBD@Z
	??$_Lower_bound_duplicate@$$BY0BA@D@?$_Tree@V?$_Tmap_traits@V?$basic_string@DU?$char_traits@D@std@@V?$allocator@D@2@@std@@V?$basic_json@Vmap@std@@Vvector@2@V?$basic_string@DU?$char_traits@D@std@@V?$allocator@D@2@@2@_N_J_KNVallocator@2@Uadl_serializer@json_abi_v3_11_3@nlohmann@@V?$vector@EV?$allocator@E@std@@@2@X@json_abi_v3_11_3@nlohmann@@U?$less@X@2@V?$allocator@U?$pair@$$CBV?$basic_string@DU?$char_traits@D@std@@V?$allocator@D@2@@std@@V?$basic_json@Vmap@std@@Vvector@2@V?$basic_string@DU?$char_traits@D@std@@V?$allocator@D@2@@2@_N_J_KNVallocator@2@Uadl_serializer@json_abi_v3_11_3@nlohmann@@V?$vector@EV?$allocator@E@std@@@2@X@json_abi_v3_11_3@nlohmann@@@std@@@2@$0A@@std@@@std@@IEBA_NQEAU?$_Tree_node@U?$pair@$$CBV?$basic_string@DU?$char_traits@D@std@@V?$allocator@D@2@@std@@V?$basic_json@Vmap@std@@Vvector@2@V?$basic_string@DU?$char_traits@D@std@@V?$allocator@D@2@@2@_N_J_KNVallocator@2@Uadl_serializer@json_abi_v3_11_3@nlohmann@@V?$vector@EV?$allocator@E@std@@@2@X@json_abi_v3_11_3@nlohmann@@@std@@PEAX@1@AEAY0BA@$$CBD@Z
	??$_Lower_bound_duplicate@$$BY0BB@D@?$_Tree@V?$_Tmap_traits@V?$basic_string@DU?$char_traits@D@std@@V?$allocator@D@2@@std@@V?$basic_json@Vmap@std@@Vvector@2@V?$basic_string@DU?$char_traits@D@std@@V?$allocator@D@2@@2@_N_J_KNVallocator@2@Uadl_serializer@json_abi_v3_11_3@nlohmann@@V?$vector@EV?$allocator@E@std@@@2@X@json_abi_v3_11_3@nlohmann@@U?$less@X@2@V?$allocator@U?$pair@$$CBV?$basic_string@DU?$char_traits@D@std@@V?$allocator@D@2@@std@@V?$basic_json@Vmap@std@@Vvector@2@V?$basic_string@DU?$char_traits@D@std@@V?$allocator@D@2@@2@_N_J_KNVallocator@2@Uadl_serializer@json_abi_v3_11_3@nlohmann@@V?$vector@EV?$allocator@E@std@@@2@X@json_abi_v3_11_3@nlohmann@@@std@@@2@$0A@@std@@@std@@IEBA_NQEAU?$_Tree_node@U?$pair@$$CBV?$basic_string@DU?$char_traits@D@std@@V?$allocator@D@2@@std@@V?$basic_json@Vmap@std@@Vvector@2@V?$basic_string@DU?$char_traits@D@std@@V?$allocator@D@2@@2@_N_J_KNVallocator@2@Uadl_serializer@json_abi_v3_11_3@nlohmann@@V?$vector@EV?$allocator@E@std@@@2@X@json_abi_v3_11_3@nlohmann@@@std@@PEAX@1@AEAY0BB@$$CBD@Z
	??$_Lower_bound_duplicate@$$BY0BD@D@?$_Tree@V?$_Tmap_traits@V?$basic_string@DU?$char_traits@D@std@@V?$allocator@D@2@@std@@V?$basic_json@Vmap@std@@Vvector@2@V?$basic_string@DU?$char_traits@D@std@@V?$allocator@D@2@@2@_N_J_KNVallocator@2@Uadl_serializer@json_abi_v3_11_3@nlohmann@@V?$vector@EV?$allocator@E@std@@@2@X@json_abi_v3_11_3@nlohmann@@U?$less@X@2@V?$allocator@U?$pair@$$CBV?$basic_string@DU?$char_traits@D@std@@V?$allocator@D@2@@std@@V?$basic_json@Vmap@std@@Vvector@2@V?$basic_string@DU?$char_traits@D@std@@V?$allocator@D@2@@2@_N_J_KNVallocator@2@Uadl_serializer@json_abi_v3_11_3@nlohmann@@V?$vector@EV?$allocator@E@std@@@2@X@json_abi_v3_11_3@nlohmann@@@std@@@2@$0A@@std@@@std@@IEBA_NQEAU?$_Tree_node@U?$pair@$$CBV?$basic_string@DU?$char_traits@D@std@@V?$allocator@D@2@@std@@V?$basic_json@Vmap@std@@Vvector@2@V?$basic_string@DU?$char_traits@D@std@@V?$allocator@D@2@@2@_N_J_KNVallocator@2@Uadl_serializer@json_abi_v3_11_3@nlohmann@@V?$vector@EV?$allocator@E@std@@@2@X@json_abi_v3_11_3@nlohmann@@@std@@PEAX@1@AEAY0BD@$$CBD@Z
	??$_Lower_bound_duplicate@$$BY0BF@D@?$_Tree@V?$_Tmap_traits@V?$basic_string@DU?$char_traits@D@std@@V?$allocator@D@2@@std@@V?$basic_json@Vmap@std@@Vvector@2@V?$basic_string@DU?$char_traits@D@std@@V?$allocator@D@2@@2@_N_J_KNVallocator@2@Uadl_serializer@json_abi_v3_11_3@nlohmann@@V?$vector@EV?$allocator@E@std@@@2@X@json_abi_v3_11_3@nlohmann@@U?$less@X@2@V?$allocator@U?$pair@$$CBV?$basic_string@DU?$char_traits@D@std@@V?$allocator@D@2@@std@@V?$basic_json@Vmap@std@@Vvector@2@V?$basic_string@DU?$char_traits@D@std@@V?$allocator@D@2@@2@_N_J_KNVallocator@2@Uadl_serializer@json_abi_v3_11_3@nlohmann@@V?$vector@EV?$allocator@E@std@@@2@X@json_abi_v3_11_3@nlohmann@@@std@@@2@$0A@@std@@@std@@IEBA_NQEAU?$_Tree_node@U?$pair@$$CBV?$basic_string@DU?$char_traits@D@std@@V?$allocator@D@2@@std@@V?$basic_json@Vmap@std@@Vvector@2@V?$basic_string@DU?$char_traits@D@std@@V?$allocator@D@2@@2@_N_J_KNVallocator@2@Uadl_serializer@json_abi_v3_11_3@nlohmann@@V?$vector@EV?$allocator@E@std@@@2@X@json_abi_v3_11_3@nlohmann@@@std@@PEAX@1@AEAY0BF@$$CBD@Z
	??$_Lower_bound_duplicate@$$BY0BH@D@?$_Tree@V?$_Tmap_traits@V?$basic_string@DU?$char_traits@D@std@@V?$allocator@D@2@@std@@V?$basic_json@Vmap@std@@Vvector@2@V?$basic_string@DU?$char_traits@D@std@@V?$allocator@D@2@@2@_N_J_KNVallocator@2@Uadl_serializer@json_abi_v3_11_3@nlohmann@@V?$vector@EV?$allocator@E@std@@@2@X@json_abi_v3_11_3@nlohmann@@U?$less@X@2@V?$allocator@U?$pair@$$CBV?$basic_string@DU?$char_traits@D@std@@V?$allocator@D@2@@std@@V?$basic_json@Vmap@std@@Vvector@2@V?$basic_string@DU?$char_traits@D@std@@V?$allocator@D@2@@2@_N_J_KNVallocator@2@Uadl_serializer@json_abi_v3_11_3@nlohmann@@V?$vector@EV?$allocator@E@std@@@2@X@json_abi_v3_11_3@nlohmann@@@std@@@2@$0A@@std@@@std@@IEBA_NQEAU?$_Tree_node@U?$pair@$$CBV?$basic_string@DU?$char_traits@D@std@@V?$allocator@D@2@@std@@V?$basic_json@Vmap@std@@Vvector@2@V?$basic_string@DU?$char_traits@D@std@@V?$allocator@D@2@@2@_N_J_KNVallocator@2@Uadl_serializer@json_abi_v3_11_3@nlohmann@@V?$vector@EV?$allocator@E@std@@@2@X@json_abi_v3_11_3@nlohmann@@@std@@PEAX@1@AEAY0BH@$$CBD@Z
	??$_Lower_bound_duplicate@$$BY0M@D@?$_Tree@V?$_Tmap_traits@V?$basic_string@DU?$char_traits@D@std@@V?$allocator@D@2@@std@@V?$basic_json@Vmap@std@@Vvector@2@V?$basic_string@DU?$char_traits@D@std@@V?$allocator@D@2@@2@_N_J_KNVallocator@2@Uadl_serializer@json_abi_v3_11_3@nlohmann@@V?$vector@EV?$allocator@E@std@@@2@X@json_abi_v3_11_3@nlohmann@@U?$less@X@2@V?$allocator@U?$pair@$$CBV?$basic_string@DU?$char_traits@D@std@@V?$allocator@D@2@@std@@V?$basic_json@Vmap@std@@Vvector@2@V?$basic_string@DU?$char_traits@D@std@@V?$allocator@D@2@@2@_N_J_KNVallocator@2@Uadl_serializer@json_abi_v3_11_3@nlohmann@@V?$vector@EV?$allocator@E@std@@@2@X@json_abi_v3_11_3@nlohmann@@@std@@@2@$0A@@std@@@std@@IEBA_NQEAU?$_Tree_node@U?$pair@$$CBV?$basic_string@DU?$char_traits@D@std@@V?$allocator@D@2@@std@@V?$basic_json@Vmap@std@@Vvector@2@V?$basic_string@DU?$char_traits@D@std@@V?$allocator@D@2@@2@_N_J_KNVallocator@2@Uadl_serializer@json_abi_v3_11_3@nlohmann@@V?$vector@EV?$allocator@E@std@@@2@X@json_abi_v3_11_3@nlohmann@@@std@@PEAX@1@AEAY0M@$$CBD@Z
	??$_Lower_bound_duplicate@$$BY0N@D@?$_Tree@V?$_Tmap_traits@V?$basic_string@DU?$char_traits@D@std@@V?$allocator@D@2@@std@@V?$basic_json@Vmap@std@@Vvector@2@V?$basic_string@DU?$char_traits@D@std@@V?$allocator@D@2@@2@_N_J_KNVallocator@2@Uadl_serializer@json_abi_v3_11_3@nlohmann@@V?$vector@EV?$allocator@E@std@@@2@X@json_abi_v3_11_3@nlohmann@@U?$less@X@2@V?$allocator@U?$pair@$$CBV?$basic_string@DU?$char_traits@D@std@@V?$allocator@D@2@@std@@V?$basic_json@Vmap@std@@Vvector@2@V?$basic_string@DU?$char_traits@D@std@@V?$allocator@D@2@@2@_N_J_KNVallocator@2@Uadl_serializer@json_abi_v3_11_3@nlohmann@@V?$vector@EV?$allocator@E@std@@@2@X@json_abi_v3_11_3@nlohmann@@@std@@@2@$0A@@std@@@std@@IEBA_NQEAU?$_Tree_node@U?$pair@$$CBV?$basic_string@DU?$char_traits@D@std@@V?$allocator@D@2@@std@@V?$basic_json@Vmap@std@@Vvector@2@V?$basic_string@DU?$char_traits@D@std@@V?$allocator@D@2@@2@_N_J_KNVallocator@2@Uadl_serializer@json_abi_v3_11_3@nlohmann@@V?$vector@EV?$allocator@E@std@@@2@X@json_abi_v3_11_3@nlohmann@@@std@@PEAX@1@AEAY0N@$$CBD@Z
	??$_Lower_bound_duplicate@$$BY0O@D@?$_Tree@V?$_Tmap_traits@V?$basic_string@DU?$char_traits@D@std@@V?$allocator@D@2@@std@@V?$basic_json@Vmap@std@@Vvector@2@V?$basic_string@DU?$char_traits@D@std@@V?$allocator@D@2@@2@_N_J_KNVallocator@2@Uadl_serializer@json_abi_v3_11_3@nlohmann@@V?$vector@EV?$allocator@E@std@@@2@X@json_abi_v3_11_3@nlohmann@@U?$less@X@2@V?$allocator@U?$pair@$$CBV?$basic_string@DU?$char_traits@D@std@@V?$allocator@D@2@@std@@V?$basic_json@Vmap@std@@Vvector@2@V?$basic_string@DU?$char_traits@D@std@@V?$allocator@D@2@@2@_N_J_KNVallocator@2@Uadl_serializer@json_abi_v3_11_3@nlohmann@@V?$vector@EV?$allocator@E@std@@@2@X@json_abi_v3_11_3@nlohmann@@@std@@@2@$0A@@std@@@std@@IEBA_NQEAU?$_Tree_node@U?$pair@$$CBV?$basic_string@DU?$char_traits@D@std@@V?$allocator@D@2@@std@@V?$basic_json@Vmap@std@@Vvector@2@V?$basic_string@DU?$char_traits@D@std@@V?$allocator@D@2@@2@_N_J_KNVallocator@2@Uadl_serializer@json_abi_v3_11_3@nlohmann@@V?$vector@EV?$allocator@E@std@@@2@X@json_abi_v3_11_3@nlohmann@@@std@@PEAX@1@AEAY0O@$$CBD@Z
	??$_Lower_bound_duplicate@$$BY0P@D@?$_Tree@V?$_Tmap_traits@V?$basic_string@DU?$char_traits@D@std@@V?$allocator@D@2@@std@@V?$basic_json@Vmap@std@@Vvector@2@V?$basic_string@DU?$char_traits@D@std@@V?$allocator@D@2@@2@_N_J_KNVallocator@2@Uadl_serializer@json_abi_v3_11_3@nlohmann@@V?$vector@EV?$allocator@E@std@@@2@X@json_abi_v3_11_3@nlohmann@@U?$less@X@2@V?$allocator@U?$pair@$$CBV?$basic_string@DU?$char_traits@D@std@@V?$allocator@D@2@@std@@V?$basic_json@Vmap@std@@Vvector@2@V?$basic_string@DU?$char_traits@D@std@@V?$allocator@D@2@@2@_N_J_KNVallocator@2@Uadl_serializer@json_abi_v3_11_3@nlohmann@@V?$vector@EV?$allocator@E@std@@@2@X@json_abi_v3_11_3@nlohmann@@@std@@@2@$0A@@std@@@std@@IEBA_NQEAU?$_Tree_node@U?$pair@$$CBV?$basic_string@DU?$char_traits@D@std@@V?$allocator@D@2@@std@@V?$basic_json@Vmap@std@@Vvector@2@V?$basic_string@DU?$char_traits@D@std@@V?$allocator@D@2@@2@_N_J_KNVallocator@2@Uadl_serializer@json_abi_v3_11_3@nlohmann@@V?$vector@EV?$allocator@E@std@@@2@X@json_abi_v3_11_3@nlohmann@@@std@@PEAX@1@AEAY0P@$$CBD@Z
	??$_Lower_bound_duplicate@V?$basic_string@DU?$char_traits@D@std@@V?$allocator@D@2@@std@@@?$_Tree@V?$_Tmap_traits@V?$basic_string@DU?$char_traits@D@std@@V?$allocator@D@2@@std@@V?$basic_json@Vmap@std@@Vvector@2@V?$basic_string@DU?$char_traits@D@std@@V?$allocator@D@2@@2@_N_J_KNVallocator@2@Uadl_serializer@json_abi_v3_11_3@nlohmann@@V?$vector@EV?$allocator@E@std@@@2@X@json_abi_v3_11_3@nlohmann@@U?$less@X@2@V?$allocator@U?$pair@$$CBV?$basic_string@DU?$char_traits@D@std@@V?$allocator@D@2@@std@@V?$basic_json@Vmap@std@@Vvector@2@V?$basic_string@DU?$char_traits@D@std@@V?$allocator@D@2@@2@_N_J_KNVallocator@2@Uadl_serializer@json_abi_v3_11_3@nlohmann@@V?$vector@EV?$allocator@E@std@@@2@X@json_abi_v3_11_3@nlohmann@@@std@@@2@$0A@@std@@@std@@IEBA_NQEAU?$_Tree_node@U?$pair@$$CBV?$basic_string@DU?$char_traits@D@std@@V?$allocator@D@2@@std@@V?$basic_json@Vmap@std@@Vvector@2@V?$basic_string@DU?$char_traits@D@std@@V?$allocator@D@2@@2@_N_J_KNVallocator@2@Uadl_serializer@json_abi_v3_11_3@nlohmann@@V?$vector@EV?$allocator@E@std@@@2@X@json_abi_v3_11_3@nlohmann@@@std@@PEAX@1@AEBV?$basic_string@DU?$char_traits@D@std@@V?$allocator@D@2@@1@@Z
	??$_Make_heap_unchecked@PEANU?$less@X@std@@@std@@YAXPEAN0U?$less@X@0@@Z
	??$_Maklocchr@D@std@@YADDPEADAEBU_Cvtvec@@@Z
	??$_Maklocstr@D@std@@YAPEADPEBDPEADAEBU_Cvtvec@@@Z
	??$_Max_element_unchecked@PEANU?$less@X@std@@@std@@YAPEANPEAN0U?$less@X@0@@Z
	??$_Max_element_vectorized@N@std@@YAPEANQEAN0@Z
	??$_Max_limit@C@std@@YACXZ
	??$_Max_limit@_J@std@@YA_JXZ
	??$_Measure_string_prefix@D@std@@YAPEBDV?$basic_string_view@DU?$char_traits@D@std@@@0@AEAH@Z
	??$_Med3_unchecked@PEANU?$less@X@std@@@std@@YAXPEAN00U?$less@X@0@@Z
	??$_Min_element_unchecked@PEANU?$less@X@std@@@std@@YAPEANPEAN0U?$less@X@0@@Z
	??$_Min_element_vectorized@N@std@@YAPEANQEAN0@Z
	??$_Move_backward_unchecked@PEANPEAN@std@@YAPEANPEAN00@Z
	??$_Move_construct_from@U?$output_adapter_protocol@D@detail@json_abi_v3_11_3@nlohmann@@@?$_Ptr_base@U?$output_adapter_protocol@D@detail@json_abi_v3_11_3@nlohmann@@@std@@IEAAX$$QEAV01@@Z
	??$_Move_construct_from@V?$output_string_adapter@DV?$basic_string@DU?$char_traits@D@std@@V?$allocator@D@2@@std@@@detail@json_abi_v3_11_3@nlohmann@@@?$_Ptr_base@U?$output_adapter_protocol@D@detail@json_abi_v3_11_3@nlohmann@@@std@@IEAAX$$QEAV?$_Ptr_base@V?$output_string_adapter@DV?$basic_string@DU?$char_traits@D@std@@V?$allocator@D@2@@std@@@detail@json_abi_v3_11_3@nlohmann@@@1@@Z
	??$_Move_unchecked@PEAIPEAI@std@@YAPEAIPEAI00@Z
	??$_Move_unchecked@PEAV?$basic_json@Vmap@std@@Vvector@2@V?$basic_string@DU?$char_traits@D@std@@V?$allocator@D@2@@2@_N_J_KNVallocator@2@Uadl_serializer@json_abi_v3_11_3@nlohmann@@V?$vector@EV?$allocator@E@std@@@2@X@json_abi_v3_11_3@nlohmann@@PEAV123@@std@@YAPEAV?$basic_json@Vmap@std@@Vvector@2@V?$basic_string@DU?$char_traits@D@std@@V?$allocator@D@2@@2@_N_J_KNVallocator@2@Uadl_serializer@json_abi_v3_11_3@nlohmann@@V?$vector@EV?$allocator@E@std@@@2@X@json_abi_v3_11_3@nlohmann@@PEAV123@00@Z
	??$_Move_unchecked@PEAV?$basic_json@Vmap@std@@Vvector@2@V?$basic_string@DU?$char_traits@D@std@@V?$allocator@D@2@@2@_N_J_KNVallocator@2@Uadl_serializer@json_abi_v3_11_3@nlohmann@@V?$vector@EV?$allocator@E@std@@@2@X@json_abi_v3_11_3@nlohmann@@V?$back_insert_iterator@V?$vector@V?$basic_json@Vmap@std@@Vvector@2@V?$basic_string@DU?$char_traits@D@std@@V?$allocator@D@2@@2@_N_J_KNVallocator@2@Uadl_serializer@json_abi_v3_11_3@nlohmann@@V?$vector@EV?$allocator@E@std@@@2@X@json_abi_v3_11_3@nlohmann@@V?$allocator@V?$basic_json@Vmap@std@@Vvector@2@V?$basic_string@DU?$char_traits@D@std@@V?$allocator@D@2@@2@_N_J_KNVallocator@2@Uadl_serializer@json_abi_v3_11_3@nlohmann@@V?$vector@EV?$allocator@E@std@@@2@X@json_abi_v3_11_3@nlohmann@@@std@@@std@@@std@@@std@@YA?AV?$back_insert_iterator@V?$vector@V?$basic_json@Vmap@std@@Vvector@2@V?$basic_string@DU?$char_traits@D@std@@V?$allocator@D@2@@2@_N_J_KNVallocator@2@Uadl_serializer@json_abi_v3_11_3@nlohmann@@V?$vector@EV?$allocator@E@std@@@2@X@json_abi_v3_11_3@nlohmann@@V?$allocator@V?$basic_json@Vmap@std@@Vvector@2@V?$basic_string@DU?$char_traits@D@std@@V?$allocator@D@2@@2@_N_J_KNVallocator@2@Uadl_serializer@json_abi_v3_11_3@nlohmann@@V?$vector@EV?$allocator@E@std@@@2@X@json_abi_v3_11_3@nlohmann@@@std@@@std@@@0@PEAV?$basic_json@Vmap@std@@Vvector@2@V?$basic_string@DU?$char_traits@D@std@@V?$allocator@D@2@@2@_N_J_KNVallocator@2@Uadl_serializer@json_abi_v3_11_3@nlohmann@@V?$vector@EV?$allocator@E@std@@@2@X@json_abi_v3_11_3@nlohmann@@0V10@@Z
	??$_Next_iter@PEAN@std@@YAPEANPEAN@Z
	??$_Next_iter@PEBI@std@@YAPEBIPEBI@Z
	??$_Next_iter@PEB_K@std@@YAPEB_KPEB_K@Z
	??$_Next_iter@PEB_U@std@@YAPEB_UPEB_U@Z
	??$_Next_iter@V?$_Vb_iterator@U?$_Wrap_alloc@V?$allocator@I@std@@@std@@@std@@@std@@YA?AV?$_Vb_iterator@U?$_Wrap_alloc@V?$allocator@I@std@@@std@@@0@V10@@Z
	??$_On_dynamic_precision@U_Auto_id_tag@std@@@?$_Specs_checker@V?$_Specs_handler@V?$basic_format_parse_context@D@std@@V?$basic_format_context@V?$back_insert_iterator@V?$_Fmt_buffer@D@std@@@std@@D@2@@std@@@std@@QEAAXU_Auto_id_tag@1@@Z
	??$_On_dynamic_precision@U_Auto_id_tag@std@@@?$_Specs_handler@V?$basic_format_parse_context@D@std@@V?$basic_format_context@V?$back_insert_iterator@V?$_Fmt_buffer@D@std@@@std@@D@2@@std@@QEAAXU_Auto_id_tag@1@@Z
	??$_On_dynamic_precision@_K@?$_Specs_checker@V?$_Specs_handler@V?$basic_format_parse_context@D@std@@V?$basic_format_context@V?$back_insert_iterator@V?$_Fmt_buffer@D@std@@@std@@D@2@@std@@@std@@QEAAX_K@Z
	??$_On_dynamic_precision@_K@?$_Specs_handler@V?$basic_format_parse_context@D@std@@V?$basic_format_context@V?$back_insert_iterator@V?$_Fmt_buffer@D@std@@@std@@D@2@@std@@QEAAX_K@Z
	??$_On_dynamic_width@U_Auto_id_tag@std@@@?$_Specs_handler@V?$basic_format_parse_context@D@std@@V?$basic_format_context@V?$back_insert_iterator@V?$_Fmt_buffer@D@std@@@std@@D@2@@std@@QEAAXU_Auto_id_tag@1@@Z
	??$_On_dynamic_width@_K@?$_Specs_handler@V?$basic_format_parse_context@D@std@@V?$basic_format_context@V?$back_insert_iterator@V?$_Fmt_buffer@D@std@@@std@@D@2@@std@@QEAAX_K@Z
	??$_On_type@D@?$_Specs_checker@V?$_Specs_handler@V?$basic_format_parse_context@D@std@@V?$basic_format_context@V?$back_insert_iterator@V?$_Fmt_buffer@D@std@@@std@@D@2@@std@@@std@@QEAAXD@Z
	??$_Parse_align@DAEAV?$_Specs_checker@V?$_Specs_handler@V?$basic_format_parse_context@D@std@@V?$basic_format_context@V?$back_insert_iterator@V?$_Fmt_buffer@D@std@@@std@@D@2@@std@@@std@@@std@@YAPEBDPEBD0AEAV?$_Specs_checker@V?$_Specs_handler@V?$basic_format_parse_context@D@std@@V?$basic_format_context@V?$back_insert_iterator@V?$_Fmt_buffer@D@std@@@std@@D@2@@std@@@0@@Z
	??$_Parse_arg_id@DAEAU?$_Id_adapter@D@std@@@std@@YAPEBDPEBD0AEAU?$_Id_adapter@D@0@@Z
	??$_Parse_arg_id@DU?$_Precision_adapter@DAEAV?$_Specs_checker@V?$_Specs_handler@V?$basic_format_parse_context@D@std@@V?$basic_format_context@V?$back_insert_iterator@V?$_Fmt_buffer@D@std@@@std@@D@2@@std@@@std@@@std@@@std@@YAPEBDPEBD0$$QEAU?$_Precision_adapter@DAEAV?$_Specs_checker@V?$_Specs_handler@V?$basic_format_parse_context@D@std@@V?$basic_format_context@V?$back_insert_iterator@V?$_Fmt_buffer@D@std@@@std@@D@2@@std@@@std@@@0@@Z
	??$_Parse_arg_id@DU?$_Width_adapter@DAEAV?$_Specs_checker@V?$_Specs_handler@V?$basic_format_parse_context@D@std@@V?$basic_format_context@V?$back_insert_iterator@V?$_Fmt_buffer@D@std@@@std@@D@2@@std@@@std@@@std@@@std@@YAPEBDPEBD0$$QEAU?$_Width_adapter@DAEAV?$_Specs_checker@V?$_Specs_handler@V?$basic_format_parse_context@D@std@@V?$basic_format_context@V?$back_insert_iterator@V?$_Fmt_buffer@D@std@@@std@@D@2@@std@@@std@@@0@@Z
	??$_Parse_format_specs@DAEAV?$_Specs_checker@V?$_Specs_handler@V?$basic_format_parse_context@D@std@@V?$basic_format_context@V?$back_insert_iterator@V?$_Fmt_buffer@D@std@@@std@@D@2@@std@@@std@@@std@@YAPEBDPEBD0AEAV?$_Specs_checker@V?$_Specs_handler@V?$basic_format_parse_context@D@std@@V?$basic_format_context@V?$back_insert_iterator@V?$_Fmt_buffer@D@std@@@std@@D@2@@std@@@0@@Z
	??$_Parse_format_string@DAEAU?$_Format_handler@D@std@@@std@@YAXV?$basic_string_view@DU?$char_traits@D@std@@@0@AEAU?$_Format_handler@D@0@@Z
	??$_Parse_nonnegative_integer@D@std@@YAPEBDPEBD0AEAH@Z
	??$_Parse_nonnegative_integer@D@std@@YAPEBDPEBD0AEAI@Z
	??$_Parse_precision@DAEAV?$_Specs_checker@V?$_Specs_handler@V?$basic_format_parse_context@D@std@@V?$basic_format_context@V?$back_insert_iterator@V?$_Fmt_buffer@D@std@@@std@@D@2@@std@@@std@@@std@@YAPEBDPEBD0AEAV?$_Specs_checker@V?$_Specs_handler@V?$basic_format_parse_context@D@std@@V?$basic_format_context@V?$back_insert_iterator@V?$_Fmt_buffer@D@std@@@std@@D@2@@std@@@0@@Z
	??$_Parse_replacement_field@DAEAU?$_Format_handler@D@std@@@std@@YAPEBDPEBD0AEAU?$_Format_handler@D@0@@Z
	??$_Parse_width@DAEAV?$_Specs_checker@V?$_Specs_handler@V?$basic_format_parse_context@D@std@@V?$basic_format_context@V?$back_insert_iterator@V?$_Fmt_buffer@D@std@@@std@@D@2@@std@@@std@@@std@@YAPEBDPEBD0AEAV?$_Specs_checker@V?$_Specs_handler@V?$basic_format_parse_context@D@std@@V?$basic_format_context@V?$back_insert_iterator@V?$_Fmt_buffer@D@std@@@std@@D@2@@std@@@0@@Z
	??$_Partition_by_median_guess_unchecked@PEANU?$less@X@std@@@std@@YA?AU?$pair@PEANPEAN@0@PEAN0U?$less@X@0@@Z
	??$_Partition_by_pivot_unchecked@PEANU?$less@X@std@@@std@@YA?AU?$pair@PEANPEAN@0@PEAN00U?$less@X@0@@Z
	??$_Pass_fn@U?$less@X@std@@@std@@YA?A_PAEAU?$less@X@0@@Z
	??$_Pocca@V?$allocator@D@std@@@std@@YAXAEAV?$allocator@D@0@AEBV10@@Z
	??$_Pocca@V?$allocator@UBinding@vrc@@@std@@@std@@YAXAEAV?$allocator@UBinding@vrc@@@0@AEBV10@@Z
	??$_Pocca@V?$allocator@_W@std@@@std@@YAXAEAV?$allocator@_W@0@AEBV10@@Z
	??$_Pocma@V?$allocator@D@std@@@std@@YAXAEAV?$allocator@D@0@0@Z
	??$_Pop_heap_hole_by_index@PEANNU?$less@X@std@@@std@@YAXPEAN_J1$$QEANU?$less@X@0@@Z
	??$_Pop_heap_hole_unchecked@PEANNU?$less@X@std@@@std@@YAXPEAN00$$QEANU?$less@X@0@@Z
	??$_Pop_heap_unchecked@PEANU?$less@X@std@@@std@@YAXPEAN0U?$less@X@0@@Z
	??$_Prev_iter@PEAN@std@@YAPEANPEAN@Z
	??$_Push_heap_by_index@PEANNU?$less@X@std@@@std@@YAXPEAN_J1$$QEANU?$less@X@0@@Z
	??$_Reallocate@$0A@@?$vector@NV?$allocator@N@std@@@std@@AEAAXAEA_K@Z
	??$_Reallocate@$0A@@?$vector@UXrActionSuggestedBinding@@V?$allocator@UXrActionSuggestedBinding@@@std@@@std@@AEAAXAEA_K@Z
	??$_Reallocate@$0A@@?$vector@V?$basic_json@Vmap@std@@Vvector@2@V?$basic_string@DU?$char_traits@D@std@@V?$allocator@D@2@@2@_N_J_KNVallocator@2@Uadl_serializer@json_abi_v3_11_3@nlohmann@@V?$vector@EV?$allocator@E@std@@@2@X@json_abi_v3_11_3@nlohmann@@V?$allocator@V?$basic_json@Vmap@std@@Vvector@2@V?$basic_string@DU?$char_traits@D@std@@V?$allocator@D@2@@2@_N_J_KNVallocator@2@Uadl_serializer@json_abi_v3_11_3@nlohmann@@V?$vector@EV?$allocator@E@std@@@2@X@json_abi_v3_11_3@nlohmann@@@std@@@std@@AEAAXAEA_K@Z
	??$_Reallocate_for@V<lambda_1>@?1???$_Assign@D@?$basic_string@DU?$char_traits@D@std@@V?$allocator@D@2@@std@@AEAAAEAV23@QEBD_K@Z@PEBD@?$basic_string@DU?$char_traits@D@std@@V?$allocator@D@2@@std@@AEAAAEAV01@_KV<lambda_1>@?1???$_Assign@D@01@AEAAAEAV01@QEBD0@Z@PEBD@Z
	??$_Reallocate_for@V<lambda_1>@?1???$_Assign@_W@?$basic_string@_WU?$char_traits@_W@std@@V?$allocator@_W@2@@std@@AEAAAEAV23@QEB_W_K@Z@PEB_W@?$basic_string@_WU?$char_traits@_W@std@@V?$allocator@_W@2@@std@@AEAAAEAV01@_KV<lambda_1>@?1???$_Assign@_W@01@AEAAAEAV01@QEB_W0@Z@PEB_W@Z
	??$_Reallocate_grow_by@V<lambda_1>@?1???$_Append@D@?$basic_string@DU?$char_traits@D@std@@V?$allocator@D@2@@std@@AEAAAEAV23@QEBD_K@Z@PEBD_K@?$basic_string@DU?$char_traits@D@std@@V?$allocator@D@2@@std@@AEAAAEAV01@_KV<lambda_1>@?1???$_Append@D@01@AEAAAEAV01@QEBD0@Z@PEBD_K@Z
	??$_Reallocate_grow_by@V<lambda_1>@?1???$_Append@_W@?$basic_string@_WU?$char_traits@_W@std@@V?$allocator@_W@2@@std@@AEAAAEAV23@QEB_W_K@Z@PEB_W_K@?$basic_string@_WU?$char_traits@_W@std@@V?$allocator@_W@2@@std@@AEAAAEAV01@_KV<lambda_1>@?1???$_Append@_W@01@AEAAAEAV01@QEB_W0@Z@PEB_W_K@Z
	??$_Reallocate_grow_by@V<lambda_1>@?1???$_Insert@D@?$basic_string@DU?$char_traits@D@std@@V?$allocator@D@2@@std@@AEAAAEAV23@_KQEBD0@Z@_KPEBD_K@?$basic_string@DU?$char_traits@D@std@@V?$allocator@D@2@@std@@AEAAAEAV01@_KV<lambda_1>@?1???$_Insert@D@01@AEAAAEAV01@0QEBD0@Z@_KPEBD3@Z
	??$_Reallocate_grow_by@V<lambda_1>@?1??append@?$basic_string@DU?$char_traits@D@std@@V?$allocator@D@2@@std@@QEAAAEAV34@_KD@Z@_KD@?$basic_string@DU?$char_traits@D@std@@V?$allocator@D@2@@std@@AEAAAEAV01@_KV<lambda_1>@?1??append@01@QEAAAEAV01@0D@Z@_KD@Z
	??$_Reallocate_grow_by@V<lambda_1>@?1??append@?$basic_string@_WU?$char_traits@_W@std@@V?$allocator@_W@2@@std@@QEAAAEAV34@_K_W@Z@_K_W@?$basic_string@_WU?$char_traits@_W@std@@V?$allocator@_W@2@@std@@AEAAAEAV01@_KV<lambda_1>@?1??append@01@QEAAAEAV01@0_W@Z@_K_W@Z
	??$_Reallocate_grow_by@V<lambda_1>@?1??push_back@?$basic_string@DU?$char_traits@D@std@@V?$allocator@D@2@@std@@QEAAXD@Z@D@?$basic_string@DU?$char_traits@D@std@@V?$allocator@D@2@@std@@AEAAAEAV01@_KV<lambda_1>@?1??push_back@01@QEAAXD@Z@D@Z
	??$_Reallocate_grow_by@V<lambda_1>@?1??push_back@?$basic_string@_WU?$char_traits@_W@std@@V?$allocator@_W@2@@std@@QEAAX_W@Z@_W@?$basic_string@_WU?$char_traits@_W@std@@V?$allocator@_W@2@@std@@AEAAAEAV01@_KV<lambda_1>@?1??push_back@01@QEAAX_W@Z@_W@Z
	??$_Reallocate_grow_by@V<lambda_1>@?1??reserve@?$basic_string@DU?$char_traits@D@std@@V?$allocator@D@2@@std@@QEAAX_K@Z@$$V@?$basic_string@DU?$char_traits@D@std@@V?$allocator@D@2@@std@@AEAAAEAV01@_KV<lambda_1>@?1??reserve@01@QEAAX0@Z@@Z
	??$_Reallocate_grow_by@V<lambda_1>@?1??reserve@?$basic_string@_WU?$char_traits@_W@std@@V?$allocator@_W@2@@std@@QEAAX_K@Z@$$V@?$basic_string@_WU?$char_traits@_W@std@@V?$allocator@_W@2@@std@@AEAAAEAV01@_KV<lambda_1>@?1??reserve@01@QEAAX0@Z@@Z
	??$_Reallocate_grow_by@V<lambda_1>@?4???$_Resize_and_overwrite@V<lambda_1>@?4???Kfilesystem@std@@YA?AVpath@23@AEBV423@0@Z@@?$basic_string@_WU?$char_traits@_W@std@@V?$allocator@_W@2@@std@@QEAAX_KV1?4???Kfilesystem@3@YA?AVpath@43@AEBV543@1@Z@@Z@$$V@?$basic_string@_WU?$char_traits@_W@std@@V?$allocator@_W@2@@std@@AEAAAEAV01@_KV<lambda_1>@?4???$_Resize_and_overwrite@V<lambda_1>@?4???Kfilesystem@std@@YA?AVpath@23@AEBV423@0@Z@@01@QEAAX0V2?4???Kfilesystem@1@YA?AVpath@31@AEBV431@1@Z@@Z@@Z
	??$_Refancy@PEAD$0A@@std@@YAPEADPEAD@Z
	??$_Refancy_maybe_null@PEAN$0A@@std@@YAPEANPEAN@Z
	??$_Reset@V<lambda_1>@?1??initialize@VRConverter@vrc@@QEAA_NXZ@@?$_Func_class@_NAEAUHookContext@vrc@@@std@@IEAAX$$QEAV<lambda_1>@?1??initialize@VRConverter@vrc@@QEAA_NXZ@@Z
	??$_Reset@V<lambda_2>@?1??initialize@VRConverter@vrc@@QEAA_NXZ@@?$_Func_class@XAEBUFrameCapture@vrc@@@std@@IEAAX$$QEAV<lambda_2>@?1??initialize@VRConverter@vrc@@QEAA_NXZ@@Z
	??$_Resize@I@?$vector@IV?$allocator@I@std@@@std@@AEAAX_KAEBI@Z
	??$_Resize@UXrSwapchainImageD3D11KHR@@@?$vector@UXrSwapchainImageD3D11KHR@@V?$allocator@UXrSwapchainImageD3D11KHR@@@std@@@std@@AEAAX_KAEBUXrSwapchainImageD3D11KHR@@@Z
	??$_Resize@UXrSwapchainImageD3D12KHR@@@?$vector@UXrSwapchainImageD3D12KHR@@V?$allocator@UXrSwapchainImageD3D12KHR@@@std@@@std@@AEAAX_KAEBUXrSwapchainImageD3D12KHR@@@Z
	??$_Resize_and_overwrite@V<lambda_1>@?4???Kfilesystem@std@@YA?AVpath@23@AEBV423@0@Z@@?$basic_string@_WU?$char_traits@_W@std@@V?$allocator@_W@2@@std@@QEAAX_KV<lambda_1>@?4???Kfilesystem@1@YA?AVpath@31@AEBV431@1@Z@@Z
	??$_Resize_reallocate@I@?$vector@IV?$allocator@I@std@@@std@@AEAAX_KAEBI@Z
	??$_Resize_reallocate@UXrSwapchainImageD3D11KHR@@@?$vector@UXrSwapchainImageD3D11KHR@@V?$allocator@UXrSwapchainImageD3D11KHR@@@std@@@std@@AEAAX_KAEBUXrSwapchainImageD3D11KHR@@@Z
	??$_Resize_reallocate@UXrSwapchainImageD3D12KHR@@@?$vector@UXrSwapchainImageD3D12KHR@@V?$allocator@UXrSwapchainImageD3D12KHR@@@std@@@std@@AEAAX_KAEBUXrSwapchainImageD3D12KHR@@@Z
	??$_Seek_wrapped@PEADAEAPEAD@std@@YAXAEAPEAD0@Z
	??$_Seek_wrapped@PEADPEAD@std@@YAXAEAPEAD$$QEAPEAD@Z
	??$_Seek_wrapped@PEAPEAULatencySnapshot@vrc@@PEAPEAU12@@std@@YAXAEAPEAPEAULatencySnapshot@vrc@@$$QEAPEAPEAU12@@Z
	??$_Seek_wrapped@PEAPEAUPerfSample@vrc@@PEAPEAU12@@std@@YAXAEAPEAPEAUPerfSample@vrc@@$$QEAPEAPEAU12@@Z
	??$_Seek_wrapped@PEAPEAURotationSample@LatencyCompensator@vrc@@PEAPEAU123@@std@@YAXAEAPEAPEAURotationSample@LatencyCompensator@vrc@@$$QEAPEAPEAU123@@Z
	??$_Seek_wrapped@PEAPEAUTrackingSample@vrc@@PEAPEAU12@@std@@YAXAEAPEAPEAUTrackingSample@vrc@@$$QEAPEAPEAU12@@Z
	??$_Seek_wrapped@PEBIAEAPEBI@std@@YAXAEAPEBI0@Z
	??$_Seek_wrapped@PEB_KAEAPEB_K@std@@YAXAEAPEB_K0@Z
	??$_Seek_wrapped@PEB_UAEAPEB_U@std@@YAXAEAPEB_U0@Z
	??$_Seek_wrapped@PEB_WAEAPEB_W@std@@YAXAEAPEB_W0@Z
	??$_Seek_wrapped@V?$_String_view_iterator@U?$char_traits@D@std@@@std@@PEBD@std@@YAXAEAV?$_String_view_iterator@U?$char_traits@D@std@@@0@$$QEAPEBD@Z
	??$_Seek_wrapped@V?$_Tree_const_iterator@V?$_Tree_val@U?$_Tree_simple_types@U?$pair@$$CBV?$basic_string@DU?$char_traits@D@std@@V?$allocator@D@2@@std@@V?$basic_json@Vmap@std@@Vvector@2@V?$basic_string@DU?$char_traits@D@std@@V?$allocator@D@2@@2@_N_J_KNVallocator@2@Uadl_serializer@json_abi_v3_11_3@nlohmann@@V?$vector@EV?$allocator@E@std@@@2@X@json_abi_v3_11_3@nlohmann@@@std@@@std@@@std@@@std@@V?$_Tree_unchecked_const_iterator@V?$_Tree_val@U?$_Tree_simple_types@U?$pair@$$CBV?$basic_string@DU?$char_traits@D@std@@V?$allocator@D@2@@std@@V?$basic_json@Vmap@std@@Vvector@2@V?$basic_string@DU?$char_traits@D@std@@V?$allocator@D@2@@2@_N_J_KNVallocator@2@Uadl_serializer@json_abi_v3_11_3@nlohmann@@V?$vector@EV?$allocator@E@std@@@2@X@json_abi_v3_11_3@nlohmann@@@std@@@std@@@std@@U_Iterator_base0@2@@2@@std@@YAXAEAV?$_Tree_const_iterator@V?$_Tree_val@U?$_Tree_simple_types@U?$pair@$$CBV?$basic_string@DU?$char_traits@D@std@@V?$allocator@D@2@@std@@V?$basic_json@Vmap@std@@Vvector@2@V?$basic_string@DU?$char_traits@D@std@@V?$allocator@D@2@@2@_N_J_KNVallocator@2@Uadl_serializer@json_abi_v3_11_3@nlohmann@@V?$vector@EV?$allocator@E@std@@@2@X@json_abi_v3_11_3@nlohmann@@@std@@@std@@@std@@@0@$$QEAV?$_Tree_unchecked_const_iterator@V?$_Tree_val@U?$_Tree_simple_types@U?$pair@$$CBV?$basic_string@DU?$char_traits@D@std@@V?$allocator@D@2@@std@@V?$basic_json@Vmap@std@@Vvector@2@V?$basic_string@DU?$char_traits@D@std@@V?$allocator@D@2@@2@_N_J_KNVallocator@2@Uadl_serializer@json_abi_v3_11_3@nlohmann@@V?$vector@EV?$allocator@E@std@@@2@X@json_abi_v3_11_3@nlohmann@@@std@@@std@@@std@@U_Iterator_base0@2@@0@@Z
	??$_Seek_wrapped@V?$_Tree_iterator@V?$_Tree_val@U?$_Tree_simple_types@U?$pair@$$CBV?$basic_string@DU?$char_traits@D@std@@V?$allocator@D@2@@std@@V?$basic_json@Vmap@std@@Vvector@2@V?$basic_string@DU?$char_traits@D@std@@V?$allocator@D@2@@2@_N_J_KNVallocator@2@Uadl_serializer@json_abi_v3_11_3@nlohmann@@V?$vector@EV?$allocator@E@std@@@2@X@json_abi_v3_11_3@nlohmann@@@std@@@std@@@std@@@std@@V?$_Tree_unchecked_iterator@V?$_Tree_val@U?$_Tree_simple_types@U?$pair@$$CBV?$basic_string@DU?$char_traits@D@std@@V?$allocator@D@2@@std@@V?$basic_json@Vmap@std@@Vvector@2@V?$basic_string@DU?$char_traits@D@std@@V?$allocator@D@2@@2@_N_J_KNVallocator@2@Uadl_serializer@json_abi_v3_11_3@nlohmann@@V?$vector@EV?$allocator@E@std@@@2@X@json_abi_v3_11_3@nlohmann@@@std@@@std@@@std@@@2@@std@@YAXAEAV?$_Tree_iterator@V?$_Tree_val@U?$_Tree_simple_types@U?$pair@$$CBV?$basic_string@DU?$char_traits@D@std@@V?$allocator@D@2@@std@@V?$basic_json@Vmap@std@@Vvector@2@V?$basic_string@DU?$char_traits@D@std@@V?$allocator@D@2@@2@_N_J_KNVallocator@2@Uadl_serializer@json_abi_v3_11_3@nlohmann@@V?$vector@EV?$allocator@E@std@@@2@X@json_abi_v3_11_3@nlohmann@@@std@@@std@@@std@@@0@$$QEAV?$_Tree_unchecked_iterator@V?$_Tree_val@U?$_Tree_simple_types@U?$pair@$$CBV?$basic_string@DU?$char_traits@D@std@@V?$allocator@D@2@@std@@V?$basic_json@Vmap@std@@Vvector@2@V?$basic_string@DU?$char_traits@D@std@@V?$allocator@D@2@@2@_N_J_KNVallocator@2@Uadl_serializer@json_abi_v3_11_3@nlohmann@@V?$vector@EV?$allocator@E@std@@@2@X@json_abi_v3_11_3@nlohmann@@@std@@@std@@@std@@@0@@Z
	??$_Seek_wrapped@V?$_Vb_iterator@U?$_Wrap_alloc@V?$allocator@I@std@@@std@@@std@@V12@@std@@YAXAEAV?$_Vb_iterator@U?$_Wrap_alloc@V?$allocator@I@std@@@std@@@0@$$QEAV10@@Z
	??$_Seek_wrapped@V?$_Vector_iterator@V?$_Vector_val@U?$_Simple_types@N@std@@@std@@@std@@PEAN@std@@YAXAEAV?$_Vector_iterator@V?$_Vector_val@U?$_Simple_types@N@std@@@std@@@0@$$QEAPEAN@Z
	??$_Seek_wrapped@V?$back_insert_iterator@V?$_Fmt_buffer@D@std@@@std@@V12@@std@@YAXAEAV?$back_insert_iterator@V?$_Fmt_buffer@D@std@@@0@$$QEAV10@@Z
	??$_Seek_wrapped@V?$back_insert_iterator@V?$vector@V?$basic_json@Vmap@std@@Vvector@2@V?$basic_string@DU?$char_traits@D@std@@V?$allocator@D@2@@2@_N_J_KNVallocator@2@Uadl_serializer@json_abi_v3_11_3@nlohmann@@V?$vector@EV?$allocator@E@std@@@2@X@json_abi_v3_11_3@nlohmann@@V?$allocator@V?$basic_json@Vmap@std@@Vvector@2@V?$basic_string@DU?$char_traits@D@std@@V?$allocator@D@2@@2@_N_J_KNVallocator@2@Uadl_serializer@json_abi_v3_11_3@nlohmann@@V?$vector@EV?$allocator@E@std@@@2@X@json_abi_v3_11_3@nlohmann@@@std@@@std@@@std@@V12@@std@@YAXAEAV?$back_insert_iterator@V?$vector@V?$basic_json@Vmap@std@@Vvector@2@V?$basic_string@DU?$char_traits@D@std@@V?$allocator@D@2@@2@_N_J_KNVallocator@2@Uadl_serializer@json_abi_v3_11_3@nlohmann@@V?$vector@EV?$allocator@E@std@@@2@X@json_abi_v3_11_3@nlohmann@@V?$allocator@V?$basic_json@Vmap@std@@Vvector@2@V?$basic_string@DU?$char_traits@D@std@@V?$allocator@D@2@@2@_N_J_KNVallocator@2@Uadl_serializer@json_abi_v3_11_3@nlohmann@@V?$vector@EV?$allocator@E@std@@@2@X@json_abi_v3_11_3@nlohmann@@@std@@@std@@@0@$$QEAV10@@Z
	??$_Set_ptr_rep_and_enable_shared@V?$output_string_adapter@DV?$basic_string@DU?$char_traits@D@std@@V?$allocator@D@2@@std@@@detail@json_abi_v3_11_3@nlohmann@@@?$shared_ptr@V?$output_string_adapter@DV?$basic_string@DU?$char_traits@D@std@@V?$allocator@D@2@@std@@@detail@json_abi_v3_11_3@nlohmann@@@std@@AEAAXQEAV?$output_string_adapter@DV?$basic_string@DU?$char_traits@D@std@@V?$allocator@D@2@@std@@@detail@json_abi_v3_11_3@nlohmann@@QEAV_Ref_count_base@1@@Z
	??$_Sort_heap_unchecked@PEANU?$less@X@std@@@std@@YAXPEAN0U?$less@X@0@@Z
	??$_Sort_unchecked@PEANU?$less@X@std@@@std@@YAXPEAN0_JU?$less@X@0@@Z
	??$_Start@P8OpenXRContext@vrc@@EAAXXZPEAV12@@thread@std@@AEAAX$$QEAP8OpenXRContext@vrc@@EAAXXZ$$QEAPEAV23@@Z
	??$_Store@AEAE@?$_Format_arg_store@V?$basic_format_context@V?$back_insert_iterator@V?$_Fmt_buffer@D@std@@@std@@D@std@@EE@std@@AEAAX_KAEAE@Z
	??$_Store@AEAE@?$_Format_arg_store@V?$basic_format_context@V?$back_insert_iterator@V?$_Fmt_buffer@D@std@@@std@@D@std@@EEEEEEEEEEEE@std@@AEAAX_KAEAE@Z
	??$_Store@AEAE@?$_Format_arg_store@V?$basic_format_context@V?$back_insert_iterator@V?$_Fmt_buffer@D@std@@@std@@D@std@@EEEEEEEEEEEEEEEEEEEE@std@@AEAAX_KAEAE@Z
	??$_Store@AEAG@?$_Format_arg_store@V?$basic_format_context@V?$back_insert_iterator@V?$_Fmt_buffer@D@std@@@std@@D@std@@$$BY0IA@DGGI@std@@AEAAX_KAEAG@Z
	??$_Store@AEAH@?$_Format_arg_store@V?$basic_format_context@V?$back_insert_iterator@V?$_Fmt_buffer@D@std@@@std@@D@std@@H@std@@AEAAX_KAEAH@Z
	??$_Store@AEAH@?$_Format_arg_store@V?$basic_format_context@V?$back_insert_iterator@V?$_Fmt_buffer@D@std@@@std@@D@std@@HH@std@@AEAAX_KAEAH@Z
	??$_Store@AEAH@?$_Format_arg_store@V?$basic_format_context@V?$back_insert_iterator@V?$_Fmt_buffer@D@std@@@std@@D@std@@HPEAX@std@@AEAAX_KAEAH@Z
	??$_Store@AEAH@?$_Format_arg_store@V?$basic_format_context@V?$back_insert_iterator@V?$_Fmt_buffer@D@std@@@std@@D@std@@IH@std@@AEAAX_KAEAH@Z
	??$_Store@AEAH@?$_Format_arg_store@V?$basic_format_context@V?$back_insert_iterator@V?$_Fmt_buffer@D@std@@@std@@D@std@@IHHI@std@@AEAAX_KAEAH@Z
	??$_Store@AEAH@?$_Format_arg_store@V?$basic_format_context@V?$back_insert_iterator@V?$_Fmt_buffer@D@std@@@std@@D@std@@IH_K@std@@AEAAX_KAEAH@Z
	??$_Store@AEAH@?$_Format_arg_store@V?$basic_format_context@V?$back_insert_iterator@V?$_Fmt_buffer@D@std@@@std@@D@std@@PEBDH@std@@AEAAX_KAEAH@Z
	??$_Store@AEAI@?$_Format_arg_store@V?$basic_format_context@V?$back_insert_iterator@V?$_Fmt_buffer@D@std@@@std@@D@std@@$$BY0IA@DGGI@std@@AEAAX_KAEAI@Z
	??$_Store@AEAI@?$_Format_arg_store@V?$basic_format_context@V?$back_insert_iterator@V?$_Fmt_buffer@D@std@@@std@@D@std@@I$$CBV?$basic_string@DU?$char_traits@D@std@@V?$allocator@D@2@@2@@std@@AEAAX_KAEAI@Z
	??$_Store@AEAI@?$_Format_arg_store@V?$basic_format_context@V?$back_insert_iterator@V?$_Fmt_buffer@D@std@@@std@@D@std@@I@std@@AEAAX_KAEAI@Z
	??$_Store@AEAI@?$_Format_arg_store@V?$basic_format_context@V?$back_insert_iterator@V?$_Fmt_buffer@D@std@@@std@@D@std@@IH@std@@AEAAX_KAEAI@Z
	??$_Store@AEAI@?$_Format_arg_store@V?$basic_format_context@V?$back_insert_iterator@V?$_Fmt_buffer@D@std@@@std@@D@std@@IHHI@std@@AEAAX_KAEAI@Z
	??$_Store@AEAI@?$_Format_arg_store@V?$basic_format_context@V?$back_insert_iterator@V?$_Fmt_buffer@D@std@@@std@@D@std@@IH_K@std@@AEAAX_KAEAI@Z
	??$_Store@AEAI@?$_Format_arg_store@V?$basic_format_context@V?$back_insert_iterator@V?$_Fmt_buffer@D@std@@@std@@D@std@@II@std@@AEAAX_KAEAI@Z
	??$_Store@AEAI@?$_Format_arg_store@V?$basic_format_context@V?$back_insert_iterator@V?$_Fmt_buffer@D@std@@@std@@D@std@@III@std@@AEAAX_KAEAI@Z
	??$_Store@AEAI@?$_Format_arg_store@V?$basic_format_context@V?$back_insert_iterator@V?$_Fmt_buffer@D@std@@@std@@D@std@@I_K@std@@AEAAX_KAEAI@Z
	??$_Store@AEAI@?$_Format_arg_store@V?$basic_format_context@V?$back_insert_iterator@V?$_Fmt_buffer@D@std@@@std@@D@std@@PEBDI@std@@AEAAX_KAEAI@Z
	??$_Store@AEAJ@?$_Format_arg_store@V?$basic_format_context@V?$back_insert_iterator@V?$_Fmt_buffer@D@std@@@std@@D@std@@J@std@@AEAAX_KAEAJ@Z
	??$_Store@AEAK@?$_Format_arg_store@V?$basic_format_context@V?$back_insert_iterator@V?$_Fmt_buffer@D@std@@@std@@D@std@@K@std@@AEAAX_KAEAK@Z
	??$_Store@AEAK@?$_Format_arg_store@V?$basic_format_context@V?$back_insert_iterator@V?$_Fmt_buffer@D@std@@@std@@D@std@@KPEAXK@std@@AEAAX_KAEAK@Z
	??$_Store@AEAM@?$_Format_arg_store@V?$basic_format_context@V?$back_insert_iterator@V?$_Fmt_buffer@D@std@@@std@@D@std@@M@std@@AEAAX_KAEAM@Z
	??$_Store@AEAM@?$_Format_arg_store@V?$basic_format_context@V?$back_insert_iterator@V?$_Fmt_buffer@D@std@@@std@@D@std@@MM@std@@AEAAX_KAEAM@Z
	??$_Store@AEAPEAD@?$_Format_arg_store@V?$basic_format_context@V?$back_insert_iterator@V?$_Fmt_buffer@D@std@@@std@@D@std@@PEADPEAX@std@@AEAAX_KAEAPEAD@Z
	??$_Store@AEAPEAX@?$_Format_arg_store@V?$basic_format_context@V?$back_insert_iterator@V?$_Fmt_buffer@D@std@@@std@@D@std@@HPEAX@std@@AEAAX_KAEAPEAX@Z
	??$_Store@AEAPEAX@?$_Format_arg_store@V?$basic_format_context@V?$back_insert_iterator@V?$_Fmt_buffer@D@std@@@std@@D@std@@KPEAXK@std@@AEAAX_KAEAPEAX@Z
	??$_Store@AEAPEAX@?$_Format_arg_store@V?$basic_format_context@V?$back_insert_iterator@V?$_Fmt_buffer@D@std@@@std@@D@std@@PEADPEAX@std@@AEAAX_KAEAPEAX@Z
	??$_Store@AEAPEAX@?$_Format_arg_store@V?$basic_format_context@V?$back_insert_iterator@V?$_Fmt_buffer@D@std@@@std@@D@std@@PEAX@std@@AEAAX_KAEAPEAX@Z
	??$_Store@AEAPEAX@?$_Format_arg_store@V?$basic_format_context@V?$back_insert_iterator@V?$_Fmt_buffer@D@std@@@std@@D@std@@PEAXPEAX@std@@AEAAX_KAEAPEAX@Z
	??$_Store@AEAPEAX@?$_Format_arg_store@V?$basic_format_context@V?$back_insert_iterator@V?$_Fmt_buffer@D@std@@@std@@D@std@@PEBDPEAX@std@@AEAAX_KAEAPEAX@Z
	??$_Store@AEAPEBD@?$_Format_arg_store@V?$basic_format_context@V?$back_insert_iterator@V?$_Fmt_buffer@D@std@@@std@@D@std@@$$CBV?$basic_string@DU?$char_traits@D@std@@V?$allocator@D@2@@2@PEBD@std@@AEAAX_KAEAPEBD@Z
	??$_Store@AEAPEBD@?$_Format_arg_store@V?$basic_format_context@V?$back_insert_iterator@V?$_Fmt_buffer@D@std@@@std@@D@std@@PEBD@std@@AEAAX_KAEAPEBD@Z
	??$_Store@AEAPEBD@?$_Format_arg_store@V?$basic_format_context@V?$back_insert_iterator@V?$_Fmt_buffer@D@std@@@std@@D@std@@PEBDH@std@@AEAAX_KAEAPEBD@Z
	??$_Store@AEAPEBD@?$_Format_arg_store@V?$basic_format_context@V?$back_insert_iterator@V?$_Fmt_buffer@D@std@@@std@@D@std@@PEBDI@std@@AEAAX_KAEAPEBD@Z
	??$_Store@AEAPEBD@?$_Format_arg_store@V?$basic_format_context@V?$back_insert_iterator@V?$_Fmt_buffer@D@std@@@std@@D@std@@PEBDPEAX@std@@AEAAX_KAEAPEBD@Z
	??$_Store@AEAPEBD@?$_Format_arg_store@V?$basic_format_context@V?$back_insert_iterator@V?$_Fmt_buffer@D@std@@@std@@D@std@@PEBDPEBD@std@@AEAAX_KAEAPEBD@Z
	??$_Store@AEAPEBD@?$_Format_arg_store@V?$basic_format_context@V?$back_insert_iterator@V?$_Fmt_buffer@D@std@@@std@@D@std@@V?$basic_string@DU?$char_traits@D@std@@V?$allocator@D@2@@2@PEBD$$CBV32@@std@@AEAAX_KAEAPEBD@Z
	??$_Store@AEAV?$basic_string@DU?$char_traits@D@std@@V?$allocator@D@2@@std@@@?$_Format_arg_store@V?$basic_format_context@V?$back_insert_iterator@V?$_Fmt_buffer@D@std@@@std@@D@std@@V?$basic_string@DU?$char_traits@D@std@@V?$allocator@D@2@@2@@std@@AEAAX_KAEAV?$basic_string@DU?$char_traits@D@std@@V?$allocator@D@2@@1@@Z
	??$_Store@AEAV?$basic_string@DU?$char_traits@D@std@@V?$allocator@D@2@@std@@@?$_Format_arg_store@V?$basic_format_context@V?$back_insert_iterator@V?$_Fmt_buffer@D@std@@@std@@D@std@@V?$basic_string@DU?$char_traits@D@std@@V?$allocator@D@2@@2@PEBD$$CBV32@@std@@AEAAX_KAEAV?$basic_string@DU?$char_traits@D@std@@V?$allocator@D@2@@1@@Z
	??$_Store@AEAY05$$CBD@?$_Format_arg_store@V?$basic_format_context@V?$back_insert_iterator@V?$_Fmt_buffer@D@std@@@std@@D@std@@$$BY05$$CBD@std@@AEAAX_KAEAY05$$CBD@Z
	??$_Store@AEAY0IA@D@?$_Format_arg_store@V?$basic_format_context@V?$back_insert_iterator@V?$_Fmt_buffer@D@std@@@std@@D@std@@$$BY0IA@D@std@@AEAAX_KAEAY0IA@D@Z
	??$_Store@AEAY0IA@D@?$_Format_arg_store@V?$basic_format_context@V?$back_insert_iterator@V?$_Fmt_buffer@D@std@@@std@@D@std@@$$BY0IA@DGGI@std@@AEAAX_KAEAY0IA@D@Z
	??$_Store@AEA_K@?$_Format_arg_store@V?$basic_format_context@V?$back_insert_iterator@V?$_Fmt_buffer@D@std@@@std@@D@std@@$$CBV?$basic_string@DU?$char_traits@D@std@@V?$allocator@D@2@@2@_K@std@@AEAAX_KAEA_K@Z
	??$_Store@AEA_K@?$_Format_arg_store@V?$basic_format_context@V?$back_insert_iterator@V?$_Fmt_buffer@D@std@@@std@@D@std@@IH_K@std@@AEAAX_KAEA_K@Z
	??$_Store@AEA_K@?$_Format_arg_store@V?$basic_format_context@V?$back_insert_iterator@V?$_Fmt_buffer@D@std@@@std@@D@std@@I_K@std@@AEAAX_KAEA_K@Z
	??$_Store@AEA_K@?$_Format_arg_store@V?$basic_format_context@V?$back_insert_iterator@V?$_Fmt_buffer@D@std@@@std@@D@std@@_K@std@@AEAAX_KAEA_K@Z
	??$_Store@AEBV?$basic_string@DU?$char_traits@D@std@@V?$allocator@D@2@@std@@@?$_Format_arg_store@V?$basic_format_context@V?$back_insert_iterator@V?$_Fmt_buffer@D@std@@@std@@D@std@@$$CBV?$basic_string@DU?$char_traits@D@std@@V?$allocator@D@2@@2@@std@@AEAAX_KAEBV?$basic_string@DU?$char_traits@D@std@@V?$allocator@D@2@@1@@Z
	??$_Store@AEBV?$basic_string@DU?$char_traits@D@std@@V?$allocator@D@2@@std@@@?$_Format_arg_store@V?$basic_format_context@V?$back_insert_iterator@V?$_Fmt_buffer@D@std@@@std@@D@std@@$$CBV?$basic_string@DU?$char_traits@D@std@@V?$allocator@D@2@@2@PEBD@std@@AEAAX_KAEBV?$basic_string@DU?$char_traits@D@std@@V?$allocator@D@2@@1@@Z
	??$_Store@AEBV?$basic_string@DU?$char_traits@D@std@@V?$allocator@D@2@@std@@@?$_Format_arg_store@V?$basic_format_context@V?$back_insert_iterator@V?$_Fmt_buffer@D@std@@@std@@D@std@@$$CBV?$basic_string@DU?$char_traits@D@std@@V?$allocator@D@2@@2@_K@std@@AEAAX_KAEBV?$basic_string@DU?$char_traits@D@std@@V?$allocator@D@2@@1@@Z
	??$_Store@AEBV?$basic_string@DU?$char_traits@D@std@@V?$allocator@D@2@@std@@@?$_Format_arg_store@V?$basic_format_context@V?$back_insert_iterator@V?$_Fmt_buffer@D@std@@@std@@D@std@@I$$CBV?$basic_string@DU?$char_traits@D@std@@V?$allocator@D@2@@2@@std@@AEAAX_KAEBV?$basic_string@DU?$char_traits@D@std@@V?$allocator@D@2@@1@@Z
	??$_Store@AEBV?$basic_string@DU?$char_traits@D@std@@V?$allocator@D@2@@std@@@?$_Format_arg_store@V?$basic_format_context@V?$back_insert_iterator@V?$_Fmt_buffer@D@std@@@std@@D@std@@V?$basic_string@DU?$char_traits@D@std@@V?$allocator@D@2@@2@PEBD$$CBV32@@std@@AEAAX_KAEBV?$basic_string@DU?$char_traits@D@std@@V?$allocator@D@2@@1@@Z
	??$_Store_impl@H@?$_Format_arg_store@V?$basic_format_context@V?$back_insert_iterator@V?$_Fmt_buffer@D@std@@@std@@D@std@@H@std@@AEAAX_KW4_Basic_format_arg_type@1@AEBH@Z
	??$_Store_impl@H@?$_Format_arg_store@V?$basic_format_context@V?$back_insert_iterator@V?$_Fmt_buffer@D@std@@@std@@D@std@@HH@std@@AEAAX_KW4_Basic_format_arg_type@1@AEBH@Z
	??$_Store_impl@H@?$_Format_arg_store@V?$basic_format_context@V?$back_insert_iterator@V?$_Fmt_buffer@D@std@@@std@@D@std@@HPEAX@std@@AEAAX_KW4_Basic_format_arg_type@1@AEBH@Z
	??$_Store_impl@H@?$_Format_arg_store@V?$basic_format_context@V?$back_insert_iterator@V?$_Fmt_buffer@D@std@@@std@@D@std@@IH@std@@AEAAX_KW4_Basic_format_arg_type@1@AEBH@Z
	??$_Store_impl@H@?$_Format_arg_store@V?$basic_format_context@V?$back_insert_iterator@V?$_Fmt_buffer@D@std@@@std@@D@std@@IHHI@std@@AEAAX_KW4_Basic_format_arg_type@1@AEBH@Z
	??$_Store_impl@H@?$_Format_arg_store@V?$basic_format_context@V?$back_insert_iterator@V?$_Fmt_buffer@D@std@@@std@@D@std@@IH_K@std@@AEAAX_KW4_Basic_format_arg_type@1@AEBH@Z
	??$_Store_impl@H@?$_Format_arg_store@V?$basic_format_context@V?$back_insert_iterator@V?$_Fmt_buffer@D@std@@@std@@D@std@@J@std@@AEAAX_KW4_Basic_format_arg_type@1@AEBH@Z
	??$_Store_impl@H@?$_Format_arg_store@V?$basic_format_context@V?$back_insert_iterator@V?$_Fmt_buffer@D@std@@@std@@D@std@@PEBDH@std@@AEAAX_KW4_Basic_format_arg_type@1@AEBH@Z
	??$_Store_impl@I@?$_Format_arg_store@V?$basic_format_context@V?$back_insert_iterator@V?$_Fmt_buffer@D@std@@@std@@D@std@@$$BY0IA@DGGI@std@@AEAAX_KW4_Basic_format_arg_type@1@AEBI@Z
	??$_Store_impl@I@?$_Format_arg_store@V?$basic_format_context@V?$back_insert_iterator@V?$_Fmt_buffer@D@std@@@std@@D@std@@EE@std@@AEAAX_KW4_Basic_format_arg_type@1@AEBI@Z
	??$_Store_impl@I@?$_Format_arg_store@V?$basic_format_context@V?$back_insert_iterator@V?$_Fmt_buffer@D@std@@@std@@D@std@@EEEEEEEEEEEE@std@@AEAAX_KW4_Basic_format_arg_type@1@AEBI@Z
	??$_Store_impl@I@?$_Format_arg_store@V?$basic_format_context@V?$back_insert_iterator@V?$_Fmt_buffer@D@std@@@std@@D@std@@EEEEEEEEEEEEEEEEEEEE@std@@AEAAX_KW4_Basic_format_arg_type@1@AEBI@Z
	??$_Store_impl@I@?$_Format_arg_store@V?$basic_format_context@V?$back_insert_iterator@V?$_Fmt_buffer@D@std@@@std@@D@std@@I$$CBV?$basic_string@DU?$char_traits@D@std@@V?$allocator@D@2@@2@@std@@AEAAX_KW4_Basic_format_arg_type@1@AEBI@Z
	??$_Store_impl@I@?$_Format_arg_store@V?$basic_format_context@V?$back_insert_iterator@V?$_Fmt_buffer@D@std@@@std@@D@std@@I@std@@AEAAX_KW4_Basic_format_arg_type@1@AEBI@Z
	??$_Store_impl@I@?$_Format_arg_store@V?$basic_format_context@V?$back_insert_iterator@V?$_Fmt_buffer@D@std@@@std@@D@std@@IH@std@@AEAAX_KW4_Basic_format_arg_type@1@AEBI@Z
	??$_Store_impl@I@?$_Format_arg_store@V?$basic_format_context@V?$back_insert_iterator@V?$_Fmt_buffer@D@std@@@std@@D@std@@IHHI@std@@AEAAX_KW4_Basic_format_arg_type@1@AEBI@Z
	??$_Store_impl@I@?$_Format_arg_store@V?$basic_format_context@V?$back_insert_iterator@V?$_Fmt_buffer@D@std@@@std@@D@std@@IH_K@std@@AEAAX_KW4_Basic_format_arg_type@1@AEBI@Z
	??$_Store_impl@I@?$_Format_arg_store@V?$basic_format_context@V?$back_insert_iterator@V?$_Fmt_buffer@D@std@@@std@@D@std@@II@std@@AEAAX_KW4_Basic_format_arg_type@1@AEBI@Z
	??$_Store_impl@I@?$_Format_arg_store@V?$basic_format_context@V?$back_insert_iterator@V?$_Fmt_buffer@D@std@@@std@@D@std@@III@std@@AEAAX_KW4_Basic_format_arg_type@1@AEBI@Z
	??$_Store_impl@I@?$_Format_arg_store@V?$basic_format_context@V?$back_insert_iterator@V?$_Fmt_buffer@D@std@@@std@@D@std@@I_K@std@@AEAAX_KW4_Basic_format_arg_type@1@AEBI@Z
	??$_Store_impl@I@?$_Format_arg_store@V?$basic_format_context@V?$back_insert_iterator@V?$_Fmt_buffer@D@std@@@std@@D@std@@K@std@@AEAAX_KW4_Basic_format_arg_type@1@AEBI@Z
	??$_Store_impl@I@?$_Format_arg_store@V?$basic_format_context@V?$back_insert_iterator@V?$_Fmt_buffer@D@std@@@std@@D@std@@KPEAXK@std@@AEAAX_KW4_Basic_format_arg_type@1@AEBI@Z
	??$_Store_impl@I@?$_Format_arg_store@V?$basic_format_context@V?$back_insert_iterator@V?$_Fmt_buffer@D@std@@@std@@D@std@@PEBDI@std@@AEAAX_KW4_Basic_format_arg_type@1@AEBI@Z
	??$_Store_impl@M@?$_Format_arg_store@V?$basic_format_context@V?$back_insert_iterator@V?$_Fmt_buffer@D@std@@@std@@D@std@@M@std@@AEAAX_KW4_Basic_format_arg_type@1@AEBM@Z
	??$_Store_impl@M@?$_Format_arg_store@V?$basic_format_context@V?$back_insert_iterator@V?$_Fmt_buffer@D@std@@@std@@D@std@@MM@std@@AEAAX_KW4_Basic_format_arg_type@1@AEBM@Z
	??$_Store_impl@PEBD@?$_Format_arg_store@V?$basic_format_context@V?$back_insert_iterator@V?$_Fmt_buffer@D@std@@@std@@D@std@@$$BY05$$CBD@std@@AEAAX_KW4_Basic_format_arg_type@1@AEBQEBD@Z
	??$_Store_impl@PEBD@?$_Format_arg_store@V?$basic_format_context@V?$back_insert_iterator@V?$_Fmt_buffer@D@std@@@std@@D@std@@$$BY0IA@D@std@@AEAAX_KW4_Basic_format_arg_type@1@AEBQEBD@Z
	??$_Store_impl@PEBD@?$_Format_arg_store@V?$basic_format_context@V?$back_insert_iterator@V?$_Fmt_buffer@D@std@@@std@@D@std@@$$BY0IA@DGGI@std@@AEAAX_KW4_Basic_format_arg_type@1@AEBQEBD@Z
	??$_Store_impl@PEBD@?$_Format_arg_store@V?$basic_format_context@V?$back_insert_iterator@V?$_Fmt_buffer@D@std@@@std@@D@std@@$$CBV?$basic_string@DU?$char_traits@D@std@@V?$allocator@D@2@@2@PEBD@std@@AEAAX_KW4_Basic_format_arg_type@1@AEBQEBD@Z
	??$_Store_impl@PEBD@?$_Format_arg_store@V?$basic_format_context@V?$back_insert_iterator@V?$_Fmt_buffer@D@std@@@std@@D@std@@PEADPEAX@std@@AEAAX_KW4_Basic_format_arg_type@1@AEBQEBD@Z
	??$_Store_impl@PEBD@?$_Format_arg_store@V?$basic_format_context@V?$back_insert_iterator@V?$_Fmt_buffer@D@std@@@std@@D@std@@PEBD@std@@AEAAX_KW4_Basic_format_arg_type@1@AEBQEBD@Z
	??$_Store_impl@PEBD@?$_Format_arg_store@V?$basic_format_context@V?$back_insert_iterator@V?$_Fmt_buffer@D@std@@@std@@D@std@@PEBDH@std@@AEAAX_KW4_Basic_format_arg_type@1@AEBQEBD@Z
	??$_Store_impl@PEBD@?$_Format_arg_store@V?$basic_format_context@V?$back_insert_iterator@V?$_Fmt_buffer@D@std@@@std@@D@std@@PEBDI@std@@AEAAX_KW4_Basic_format_arg_type@1@AEBQEBD@Z
	??$_Store_impl@PEBD@?$_Format_arg_store@V?$basic_format_context@V?$back_insert_iterator@V?$_Fmt_buffer@D@std@@@std@@D@std@@PEBDPEAX@std@@AEAAX_KW4_Basic_format_arg_type@1@AEBQEBD@Z
	??$_Store_impl@PEBD@?$_Format_arg_store@V?$basic_format_context@V?$back_insert_iterator@V?$_Fmt_buffer@D@std@@@std@@D@std@@PEBDPEBD@std@@AEAAX_KW4_Basic_format_arg_type@1@AEBQEBD@Z
	??$_Store_impl@PEBD@?$_Format_arg_store@V?$basic_format_context@V?$back_insert_iterator@V?$_Fmt_buffer@D@std@@@std@@D@std@@V?$basic_string@DU?$char_traits@D@std@@V?$allocator@D@2@@2@PEBD$$CBV32@@std@@AEAAX_KW4_Basic_format_arg_type@1@AEBQEBD@Z
	??$_Store_impl@PEBX@?$_Format_arg_store@V?$basic_format_context@V?$back_insert_iterator@V?$_Fmt_buffer@D@std@@@std@@D@std@@HPEAX@std@@AEAAX_KW4_Basic_format_arg_type@1@AEBQEBX@Z
	??$_Store_impl@PEBX@?$_Format_arg_store@V?$basic_format_context@V?$back_insert_iterator@V?$_Fmt_buffer@D@std@@@std@@D@std@@KPEAXK@std@@AEAAX_KW4_Basic_format_arg_type@1@AEBQEBX@Z
	??$_Store_impl@PEBX@?$_Format_arg_store@V?$basic_format_context@V?$back_insert_iterator@V?$_Fmt_buffer@D@std@@@std@@D@std@@PEADPEAX@std@@AEAAX_KW4_Basic_format_arg_type@1@AEBQEBX@Z
	??$_Store_impl@PEBX@?$_Format_arg_store@V?$basic_format_context@V?$back_insert_iterator@V?$_Fmt_buffer@D@std@@@std@@D@std@@PEAX@std@@AEAAX_KW4_Basic_format_arg_type@1@AEBQEBX@Z
	??$_Store_impl@PEBX@?$_Format_arg_store@V?$basic_format_context@V?$back_insert_iterator@V?$_Fmt_buffer@D@std@@@std@@D@std@@PEAXPEAX@std@@AEAAX_KW4_Basic_format_arg_type@1@AEBQEBX@Z
	??$_Store_impl@PEBX@?$_Format_arg_store@V?$basic_format_context@V?$back_insert_iterator@V?$_Fmt_buffer@D@std@@@std@@D@std@@PEBDPEAX@std@@AEAAX_KW4_Basic_format_arg_type@1@AEBQEBX@Z
	??$_Store_impl@V?$basic_string_view@DU?$char_traits@D@std@@@std@@@?$_Format_arg_store@V?$basic_format_context@V?$back_insert_iterator@V?$_Fmt_buffer@D@std@@@std@@D@std@@$$CBV?$basic_string@DU?$char_traits@D@std@@V?$allocator@D@2@@2@@std@@AEAAX_KW4_Basic_format_arg_type@1@AEBV?$basic_string_view@DU?$char_traits@D@std@@@1@@Z
	??$_Store_impl@V?$basic_string_view@DU?$char_traits@D@std@@@std@@@?$_Format_arg_store@V?$basic_format_context@V?$back_insert_iterator@V?$_Fmt_buffer@D@std@@@std@@D@std@@$$CBV?$basic_string@DU?$char_traits@D@std@@V?$allocator@D@2@@2@PEBD@std@@AEAAX_KW4_Basic_format_arg_type@1@AEBV?$basic_string_view@DU?$char_traits@D@std@@@1@@Z
	??$_Store_impl@V?$basic_string_view@DU?$char_traits@D@std@@@std@@@?$_Format_arg_store@V?$basic_format_context@V?$back_insert_iterator@V?$_Fmt_buffer@D@std@@@std@@D@std@@$$CBV?$basic_string@DU?$char_traits@D@std@@V?$allocator@D@2@@2@_K@std@@AEAAX_KW4_Basic_format_arg_type@1@AEBV?$basic_string_view@DU?$char_traits@D@std@@@1@@Z
	??$_Store_impl@V?$basic_string_view@DU?$char_traits@D@std@@@std@@@?$_Format_arg_store@V?$basic_format_context@V?$back_insert_iterator@V?$_Fmt_buffer@D@std@@@std@@D@std@@I$$CBV?$basic_string@DU?$char_traits@D@std@@V?$allocator@D@2@@2@@std@@AEAAX_KW4_Basic_format_arg_type@1@AEBV?$basic_string_view@DU?$char_traits@D@std@@@1@@Z
	??$_Store_impl@V?$basic_string_view@DU?$char_traits@D@std@@@std@@@?$_Format_arg_store@V?$basic_format_context@V?$back_insert_iterator@V?$_Fmt_buffer@D@std@@@std@@D@std@@V?$basic_string@DU?$char_traits@D@std@@V?$allocator@D@2@@2@@std@@AEAAX_KW4_Basic_format_arg_type@1@AEBV?$basic_string_view@DU?$char_traits@D@std@@@1@@Z
	??$_Store_impl@V?$basic_string_view@DU?$char_traits@D@std@@@std@@@?$_Format_arg_store@V?$basic_format_context@V?$back_insert_iterator@V?$_Fmt_buffer@D@std@@@std@@D@std@@V?$basic_string@DU?$char_traits@D@std@@V?$allocator@D@2@@2@PEBD$$CBV32@@std@@AEAAX_KW4_Basic_format_arg_type@1@AEBV?$basic_string_view@DU?$char_traits@D@std@@@1@@Z
	??$_Store_impl@_K@?$_Format_arg_store@V?$basic_format_context@V?$back_insert_iterator@V?$_Fmt_buffer@D@std@@@std@@D@std@@$$CBV?$basic_string@DU?$char_traits@D@std@@V?$allocator@D@2@@2@_K@std@@AEAAX_KW4_Basic_format_arg_type@1@AEB_K@Z
	??$_Store_impl@_K@?$_Format_arg_store@V?$basic_format_context@V?$back_insert_iterator@V?$_Fmt_buffer@D@std@@@std@@D@std@@IH_K@std@@AEAAX_KW4_Basic_format_arg_type@1@AEB_K@Z
	??$_Store_impl@_K@?$_Format_arg_store@V?$basic_format_context@V?$back_insert_iterator@V?$_Fmt_buffer@D@std@@@std@@D@std@@I_K@std@@AEAAX_KW4_Basic_format_arg_type@1@AEB_K@Z
	??$_Store_impl@_K@?$_Format_arg_store@V?$basic_format_context@V?$back_insert_iterator@V?$_Fmt_buffer@D@std@@@std@@D@std@@_K@std@@AEAAX_KW4_Basic_format_arg_type@1@AEB_K@Z
	??$_Stringoid_from_Source@$$BY08D@filesystem@std@@YA?A_PAEAY08$$CBD@Z
	??$_Stringoid_from_Source@$$BY0BA@D@filesystem@std@@YA?A_PAEAY0BA@$$CBD@Z
	??$_Stringoid_from_Source@$$BY0BAE@D@filesystem@std@@YA?A_PAEAY0BAE@$$CBD@Z
	??$_Stringoid_from_Source@$$BY0BB@D@filesystem@std@@YA?A_PAEAY0BB@$$CBD@Z
	??$_Stringoid_from_Source@$$BY0M@D@filesystem@std@@YA?A_PAEAY0M@$$CBD@Z
	??$_Stringoid_from_Source@DU?$char_traits@D@std@@V?$allocator@D@2@@filesystem@std@@YA?A_PAEBV?$basic_string@DU?$char_traits@D@std@@V?$allocator@D@2@@1@@Z
	??$_Stringoid_from_Source@PEAD@filesystem@std@@YA?A_PAEBQEAD@Z
	??$_Stringoid_from_Source@_WU?$char_traits@_W@std@@@filesystem@std@@YA?A_PAEBV?$basic_string_view@_WU?$char_traits@_W@std@@@1@@Z
	??$_Test_callable@V<lambda_1>@?1??initialize@VRConverter@vrc@@QEAA_NXZ@@std@@YA_NAEBV<lambda_1>@?1??initialize@VRConverter@vrc@@QEAA_NXZ@@Z
	??$_Test_callable@V<lambda_2>@?1??initialize@VRConverter@vrc@@QEAA_NXZ@@std@@YA_NAEBV<lambda_2>@?1??initialize@VRConverter@vrc@@QEAA_NXZ@@Z
	??$_To_address@PEAD@std@@YA?A_PAEBQEAD@Z
	??$_To_address@PEAE@std@@YA?A_PAEBQEAE@Z
	??$_To_address@PEAI@std@@YA?A_PAEBQEAI@Z
	??$_To_address@PEAN@std@@YA?A_PAEBQEAN@Z
	??$_To_address@PEAPEAULatencySnapshot@vrc@@@std@@YA?A_PAEBQEAPEAULatencySnapshot@vrc@@@Z
	??$_To_address@PEAPEAUPerfSample@vrc@@@std@@YA?A_PAEBQEAPEAUPerfSample@vrc@@@Z
	??$_To_address@PEAPEAURotationSample@LatencyCompensator@vrc@@@std@@YA?A_PAEBQEAPEAURotationSample@LatencyCompensator@vrc@@@Z
	??$_To_address@PEAPEAUTrackingSample@vrc@@@std@@YA?A_PAEBQEAPEAUTrackingSample@vrc@@@Z
	??$_To_address@PEAPEAV?$basic_json@Vmap@std@@Vvector@2@V?$basic_string@DU?$char_traits@D@std@@V?$allocator@D@2@@2@_N_J_KNVallocator@2@Uadl_serializer@json_abi_v3_11_3@nlohmann@@V?$vector@EV?$allocator@E@std@@@2@X@json_abi_v3_11_3@nlohmann@@@std@@YA?A_PAEBQEAPEAV?$basic_json@Vmap@std@@Vvector@2@V?$basic_string@DU?$char_traits@D@std@@V?$allocator@D@2@@2@_N_J_KNVallocator@2@Uadl_serializer@json_abi_v3_11_3@nlohmann@@V?$vector@EV?$allocator@E@std@@@2@X@json_abi_v3_11_3@nlohmann@@@Z
	??$_To_address@PEAPEAX@std@@YA?A_PAEBQEAPEAX@Z
	??$_To_address@PEAPEBD@std@@YA?A_PAEBQEAPEBD@Z
	??$_To_address@PEAU?$pair@PEAXP6AJPEAUIDXGISwapChain@@II@Z@std@@@std@@YA?A_PAEBQEAU?$pair@PEAXP6AJPEAUIDXGISwapChain@@II@Z@0@@Z
	??$_To_address@PEAUD3D12_CPU_DESCRIPTOR_HANDLE@@@std@@YA?A_PAEBQEAUD3D12_CPU_DESCRIPTOR_HANDLE@@@Z
	??$_To_address@PEAUXrActionSuggestedBinding@@@std@@YA?A_PAEBQEAUXrActionSuggestedBinding@@@Z
	??$_To_address@PEAUXrSwapchainImageD3D11KHR@@@std@@YA?A_PAEBQEAUXrSwapchainImageD3D11KHR@@@Z
	??$_To_address@PEAUXrSwapchainImageD3D12KHR@@@std@@YA?A_PAEBQEAUXrSwapchainImageD3D12KHR@@@Z
	??$_To_address@PEBD@std@@YA?A_PAEBQEBD@Z
	??$_Traits_compare@U?$char_traits@D@std@@@std@@YAHQEBD_K01@Z
	??$_Traits_compare@U?$char_traits@_W@std@@@std@@YAHQEB_W_K01@Z
	??$_Traits_copy_batch@U?$char_traits@D@std@@D@std@@YAXQEADQEBD_K@Z
	??$_Traits_copy_batch@U?$char_traits@_W@std@@_W@std@@YAXQEA_WQEB_W_K@Z
	??$_Traits_equal@U?$char_traits@D@std@@@std@@YA_NQEBD_K01@Z
	??$_Traits_move_batch@U?$char_traits@D@std@@D@std@@YAXQEADQEBD_K@Z
	??$_Traits_move_batch@U?$char_traits@_W@std@@_W@std@@YAXQEA_WQEB_W_K@Z
	??$_Try_emplace@AEBG$$V@?$_Hash@V?$_Umap_traits@G_NV?$_Uhash_compare@GU?$hash@G@std@@U?$equal_to@G@2@@std@@V?$allocator@U?$pair@$$CBG_N@std@@@2@$0A@@std@@@std@@IEAA?AU?$pair@PEAU?$_List_node@U?$pair@$$CBG_N@std@@PEAX@std@@_N@1@AEBG@Z
	??$_Try_emplace@AEBV?$basic_string@DU?$char_traits@D@std@@V?$allocator@D@2@@std@@$$V@?$_Hash@V?$_Umap_traits@V?$basic_string@DU?$char_traits@D@std@@V?$allocator@D@2@@std@@UConfigProfile@vrc@@V?$_Uhash_compare@V?$basic_string@DU?$char_traits@D@std@@V?$allocator@D@2@@std@@U?$hash@V?$basic_string@DU?$char_traits@D@std@@V?$allocator@D@2@@std@@@2@U?$equal_to@V?$basic_string@DU?$char_traits@D@std@@V?$allocator@D@2@@std@@@2@@2@V?$allocator@U?$pair@$$CBV?$basic_string@DU?$char_traits@D@std@@V?$allocator@D@2@@std@@UConfigProfile@vrc@@@std@@@2@$0A@@std@@@std@@IEAA?AU?$pair@PEAU?$_List_node@U?$pair@$$CBV?$basic_string@DU?$char_traits@D@std@@V?$allocator@D@2@@std@@UConfigProfile@vrc@@@std@@PEAX@std@@_N@1@AEBV?$basic_string@DU?$char_traits@D@std@@V?$allocator@D@2@@1@@Z
	??$_Try_emplace@AEBV?$basic_string@DU?$char_traits@D@std@@V?$allocator@D@2@@std@@$$V@?$_Hash@V?$_Umap_traits@V?$basic_string@DU?$char_traits@D@std@@V?$allocator@D@2@@std@@UInputProfile@vrc@@V?$_Uhash_compare@V?$basic_string@DU?$char_traits@D@std@@V?$allocator@D@2@@std@@U?$hash@V?$basic_string@DU?$char_traits@D@std@@V?$allocator@D@2@@std@@@2@U?$equal_to@V?$basic_string@DU?$char_traits@D@std@@V?$allocator@D@2@@std@@@2@@2@V?$allocator@U?$pair@$$CBV?$basic_string@DU?$char_traits@D@std@@V?$allocator@D@2@@std@@UInputProfile@vrc@@@std@@@2@$0A@@std@@@std@@IEAA?AU?$pair@PEAU?$_List_node@U?$pair@$$CBV?$basic_string@DU?$char_traits@D@std@@V?$allocator@D@2@@std@@UInputProfile@vrc@@@std@@PEAX@std@@_N@1@AEBV?$basic_string@DU?$char_traits@D@std@@V?$allocator@D@2@@1@@Z
	??$_Try_emplace@AEBV?$basic_string@DU?$char_traits@D@std@@V?$allocator@D@2@@std@@$$V@?$_Hash@V?$_Umap_traits@V?$basic_string@DU?$char_traits@D@std@@V?$allocator@D@2@@std@@V?$function@$$A6AXXZ@2@V?$_Uhash_compare@V?$basic_string@DU?$char_traits@D@std@@V?$allocator@D@2@@std@@U?$hash@V?$basic_string@DU?$char_traits@D@std@@V?$allocator@D@2@@std@@@2@U?$equal_to@V?$basic_string@DU?$char_traits@D@std@@V?$allocator@D@2@@std@@@2@@2@V?$allocator@U?$pair@$$CBV?$basic_string@DU?$char_traits@D@std@@V?$allocator@D@2@@std@@V?$function@$$A6AXXZ@2@@std@@@2@$0A@@std@@@std@@IEAA?AU?$pair@PEAU?$_List_node@U?$pair@$$CBV?$basic_string@DU?$char_traits@D@std@@V?$allocator@D@2@@std@@V?$function@$$A6AXXZ@2@@std@@PEAX@std@@_N@1@AEBV?$basic_string@DU?$char_traits@D@std@@V?$allocator@D@2@@1@@Z
	??$_Try_emplace@AEBV?$basic_string@DU?$char_traits@D@std@@V?$allocator@D@2@@std@@$$V@?$map@V?$basic_string@DU?$char_traits@D@std@@V?$allocator@D@2@@std@@V?$basic_json@Vmap@std@@Vvector@2@V?$basic_string@DU?$char_traits@D@std@@V?$allocator@D@2@@2@_N_J_KNVallocator@2@Uadl_serializer@json_abi_v3_11_3@nlohmann@@V?$vector@EV?$allocator@E@std@@@2@X@json_abi_v3_11_3@nlohmann@@U?$less@X@2@V?$allocator@U?$pair@$$CBV?$basic_string@DU?$char_traits@D@std@@V?$allocator@D@2@@std@@V?$basic_json@Vmap@std@@Vvector@2@V?$basic_string@DU?$char_traits@D@std@@V?$allocator@D@2@@2@_N_J_KNVallocator@2@Uadl_serializer@json_abi_v3_11_3@nlohmann@@V?$vector@EV?$allocator@E@std@@@2@X@json_abi_v3_11_3@nlohmann@@@std@@@2@@std@@AEAA?AU?$pair@PEAU?$_Tree_node@U?$pair@$$CBV?$basic_string@DU?$char_traits@D@std@@V?$allocator@D@2@@std@@V?$basic_json@Vmap@std@@Vvector@2@V?$basic_string@DU?$char_traits@D@std@@V?$allocator@D@2@@2@_N_J_KNVallocator@2@Uadl_serializer@json_abi_v3_11_3@nlohmann@@V?$vector@EV?$allocator@E@std@@@2@X@json_abi_v3_11_3@nlohmann@@@std@@PEAX@std@@_N@1@AEBV?$basic_string@DU?$char_traits@D@std@@V?$allocator@D@2@@1@@Z
	??$_Try_emplace@AEBW4InputAction@vrc@@$$V@?$_Hash@V?$_Umap_traits@W4InputAction@vrc@@MV?$_Uhash_compare@W4InputAction@vrc@@U?$hash@W4InputAction@vrc@@@std@@U?$equal_to@W4InputAction@vrc@@@4@@std@@V?$allocator@U?$pair@$$CBW4InputAction@vrc@@M@std@@@4@$0A@@std@@@std@@IEAA?AU?$pair@PEAU?$_List_node@U?$pair@$$CBW4InputAction@vrc@@M@std@@PEAX@std@@_N@1@AEBW4InputAction@vrc@@@Z
	??$_Try_emplace@V?$basic_string@DU?$char_traits@D@std@@V?$allocator@D@2@@std@@$$V@?$_Hash@V?$_Umap_traits@V?$basic_string@DU?$char_traits@D@std@@V?$allocator@D@2@@std@@UConfigProfile@vrc@@V?$_Uhash_compare@V?$basic_string@DU?$char_traits@D@std@@V?$allocator@D@2@@std@@U?$hash@V?$basic_string@DU?$char_traits@D@std@@V?$allocator@D@2@@std@@@2@U?$equal_to@V?$basic_string@DU?$char_traits@D@std@@V?$allocator@D@2@@std@@@2@@2@V?$allocator@U?$pair@$$CBV?$basic_string@DU?$char_traits@D@std@@V?$allocator@D@2@@std@@UConfigProfile@vrc@@@std@@@2@$0A@@std@@@std@@IEAA?AU?$pair@PEAU?$_List_node@U?$pair@$$CBV?$basic_string@DU?$char_traits@D@std@@V?$allocator@D@2@@std@@UConfigProfile@vrc@@@std@@PEAX@std@@_N@1@$$QEAV?$basic_string@DU?$char_traits@D@std@@V?$allocator@D@2@@1@@Z
	??$_Try_emplace@W4InputAction@vrc@@$$V@?$_Hash@V?$_Umap_traits@W4InputAction@vrc@@MV?$_Uhash_compare@W4InputAction@vrc@@U?$hash@W4InputAction@vrc@@@std@@U?$equal_to@W4InputAction@vrc@@@4@@std@@V?$allocator@U?$pair@$$CBW4InputAction@vrc@@M@std@@@4@$0A@@std@@@std@@IEAA?AU?$pair@PEAU?$_List_node@U?$pair@$$CBW4InputAction@vrc@@M@std@@PEAX@std@@_N@1@$$QEAW4InputAction@vrc@@@Z
	??$_Tuple_get@$0A@$$QEAV?$basic_string@DU?$char_traits@D@std@@V?$allocator@D@2@@std@@@std@@YA$$QEA_P$$QEAV?$tuple@$$QEAV?$basic_string@DU?$char_traits@D@std@@V?$allocator@D@2@@std@@@0@@Z
	??$_Tuple_get@$0A@$$QEAW4InputAction@vrc@@@std@@YA$$QEA_P$$QEAV?$tuple@$$QEAW4InputAction@vrc@@@0@@Z
	??$_Tuple_get@$0A@AEBG@std@@YA$$QEA_P$$QEAV?$tuple@AEBG@0@@Z
	??$_Tuple_get@$0A@AEBV?$basic_string@DU?$char_traits@D@std@@V?$allocator@D@2@@std@@@std@@YA$$QEA_P$$QEAV?$tuple@AEBV?$basic_string@DU?$char_traits@D@std@@V?$allocator@D@2@@std@@@0@@Z
	??$_Tuple_get@$0A@AEBW4InputAction@vrc@@@std@@YA$$QEA_P$$QEAV?$tuple@AEBW4InputAction@vrc@@@0@@Z
	??$_UIntegral_to_buff@DI@std@@YAPEADPEADI@Z
	??$_UIntegral_to_buff@D_K@std@@YAPEADPEAD_K@Z
	??$_Unfancy@$$CBD@std@@YAPEBDPEBD@Z
	??$_Unfancy@D@std@@YAPEADPEAD@Z
	??$_Unfancy@E@std@@YAPEAEPEAE@Z
	??$_Unfancy@I@std@@YAPEAIPEAI@Z
	??$_Unfancy@N@std@@YAPEANPEAN@Z
	??$_Unfancy@PEAV?$basic_json@Vmap@std@@Vvector@2@V?$basic_string@DU?$char_traits@D@std@@V?$allocator@D@2@@2@_N_J_KNVallocator@2@Uadl_serializer@json_abi_v3_11_3@nlohmann@@V?$vector@EV?$allocator@E@std@@@2@X@json_abi_v3_11_3@nlohmann@@@std@@YAPEAPEAV?$basic_json@Vmap@std@@Vvector@2@V?$basic_string@DU?$char_traits@D@std@@V?$allocator@D@2@@2@_N_J_KNVallocator@2@Uadl_serializer@json_abi_v3_11_3@nlohmann@@V?$vector@EV?$allocator@E@std@@@2@X@json_abi_v3_11_3@nlohmann@@PEAPEAV123@@Z
	??$_Unfancy@PEAX@std@@YAPEAPEAXPEAPEAX@Z
	??$_Unfancy@PEBD@std@@YAPEAPEBDPEAPEBD@Z
	??$_Unfancy@U?$pair@PEAXP6AJPEAUIDXGISwapChain@@II@Z@std@@@std@@YAPEAU?$pair@PEAXP6AJPEAUIDXGISwapChain@@II@Z@0@PEAU10@@Z
	??$_Unfancy@UBinding@vrc@@@std@@YAPEAUBinding@vrc@@PEAU12@@Z
	??$_Unfancy@UD3D12_CPU_DESCRIPTOR_HANDLE@@@std@@YAPEAUD3D12_CPU_DESCRIPTOR_HANDLE@@PEAU1@@Z
	??$_Unfancy@ULatencySnapshot@vrc@@@std@@YAPEAULatencySnapshot@vrc@@PEAU12@@Z
	??$_Unfancy@UPerfSample@vrc@@@std@@YAPEAUPerfSample@vrc@@PEAU12@@Z
	??$_Unfancy@URotationSample@LatencyCompensator@vrc@@@std@@YAPEAURotationSample@LatencyCompensator@vrc@@PEAU123@@Z
	??$_Unfancy@UTrackingSample@vrc@@@std@@YAPEAUTrackingSample@vrc@@PEAU12@@Z
	??$_Unfancy@UXrActionSuggestedBinding@@@std@@YAPEAUXrActionSuggestedBinding@@PEAU1@@Z
	??$_Unfancy@UXrExtensionProperties@@@std@@YAPEAUXrExtensionProperties@@PEAU1@@Z
	??$_Unfancy@UXrSwapchainImageD3D11KHR@@@std@@YAPEAUXrSwapchainImageD3D11KHR@@PEAU1@@Z
	??$_Unfancy@UXrSwapchainImageD3D12KHR@@@std@@YAPEAUXrSwapchainImageD3D12KHR@@PEAU1@@Z
	??$_Unfancy@UXrViewConfigurationView@@@std@@YAPEAUXrViewConfigurationView@@PEAU1@@Z
	??$_Unfancy@U_Container_proxy@std@@@std@@YAPEAU_Container_proxy@0@PEAU10@@Z
	??$_Unfancy@V?$basic_json@Vmap@std@@Vvector@2@V?$basic_string@DU?$char_traits@D@std@@V?$allocator@D@2@@2@_N_J_KNVallocator@2@Uadl_serializer@json_abi_v3_11_3@nlohmann@@V?$vector@EV?$allocator@E@std@@@2@X@json_abi_v3_11_3@nlohmann@@@std@@YAPEAV?$basic_json@Vmap@std@@Vvector@2@V?$basic_string@DU?$char_traits@D@std@@V?$allocator@D@2@@2@_N_J_KNVallocator@2@Uadl_serializer@json_abi_v3_11_3@nlohmann@@V?$vector@EV?$allocator@E@std@@@2@X@json_abi_v3_11_3@nlohmann@@PEAV123@@Z
	??$_Unfancy@V?$basic_string@DU?$char_traits@D@std@@V?$allocator@D@2@@std@@@std@@YAPEAV?$basic_string@DU?$char_traits@D@std@@V?$allocator@D@2@@0@PEAV10@@Z
	??$_Unfancy@_W@std@@YAPEA_WPEA_W@Z
	??$_Unfancy_maybe_null@D@std@@YAPEADPEAD@Z
	??$_Unfancy_maybe_null@I@std@@YAPEAIPEAI@Z
	??$_Unfancy_maybe_null@N@std@@YAPEANPEAN@Z
	??$_Unfancy_maybe_null@PEAX@std@@YAPEAPEAXPEAPEAX@Z
	??$_Unfancy_maybe_null@PEBD@std@@YAPEAPEBDPEAPEBD@Z
	??$_Unfancy_maybe_null@U?$pair@PEAXP6AJPEAUIDXGISwapChain@@II@Z@std@@@std@@YAPEAU?$pair@PEAXP6AJPEAUIDXGISwapChain@@II@Z@0@PEAU10@@Z
	??$_Unfancy_maybe_null@UBinding@vrc@@@std@@YAPEAUBinding@vrc@@PEAU12@@Z
	??$_Unfancy_maybe_null@UXrActionSuggestedBinding@@@std@@YAPEAUXrActionSuggestedBinding@@PEAU1@@Z
	??$_Unfancy_maybe_null@UXrExtensionProperties@@@std@@YAPEAUXrExtensionProperties@@PEAU1@@Z
	??$_Unfancy_maybe_null@UXrSwapchainImageD3D11KHR@@@std@@YAPEAUXrSwapchainImageD3D11KHR@@PEAU1@@Z
	??$_Unfancy_maybe_null@UXrSwapchainImageD3D12KHR@@@std@@YAPEAUXrSwapchainImageD3D12KHR@@PEAU1@@Z
	??$_Unfancy_maybe_null@UXrViewConfigurationView@@@std@@YAPEAUXrViewConfigurationView@@PEAU1@@Z
	??$_Unfancy_maybe_null@V?$basic_json@Vmap@std@@Vvector@2@V?$basic_string@DU?$char_traits@D@std@@V?$allocator@D@2@@2@_N_J_KNVallocator@2@Uadl_serializer@json_abi_v3_11_3@nlohmann@@V?$vector@EV?$allocator@E@std@@@2@X@json_abi_v3_11_3@nlohmann@@@std@@YAPEAV?$basic_json@Vmap@std@@Vvector@2@V?$basic_string@DU?$char_traits@D@std@@V?$allocator@D@2@@2@_N_J_KNVallocator@2@Uadl_serializer@json_abi_v3_11_3@nlohmann@@V?$vector@EV?$allocator@E@std@@@2@X@json_abi_v3_11_3@nlohmann@@PEAV123@@Z
	??$_Unfancy_maybe_null@V?$basic_string@DU?$char_traits@D@std@@V?$allocator@D@2@@std@@@std@@YAPEAV?$basic_string@DU?$char_traits@D@std@@V?$allocator@D@2@@0@PEAV10@@Z
	??$_Ungetc@D@std@@YA_NAEBDPEAU_iobuf@@@Z
	??$_Uninitialized_copy@PEAEPEAEV?$allocator@E@std@@@std@@YAPEAEPEAE00AEAV?$allocator@E@0@@Z
	??$_Uninitialized_copy@PEAV?$basic_json@Vmap@std@@Vvector@2@V?$basic_string@DU?$char_traits@D@std@@V?$allocator@D@2@@2@_N_J_KNVallocator@2@Uadl_serializer@json_abi_v3_11_3@nlohmann@@V?$vector@EV?$allocator@E@std@@@2@X@json_abi_v3_11_3@nlohmann@@PEAV123@V?$allocator@V?$basic_json@Vmap@std@@Vvector@2@V?$basic_string@DU?$char_traits@D@std@@V?$allocator@D@2@@2@_N_J_KNVallocator@2@Uadl_serializer@json_abi_v3_11_3@nlohmann@@V?$vector@EV?$allocator@E@std@@@2@X@json_abi_v3_11_3@nlohmann@@@std@@@std@@YAPEAV?$basic_json@Vmap@std@@Vvector@2@V?$basic_string@DU?$char_traits@D@std@@V?$allocator@D@2@@2@_N_J_KNVallocator@2@Uadl_serializer@json_abi_v3_11_3@nlohmann@@V?$vector@EV?$allocator@E@std@@@2@X@json_abi_v3_11_3@nlohmann@@PEAV123@00AEAV?$allocator@V?$basic_json@Vmap@std@@Vvector@2@V?$basic_string@DU?$char_traits@D@std@@V?$allocator@D@2@@2@_N_J_KNVallocator@2@Uadl_serializer@json_abi_v3_11_3@nlohmann@@V?$vector@EV?$allocator@E@std@@@2@X@json_abi_v3_11_3@nlohmann@@@0@@Z
	??$_Uninitialized_copy@PEBV?$json_ref@V?$basic_json@Vmap@std@@Vvector@2@V?$basic_string@DU?$char_traits@D@std@@V?$allocator@D@2@@2@_N_J_KNVallocator@2@Uadl_serializer@json_abi_v3_11_3@nlohmann@@V?$vector@EV?$allocator@E@std@@@2@X@json_abi_v3_11_3@nlohmann@@@detail@json_abi_v3_11_3@nlohmann@@PEBV1234@V?$allocator@V?$basic_json@Vmap@std@@Vvector@2@V?$basic_string@DU?$char_traits@D@std@@V?$allocator@D@2@@2@_N_J_KNVallocator@2@Uadl_serializer@json_abi_v3_11_3@nlohmann@@V?$vector@EV?$allocator@E@std@@@2@X@json_abi_v3_11_3@nlohmann@@@std@@@std@@YAPEAV?$basic_json@Vmap@std@@Vvector@2@V?$basic_string@DU?$char_traits@D@std@@V?$allocator@D@2@@2@_N_J_KNVallocator@2@Uadl_serializer@json_abi_v3_11_3@nlohmann@@V?$vector@EV?$allocator@E@std@@@2@X@json_abi_v3_11_3@nlohmann@@PEBV?$json_ref@V?$basic_json@Vmap@std@@Vvector@2@V?$basic_string@DU?$char_traits@D@std@@V?$allocator@D@2@@2@_N_J_KNVallocator@2@Uadl_serializer@json_abi_v3_11_3@nlohmann@@V?$vector@EV?$allocator@E@std@@@2@X@json_abi_v3_11_3@nlohmann@@@detail@23@0PEAV123@AEAV?$allocator@V?$basic_json@Vmap@std@@Vvector@2@V?$basic_string@DU?$char_traits@D@std@@V?$allocator@D@2@@2@_N_J_KNVallocator@2@Uadl_serializer@json_abi_v3_11_3@nlohmann@@V?$vector@EV?$allocator@E@std@@@2@X@json_abi_v3_11_3@nlohmann@@@0@@Z
	??$_Uninitialized_copy_n@PEAUBinding@vrc@@V?$allocator@UBinding@vrc@@@std@@@std@@YAPEAUBinding@vrc@@PEAU12@_K0AEAV?$allocator@UBinding@vrc@@@0@@Z
	??$_Uninitialized_copy_unchecked@PEAPEAULatencySnapshot@vrc@@PEAPEAU12@@std@@YAPEAPEAULatencySnapshot@vrc@@PEAPEAU12@QEAPEAU12@0@Z
	??$_Uninitialized_copy_unchecked@PEAPEAUPerfSample@vrc@@PEAPEAU12@@std@@YAPEAPEAUPerfSample@vrc@@PEAPEAU12@QEAPEAU12@0@Z
	??$_Uninitialized_copy_unchecked@PEAPEAURotationSample@LatencyCompensator@vrc@@PEAPEAU123@@std@@YAPEAPEAURotationSample@LatencyCompensator@vrc@@PEAPEAU123@QEAPEAU123@0@Z
	??$_Uninitialized_copy_unchecked@PEAPEAUTrackingSample@vrc@@PEAPEAU12@@std@@YAPEAPEAUTrackingSample@vrc@@PEAPEAU12@QEAPEAU12@0@Z
	??$_Uninitialized_fill_n@V?$allocator@I@std@@@std@@YAPEAIPEAI_KAEBIAEAV?$allocator@I@0@@Z
	??$_Uninitialized_fill_n@V?$allocator@UXrExtensionProperties@@@std@@@std@@YAPEAUXrExtensionProperties@@PEAU1@_KAEBU1@AEAV?$allocator@UXrExtensionProperties@@@0@@Z
	??$_Uninitialized_fill_n@V?$allocator@UXrSwapchainImageD3D11KHR@@@std@@@std@@YAPEAUXrSwapchainImageD3D11KHR@@PEAU1@_KAEBU1@AEAV?$allocator@UXrSwapchainImageD3D11KHR@@@0@@Z
	??$_Uninitialized_fill_n@V?$allocator@UXrSwapchainImageD3D12KHR@@@std@@@std@@YAPEAUXrSwapchainImageD3D12KHR@@PEAU1@_KAEBU1@AEAV?$allocator@UXrSwapchainImageD3D12KHR@@@0@@Z
	??$_Uninitialized_fill_n@V?$allocator@UXrViewConfigurationView@@@std@@@std@@YAPEAUXrViewConfigurationView@@PEAU1@_KAEBU1@AEAV?$allocator@UXrViewConfigurationView@@@0@@Z
	??$_Uninitialized_move@PEADV?$allocator@D@std@@@std@@YAPEADQEAD0PEADAEAV?$allocator@D@0@@Z
	??$_Uninitialized_move@PEAIV?$allocator@I@std@@@std@@YAPEAIQEAI0PEAIAEAV?$allocator@I@0@@Z
	??$_Uninitialized_move@PEANV?$allocator@N@std@@@std@@YAPEANQEAN0PEANAEAV?$allocator@N@0@@Z
	??$_Uninitialized_move@PEAPEAV?$basic_json@Vmap@std@@Vvector@2@V?$basic_string@DU?$char_traits@D@std@@V?$allocator@D@2@@2@_N_J_KNVallocator@2@Uadl_serializer@json_abi_v3_11_3@nlohmann@@V?$vector@EV?$allocator@E@std@@@2@X@json_abi_v3_11_3@nlohmann@@V?$allocator@PEAV?$basic_json@Vmap@std@@Vvector@2@V?$basic_string@DU?$char_traits@D@std@@V?$allocator@D@2@@2@_N_J_KNVallocator@2@Uadl_serializer@json_abi_v3_11_3@nlohmann@@V?$vector@EV?$allocator@E@std@@@2@X@json_abi_v3_11_3@nlohmann@@@std@@@std@@YAPEAPEAV?$basic_json@Vmap@std@@Vvector@2@V?$basic_string@DU?$char_traits@D@std@@V?$allocator@D@2@@2@_N_J_KNVallocator@2@Uadl_serializer@json_abi_v3_11_3@nlohmann@@V?$vector@EV?$allocator@E@std@@@2@X@json_abi_v3_11_3@nlohmann@@QEAPEAV123@0PEAPEAV123@AEAV?$allocator@PEAV?$basic_json@Vmap@std@@Vvector@2@V?$basic_string@DU?$char_traits@D@std@@V?$allocator@D@2@@2@_N_J_KNVallocator@2@Uadl_serializer@json_abi_v3_11_3@nlohmann@@V?$vector@EV?$allocator@E@std@@@2@X@json_abi_v3_11_3@nlohmann@@@0@@Z
	??$_Uninitialized_move@PEAPEAXV?$allocator@PEAX@std@@@std@@YAPEAPEAXQEAPEAX0PEAPEAXAEAV?$allocator@PEAX@0@@Z
	??$_Uninitialized_move@PEAPEBDV?$allocator@PEBD@std@@@std@@YAPEAPEBDQEAPEBD0PEAPEBDAEAV?$allocator@PEBD@0@@Z
	??$_Uninitialized_move@PEAU?$pair@PEAXP6AJPEAUIDXGISwapChain@@II@Z@std@@V?$allocator@U?$pair@PEAXP6AJPEAUIDXGISwapChain@@II@Z@std@@@2@@std@@YAPEAU?$pair@PEAXP6AJPEAUIDXGISwapChain@@II@Z@0@QEAU10@0PEAU10@AEAV?$allocator@U?$pair@PEAXP6AJPEAUIDXGISwapChain@@II@Z@std@@@0@@Z
	??$_Uninitialized_move@PEAUBinding@vrc@@V?$allocator@UBinding@vrc@@@std@@@std@@YAPEAUBinding@vrc@@QEAU12@0PEAU12@AEAV?$allocator@UBinding@vrc@@@0@@Z
	??$_Uninitialized_move@PEAUD3D12_CPU_DESCRIPTOR_HANDLE@@V?$allocator@UD3D12_CPU_DESCRIPTOR_HANDLE@@@std@@@std@@YAPEAUD3D12_CPU_DESCRIPTOR_HANDLE@@QEAU1@0PEAU1@AEAV?$allocator@UD3D12_CPU_DESCRIPTOR_HANDLE@@@0@@Z
	??$_Uninitialized_move@PEAUXrActionSuggestedBinding@@V?$allocator@UXrActionSuggestedBinding@@@std@@@std@@YAPEAUXrActionSuggestedBinding@@QEAU1@0PEAU1@AEAV?$allocator@UXrActionSuggestedBinding@@@0@@Z
	??$_Uninitialized_move@PEAUXrSwapchainImageD3D11KHR@@V?$allocator@UXrSwapchainImageD3D11KHR@@@std@@@std@@YAPEAUXrSwapchainImageD3D11KHR@@QEAU1@0PEAU1@AEAV?$allocator@UXrSwapchainImageD3D11KHR@@@0@@Z
	??$_Uninitialized_move@PEAUXrSwapchainImageD3D12KHR@@V?$allocator@UXrSwapchainImageD3D12KHR@@@std@@@std@@YAPEAUXrSwapchainImageD3D12KHR@@QEAU1@0PEAU1@AEAV?$allocator@UXrSwapchainImageD3D12KHR@@@0@@Z
	??$_Uninitialized_move@PEAV?$basic_json@Vmap@std@@Vvector@2@V?$basic_string@DU?$char_traits@D@std@@V?$allocator@D@2@@2@_N_J_KNVallocator@2@Uadl_serializer@json_abi_v3_11_3@nlohmann@@V?$vector@EV?$allocator@E@std@@@2@X@json_abi_v3_11_3@nlohmann@@V?$allocator@V?$basic_json@Vmap@std@@Vvector@2@V?$basic_string@DU?$char_traits@D@std@@V?$allocator@D@2@@2@_N_J_KNVallocator@2@Uadl_serializer@json_abi_v3_11_3@nlohmann@@V?$vector@EV?$allocator@E@std@@@2@X@json_abi_v3_11_3@nlohmann@@@std@@@std@@YAPEAV?$basic_json@Vmap@std@@Vvector@2@V?$basic_string@DU?$char_traits@D@std@@V?$allocator@D@2@@2@_N_J_KNVallocator@2@Uadl_serializer@json_abi_v3_11_3@nlohmann@@V?$vector@EV?$allocator@E@std@@@2@X@json_abi_v3_11_3@nlohmann@@QEAV123@0PEAV123@AEAV?$allocator@V?$basic_json@Vmap@std@@Vvector@2@V?$basic_string@DU?$char_traits@D@std@@V?$allocator@D@2@@2@_N_J_KNVallocator@2@Uadl_serializer@json_abi_v3_11_3@nlohmann@@V?$vector@EV?$allocator@E@std@@@2@X@json_abi_v3_11_3@nlohmann@@@0@@Z
	??$_Uninitialized_move@PEAV?$basic_string@DU?$char_traits@D@std@@V?$allocator@D@2@@std@@V?$allocator@V?$basic_string@DU?$char_traits@D@std@@V?$allocator@D@2@@std@@@2@@std@@YAPEAV?$basic_string@DU?$char_traits@D@std@@V?$allocator@D@2@@0@QEAV10@0PEAV10@AEAV?$allocator@V?$basic_string@DU?$char_traits@D@std@@V?$allocator@D@2@@std@@@0@@Z
	??$_Uninitialized_value_construct_n_unchecked1@PEAPEAULatencySnapshot@vrc@@_K@std@@YAPEAPEAULatencySnapshot@vrc@@PEAPEAU12@_K@Z
	??$_Uninitialized_value_construct_n_unchecked1@PEAPEAUPerfSample@vrc@@_K@std@@YAPEAPEAUPerfSample@vrc@@PEAPEAU12@_K@Z
	??$_Uninitialized_value_construct_n_unchecked1@PEAPEAURotationSample@LatencyCompensator@vrc@@_K@std@@YAPEAPEAURotationSample@LatencyCompensator@vrc@@PEAPEAU123@_K@Z
	??$_Uninitialized_value_construct_n_unchecked1@PEAPEAUTrackingSample@vrc@@_K@std@@YAPEAPEAUTrackingSample@vrc@@PEAPEAU12@_K@Z
	??$_Unwrap_iter@PEADPEAD@ranges@std@@YA?A_T$$QEAPEAD@Z
	??$_Unwrap_iter@PEAEPEAE@ranges@std@@YA?A_T$$QEAPEAE@Z
	??$_Unwrap_iter@PEAV?$basic_json@Vmap@std@@Vvector@2@V?$basic_string@DU?$char_traits@D@std@@V?$allocator@D@2@@2@_N_J_KNVallocator@2@Uadl_serializer@json_abi_v3_11_3@nlohmann@@V?$vector@EV?$allocator@E@std@@@2@X@json_abi_v3_11_3@nlohmann@@PEAV123@@ranges@std@@YA?A_T$$QEAPEAV?$basic_json@Vmap@std@@Vvector@2@V?$basic_string@DU?$char_traits@D@std@@V?$allocator@D@2@@2@_N_J_KNVallocator@2@Uadl_serializer@json_abi_v3_11_3@nlohmann@@V?$vector@EV?$allocator@E@std@@@2@X@json_abi_v3_11_3@nlohmann@@@Z
	??$_Unwrap_iter@PEBV?$json_ref@V?$basic_json@Vmap@std@@Vvector@2@V?$basic_string@DU?$char_traits@D@std@@V?$allocator@D@2@@2@_N_J_KNVallocator@2@Uadl_serializer@json_abi_v3_11_3@nlohmann@@V?$vector@EV?$allocator@E@std@@@2@X@json_abi_v3_11_3@nlohmann@@@detail@json_abi_v3_11_3@nlohmann@@PEBV1234@@ranges@std@@YA?A_T$$QEAPEBV?$json_ref@V?$basic_json@Vmap@std@@Vvector@2@V?$basic_string@DU?$char_traits@D@std@@V?$allocator@D@2@@2@_N_J_KNVallocator@2@Uadl_serializer@json_abi_v3_11_3@nlohmann@@V?$vector@EV?$allocator@E@std@@@2@X@json_abi_v3_11_3@nlohmann@@@detail@json_abi_v3_11_3@nlohmann@@@Z
	??$_Unwrap_iter@V?$_String_view_iterator@U?$char_traits@D@std@@@std@@V12@@ranges@std@@YA?A_T$$QEAV?$_String_view_iterator@U?$char_traits@D@std@@@1@@Z
	??$_Unwrap_range_iter@AEBV?$basic_string_view@DU?$char_traits@D@std@@@std@@V?$_String_view_iterator@U?$char_traits@D@std@@@2@@ranges@std@@YA?A_T$$QEAV?$_String_view_iterator@U?$char_traits@D@std@@@1@@Z
	??$_Unwrap_sent@PEADPEAD@ranges@std@@YA?A_T$$QEAPEAD@Z
	??$_Unwrap_sent@PEAEPEAE@ranges@std@@YA?A_T$$QEAPEAE@Z
	??$_Unwrap_sent@PEAV?$basic_json@Vmap@std@@Vvector@2@V?$basic_string@DU?$char_traits@D@std@@V?$allocator@D@2@@2@_N_J_KNVallocator@2@Uadl_serializer@json_abi_v3_11_3@nlohmann@@V?$vector@EV?$allocator@E@std@@@2@X@json_abi_v3_11_3@nlohmann@@PEAV123@@ranges@std@@YA?A_T$$QEAPEAV?$basic_json@Vmap@std@@Vvector@2@V?$basic_string@DU?$char_traits@D@std@@V?$allocator@D@2@@2@_N_J_KNVallocator@2@Uadl_serializer@json_abi_v3_11_3@nlohmann@@V?$vector@EV?$allocator@E@std@@@2@X@json_abi_v3_11_3@nlohmann@@@Z
	??$_Unwrap_sent@PEBV?$json_ref@V?$basic_json@Vmap@std@@Vvector@2@V?$basic_string@DU?$char_traits@D@std@@V?$allocator@D@2@@2@_N_J_KNVallocator@2@Uadl_serializer@json_abi_v3_11_3@nlohmann@@V?$vector@EV?$allocator@E@std@@@2@X@json_abi_v3_11_3@nlohmann@@@detail@json_abi_v3_11_3@nlohmann@@PEBV1234@@ranges@std@@YA?A_T$$QEAPEBV?$json_ref@V?$basic_json@Vmap@std@@Vvector@2@V?$basic_string@DU?$char_traits@D@std@@V?$allocator@D@2@@2@_N_J_KNVallocator@2@Uadl_serializer@json_abi_v3_11_3@nlohmann@@V?$vector@EV?$allocator@E@std@@@2@X@json_abi_v3_11_3@nlohmann@@@detail@json_abi_v3_11_3@nlohmann@@@Z
	??$_Visit@U?$_Arg_formatter@V?$back_insert_iterator@V?$_Fmt_buffer@D@std@@@std@@D@std@@@?$basic_format_arg@V?$basic_format_context@V?$back_insert_iterator@V?$_Fmt_buffer@D@std@@@std@@D@std@@@std@@QEAA?A_T$$QEAU?$_Arg_formatter@V?$back_insert_iterator@V?$_Fmt_buffer@D@std@@@std@@D@1@@Z
	??$_Visit@U?$_Default_arg_formatter@V?$back_insert_iterator@V?$_Fmt_buffer@D@std@@@std@@D@std@@@?$basic_format_arg@V?$basic_format_context@V?$back_insert_iterator@V?$_Fmt_buffer@D@std@@@std@@D@std@@@std@@QEAA?A_T$$QEAU?$_Default_arg_formatter@V?$back_insert_iterator@V?$_Fmt_buffer@D@std@@@std@@D@1@@Z
	??$_Visit@V_Precision_checker@std@@@?$basic_format_arg@V?$basic_format_context@V?$back_insert_iterator@V?$_Fmt_buffer@D@std@@@std@@D@std@@@std@@QEAA?A_T$$QEAV_Precision_checker@1@@Z
	??$_Visit@V_Width_checker@std@@@?$basic_format_arg@V?$basic_format_context@V?$back_insert_iterator@V?$_Fmt_buffer@D@std@@@std@@D@std@@@std@@QEAA?A_T$$QEAV_Width_checker@1@@Z
	??$_Widen_and_copy@DV?$back_insert_iterator@V?$_Fmt_buffer@D@std@@@std@@@std@@YA?AV?$back_insert_iterator@V?$_Fmt_buffer@D@std@@@0@PEBDQEBDV10@@Z
	??$_Write_aligned@V?$back_insert_iterator@V?$_Fmt_buffer@D@std@@@std@@U?$_Basic_format_specs@D@2@AEAV<lambda_1>@?1???$_Fmt_write@DV?$back_insert_iterator@V?$_Fmt_buffer@D@std@@@std@@@2@YA?AV12@V12@QEBXAEBU32@V_Lazy_locale@2@@Z@@std@@YA?AV?$back_insert_iterator@V?$_Fmt_buffer@D@std@@@0@V10@HAEBU?$_Basic_format_specs@D@0@W4_Fmt_align@0@AEAV<lambda_1>@?1???$_Fmt_write@DV?$back_insert_iterator@V?$_Fmt_buffer@D@std@@@std@@@0@YA?AV10@0QEBX1V_Lazy_locale@0@@Z@@Z
	??$_Write_aligned@V?$back_insert_iterator@V?$_Fmt_buffer@D@std@@@std@@U?$_Basic_format_specs@D@2@AEAV<lambda_1>@?1???$_Fmt_write@DV?$back_insert_iterator@V?$_Fmt_buffer@D@std@@@std@@M@2@YA?AV12@V12@MAEBU32@V_Lazy_locale@2@@Z@@std@@YA?AV?$back_insert_iterator@V?$_Fmt_buffer@D@std@@@0@V10@HAEBU?$_Basic_format_specs@D@0@W4_Fmt_align@0@AEAV<lambda_1>@?1???$_Fmt_write@DV?$back_insert_iterator@V?$_Fmt_buffer@D@std@@@std@@M@0@YA?AV10@0M1V_Lazy_locale@0@@Z@@Z
	??$_Write_aligned@V?$back_insert_iterator@V?$_Fmt_buffer@D@std@@@std@@U?$_Basic_format_specs@D@2@AEAV<lambda_1>@?1???$_Fmt_write@DV?$back_insert_iterator@V?$_Fmt_buffer@D@std@@@std@@N@2@YA?AV12@V12@NAEBU32@V_Lazy_locale@2@@Z@@std@@YA?AV?$back_insert_iterator@V?$_Fmt_buffer@D@std@@@0@V10@HAEBU?$_Basic_format_specs@D@0@W4_Fmt_align@0@AEAV<lambda_1>@?1???$_Fmt_write@DV?$back_insert_iterator@V?$_Fmt_buffer@D@std@@@std@@N@0@YA?AV10@0N1V_Lazy_locale@0@@Z@@Z
	??$_Write_aligned@V?$back_insert_iterator@V?$_Fmt_buffer@D@std@@@std@@U?$_Basic_format_specs@D@2@AEAV<lambda_1>@?1???$_Fmt_write@DV?$back_insert_iterator@V?$_Fmt_buffer@D@std@@@std@@O@2@YA?AV12@V12@OAEBU32@V_Lazy_locale@2@@Z@@std@@YA?AV?$back_insert_iterator@V?$_Fmt_buffer@D@std@@@0@V10@HAEBU?$_Basic_format_specs@D@0@W4_Fmt_align@0@AEAV<lambda_1>@?1???$_Fmt_write@DV?$back_insert_iterator@V?$_Fmt_buffer@D@std@@@std@@O@0@YA?AV10@0O1V_Lazy_locale@0@@Z@@Z
	??$_Write_aligned@V?$back_insert_iterator@V?$_Fmt_buffer@D@std@@@std@@U?$_Basic_format_specs@D@2@AEAV<lambda_1>@?1???$_Write_integral@DV?$back_insert_iterator@V?$_Fmt_buffer@D@std@@@std@@E@2@YA?AV12@V12@EU32@V_Lazy_locale@2@@Z@@std@@YA?AV?$back_insert_iterator@V?$_Fmt_buffer@D@std@@@0@V10@HAEBU?$_Basic_format_specs@D@0@W4_Fmt_align@0@AEAV<lambda_1>@?1???$_Write_integral@DV?$back_insert_iterator@V?$_Fmt_buffer@D@std@@@std@@E@0@YA?AV10@0EU20@V_Lazy_locale@0@@Z@@Z
	??$_Write_aligned@V?$back_insert_iterator@V?$_Fmt_buffer@D@std@@@std@@U?$_Basic_format_specs@D@2@AEAV<lambda_1>@?1???$_Write_integral@DV?$back_insert_iterator@V?$_Fmt_buffer@D@std@@@std@@H@2@YA?AV12@V12@HU32@V_Lazy_locale@2@@Z@@std@@YA?AV?$back_insert_iterator@V?$_Fmt_buffer@D@std@@@0@V10@HAEBU?$_Basic_format_specs@D@0@W4_Fmt_align@0@AEAV<lambda_1>@?1???$_Write_integral@DV?$back_insert_iterator@V?$_Fmt_buffer@D@std@@@std@@H@0@YA?AV10@0HU20@V_Lazy_locale@0@@Z@@Z
	??$_Write_aligned@V?$back_insert_iterator@V?$_Fmt_buffer@D@std@@@std@@U?$_Basic_format_specs@D@2@AEAV<lambda_1>@?1???$_Write_integral@DV?$back_insert_iterator@V?$_Fmt_buffer@D@std@@@std@@I@2@YA?AV12@V12@IU32@V_Lazy_locale@2@@Z@@std@@YA?AV?$back_insert_iterator@V?$_Fmt_buffer@D@std@@@0@V10@HAEBU?$_Basic_format_specs@D@0@W4_Fmt_align@0@AEAV<lambda_1>@?1???$_Write_integral@DV?$back_insert_iterator@V?$_Fmt_buffer@D@std@@@std@@I@0@YA?AV10@0IU20@V_Lazy_locale@0@@Z@@Z
	??$_Write_aligned@V?$back_insert_iterator@V?$_Fmt_buffer@D@std@@@std@@U?$_Basic_format_specs@D@2@AEAV<lambda_1>@?1???$_Write_integral@DV?$back_insert_iterator@V?$_Fmt_buffer@D@std@@@std@@_J@2@YA?AV12@V12@_JU32@V_Lazy_locale@2@@Z@@std@@YA?AV?$back_insert_iterator@V?$_Fmt_buffer@D@std@@@0@V10@HAEBU?$_Basic_format_specs@D@0@W4_Fmt_align@0@AEAV<lambda_1>@?1???$_Write_integral@DV?$back_insert_iterator@V?$_Fmt_buffer@D@std@@@std@@_J@0@YA?AV10@0_JU20@V_Lazy_locale@0@@Z@@Z
	??$_Write_aligned@V?$back_insert_iterator@V?$_Fmt_buffer@D@std@@@std@@U?$_Basic_format_specs@D@2@AEAV<lambda_1>@?1???$_Write_integral@DV?$back_insert_iterator@V?$_Fmt_buffer@D@std@@@std@@_K@2@YA?AV12@V12@_KU32@V_Lazy_locale@2@@Z@@std@@YA?AV?$back_insert_iterator@V?$_Fmt_buffer@D@std@@@0@V10@HAEBU?$_Basic_format_specs@D@0@W4_Fmt_align@0@AEAV<lambda_1>@?1???$_Write_integral@DV?$back_insert_iterator@V?$_Fmt_buffer@D@std@@@std@@_K@0@YA?AV10@0_KU20@V_Lazy_locale@0@@Z@@Z
	??$_Write_aligned@V?$back_insert_iterator@V?$_Fmt_buffer@D@std@@@std@@U?$_Basic_format_specs@D@2@V<lambda_1>@?1???$_Fmt_write@DV?$back_insert_iterator@V?$_Fmt_buffer@D@std@@@std@@@2@YA?AV12@V12@V?$basic_string_view@DU?$char_traits@D@std@@@2@AEBU32@V_Lazy_locale@2@@Z@@std@@YA?AV?$back_insert_iterator@V?$_Fmt_buffer@D@std@@@0@V10@HAEBU?$_Basic_format_specs@D@0@W4_Fmt_align@0@$$QEAV<lambda_1>@?1???$_Fmt_write@DV?$back_insert_iterator@V?$_Fmt_buffer@D@std@@@std@@@0@YA?AV10@0V?$basic_string_view@DU?$char_traits@D@std@@@0@1V_Lazy_locale@0@@Z@@Z
	??$_Write_integral@DV?$back_insert_iterator@V?$_Fmt_buffer@D@std@@@std@@E@std@@YA?AV?$back_insert_iterator@V?$_Fmt_buffer@D@std@@@0@V10@EU?$_Basic_format_specs@D@0@V_Lazy_locale@0@@Z
	??$_Write_integral@DV?$back_insert_iterator@V?$_Fmt_buffer@D@std@@@std@@H@std@@YA?AV?$back_insert_iterator@V?$_Fmt_buffer@D@std@@@0@V10@HU?$_Basic_format_specs@D@0@V_Lazy_locale@0@@Z
	??$_Write_integral@DV?$back_insert_iterator@V?$_Fmt_buffer@D@std@@@std@@I@std@@YA?AV?$back_insert_iterator@V?$_Fmt_buffer@D@std@@@0@V10@IU?$_Basic_format_specs@D@0@V_Lazy_locale@0@@Z
	??$_Write_integral@DV?$back_insert_iterator@V?$_Fmt_buffer@D@std@@@std@@_J@std@@YA?AV?$back_insert_iterator@V?$_Fmt_buffer@D@std@@@0@V10@_JU?$_Basic_format_specs@D@0@V_Lazy_locale@0@@Z
	??$_Write_integral@DV?$back_insert_iterator@V?$_Fmt_buffer@D@std@@@std@@_K@std@@YA?AV?$back_insert_iterator@V?$_Fmt_buffer@D@std@@@0@V10@_KU?$_Basic_format_specs@D@0@V_Lazy_locale@0@@Z
	??$_Write_separated_integer@DV?$back_insert_iterator@V?$_Fmt_buffer@D@std@@@std@@@std@@YA?AV?$back_insert_iterator@V?$_Fmt_buffer@D@std@@@0@PEBDQEBDV?$basic_string_view@DU?$char_traits@D@std@@@0@DHV10@@Z
	??$_Write_sign@V?$back_insert_iterator@V?$_Fmt_buffer@D@std@@@std@@@std@@YA?AV?$back_insert_iterator@V?$_Fmt_buffer@D@std@@@0@V10@W4_Fmt_sign@0@_N@Z
	??$_Zero_range@PEAPEAULatencySnapshot@vrc@@@std@@YAPEAPEAULatencySnapshot@vrc@@QEAPEAU12@0@Z
	??$_Zero_range@PEAPEAUPerfSample@vrc@@@std@@YAPEAPEAUPerfSample@vrc@@QEAPEAU12@0@Z
	??$_Zero_range@PEAPEAURotationSample@LatencyCompensator@vrc@@@std@@YAPEAPEAURotationSample@LatencyCompensator@vrc@@QEAPEAU123@0@Z
	??$_Zero_range@PEAPEAUTrackingSample@vrc@@@std@@YAPEAPEAUTrackingSample@vrc@@QEAPEAU12@0@Z
	??$__append_c_digits@D@std@@YAXIIQEAD@Z
	??$__append_n_digits@D@std@@YAXIIQEAD@Z
	??$__append_nine_digits@D@std@@YAXIQEAD@Z
	??$__d2fixed_buffered_n@D@std@@YA?AU?$pair@PEADW4errc@std@@@0@PEADQEADNI@Z
	??$__d2s_buffered_n@D@std@@YA?AU?$pair@PEADW4errc@std@@@0@QEAD0NW4chars_format@0@@Z
	??$__f2s_buffered_n@D@std@@YA?AU?$pair@PEADW4errc@std@@@0@QEAD0MW4chars_format@0@@Z
	??$__to_chars@D@std@@YA?AU?$pair@PEADW4errc@std@@@0@QEAD0U__floating_decimal_32@0@W4chars_format@0@II@Z
	??$__to_chars@D@std@@YA?AU?$pair@PEADW4errc@std@@@0@QEAD0U__floating_decimal_64@0@W4chars_format@0@N@Z
	??$addressof@$$CBH@std@@YAPEBHAEBH@Z
	??$addressof@$$CBI@std@@YAPEBIAEBI@Z
	??$addressof@$$CBM@std@@YAPEBMAEBM@Z
	??$addressof@$$CBU?$pair@$$CBV?$basic_string@DU?$char_traits@D@std@@V?$allocator@D@2@@std@@UConfigProfile@vrc@@@std@@@std@@YAPEBU?$pair@$$CBV?$basic_string@DU?$char_traits@D@std@@V?$allocator@D@2@@std@@UConfigProfile@vrc@@@0@AEBU10@@Z
	??$addressof@$$CBU?$pair@$$CBV?$basic_string@DU?$char_traits@D@std@@V?$allocator@D@2@@std@@UInputProfile@vrc@@@std@@@std@@YAPEBU?$pair@$$CBV?$basic_string@DU?$char_traits@D@std@@V?$allocator@D@2@@std@@UInputProfile@vrc@@@0@AEBU10@@Z
	??$addressof@$$CBU?$pair@$$CBV?$basic_string@DU?$char_traits@D@std@@V?$allocator@D@2@@std@@V?$basic_json@Vmap@std@@Vvector@2@V?$basic_string@DU?$char_traits@D@std@@V?$allocator@D@2@@2@_N_J_KNVallocator@2@Uadl_serializer@json_abi_v3_11_3@nlohmann@@V?$vector@EV?$allocator@E@std@@@2@X@json_abi_v3_11_3@nlohmann@@@std@@@std@@YAPEBU?$pair@$$CBV?$basic_string@DU?$char_traits@D@std@@V?$allocator@D@2@@std@@V?$basic_json@Vmap@std@@Vvector@2@V?$basic_string@DU?$char_traits@D@std@@V?$allocator@D@2@@2@_N_J_KNVallocator@2@Uadl_serializer@json_abi_v3_11_3@nlohmann@@V?$vector@EV?$allocator@E@std@@@2@X@json_abi_v3_11_3@nlohmann@@@0@AEBU10@@Z
	??$addressof@$$CBU?$pair@$$CBW4InputAction@vrc@@M@std@@@std@@YAPEBU?$pair@$$CBW4InputAction@vrc@@M@0@AEBU10@@Z
	??$addressof@$$CBUPerfSample@vrc@@@std@@YAPEBUPerfSample@vrc@@AEBU12@@Z
	??$addressof@$$CBV<lambda_1>@?1??initialize@VRConverter@vrc@@QEAA_NXZ@@std@@YAPEBV<lambda_1>@?1??initialize@VRConverter@vrc@@QEAA_NXZ@AEBV1?1??234@QEAA_NXZ@@Z
	??$addressof@$$CBV<lambda_2>@?1??initialize@VRConverter@vrc@@QEAA_NXZ@@std@@YAPEBV<lambda_2>@?1??initialize@VRConverter@vrc@@QEAA_NXZ@AEBV1?1??234@QEAA_NXZ@@Z
	??$addressof@$$CBV?$_Deque_val@U?$_Deque_simple_types@UPerfSample@vrc@@@std@@@std@@@std@@YAPEBV?$_Deque_val@U?$_Deque_simple_types@UPerfSample@vrc@@@std@@@0@AEBV10@@Z
	??$addressof@$$CBV?$_List_val@U?$_List_simple_types@U?$pair@$$CBV?$basic_string@DU?$char_traits@D@std@@V?$allocator@D@2@@std@@UConfigProfile@vrc@@@std@@@std@@@std@@@std@@YAPEBV?$_List_val@U?$_List_simple_types@U?$pair@$$CBV?$basic_string@DU?$char_traits@D@std@@V?$allocator@D@2@@std@@UConfigProfile@vrc@@@std@@@std@@@0@AEBV10@@Z
	??$addressof@$$CBV?$_List_val@U?$_List_simple_types@U?$pair@$$CBV?$basic_string@DU?$char_traits@D@std@@V?$allocator@D@2@@std@@UInputProfile@vrc@@@std@@@std@@@std@@@std@@YAPEBV?$_List_val@U?$_List_simple_types@U?$pair@$$CBV?$basic_string@DU?$char_traits@D@std@@V?$allocator@D@2@@std@@UInputProfile@vrc@@@std@@@std@@@0@AEBV10@@Z
	??$addressof@$$CBV?$_List_val@U?$_List_simple_types@U?$pair@$$CBW4InputAction@vrc@@M@std@@@std@@@std@@@std@@YAPEBV?$_List_val@U?$_List_simple_types@U?$pair@$$CBW4InputAction@vrc@@M@std@@@std@@@0@AEBV10@@Z
	??$addressof@$$CBV?$_Tree_val@U?$_Tree_simple_types@U?$pair@$$CBV?$basic_string@DU?$char_traits@D@std@@V?$allocator@D@2@@std@@V?$basic_json@Vmap@std@@Vvector@2@V?$basic_string@DU?$char_traits@D@std@@V?$allocator@D@2@@2@_N_J_KNVallocator@2@Uadl_serializer@json_abi_v3_11_3@nlohmann@@V?$vector@EV?$allocator@E@std@@@2@X@json_abi_v3_11_3@nlohmann@@@std@@@std@@@std@@@std@@YAPEBV?$_Tree_val@U?$_Tree_simple_types@U?$pair@$$CBV?$basic_string@DU?$char_traits@D@std@@V?$allocator@D@2@@std@@V?$basic_json@Vmap@std@@Vvector@2@V?$basic_string@DU?$char_traits@D@std@@V?$allocator@D@2@@2@_N_J_KNVallocator@2@Uadl_serializer@json_abi_v3_11_3@nlohmann@@V?$vector@EV?$allocator@E@std@@@2@X@json_abi_v3_11_3@nlohmann@@@std@@@std@@@0@AEBV10@@Z
	??$addressof@$$CBV?$_Vector_val@U?$_Simple_types@E@std@@@std@@@std@@YAPEBV?$_Vector_val@U?$_Simple_types@E@std@@@0@AEBV10@@Z
	??$addressof@$$CBV?$_Vector_val@U?$_Simple_types@V?$basic_json@Vmap@std@@Vvector@2@V?$basic_string@DU?$char_traits@D@std@@V?$allocator@D@2@@2@_N_J_KNVallocator@2@Uadl_serializer@json_abi_v3_11_3@nlohmann@@V?$vector@EV?$allocator@E@std@@@2@X@json_abi_v3_11_3@nlohmann@@@std@@@std@@@std@@YAPEBV?$_Vector_val@U?$_Simple_types@V?$basic_json@Vmap@std@@Vvector@2@V?$basic_string@DU?$char_traits@D@std@@V?$allocator@D@2@@2@_N_J_KNVallocator@2@Uadl_serializer@json_abi_v3_11_3@nlohmann@@V?$vector@EV?$allocator@E@std@@@2@X@json_abi_v3_11_3@nlohmann@@@std@@@0@AEBV10@@Z
	??$addressof@$$CBV?$basic_string@DU?$char_traits@D@std@@V?$allocator@D@2@@std@@@std@@YAPEBV?$basic_string@DU?$char_traits@D@std@@V?$allocator@D@2@@0@AEBV10@@Z
	??$addressof@$$CBV?$basic_string@_WU?$char_traits@_W@std@@V?$allocator@_W@2@@std@@@std@@YAPEBV?$basic_string@_WU?$char_traits@_W@std@@V?$allocator@_W@2@@0@AEBV10@@Z
	??$addressof@$$CBV?$basic_string_view@DU?$char_traits@D@std@@@std@@@std@@YAPEBV?$basic_string_view@DU?$char_traits@D@std@@@0@AEBV10@@Z
	??$addressof@$$CBV?$codecvt@DDU_Mbstatet@@@std@@@std@@YAPEBV?$codecvt@DDU_Mbstatet@@@0@AEBV10@@Z
	??$addressof@$$CBV?$vector@UBinding@vrc@@V?$allocator@UBinding@vrc@@@std@@@std@@@std@@YAPEBV?$vector@UBinding@vrc@@V?$allocator@UBinding@vrc@@@std@@@0@AEBV10@@Z
	??$addressof@$$CB_K@std@@YAPEB_KAEB_K@Z
	??$addressof@D@std@@YAPEADAEAD@Z
	??$addressof@N@std@@YAPEANAEAN@Z
	??$addressof@PEAD@std@@YAPEAPEADAEAPEAD@Z
	??$addressof@PEAU?$_List_node@U?$pair@$$CBG_N@std@@PEAX@std@@@std@@YAPEAPEAU?$_List_node@U?$pair@$$CBG_N@std@@PEAX@0@AEAPEAU10@@Z
	??$addressof@PEAU?$_List_node@U?$pair@$$CBV?$basic_string@DU?$char_traits@D@std@@V?$allocator@D@2@@std@@UConfigProfile@vrc@@@std@@PEAX@std@@@std@@YAPEAPEAU?$_List_node@U?$pair@$$CBV?$basic_string@DU?$char_traits@D@std@@V?$allocator@D@2@@std@@UConfigProfile@vrc@@@std@@PEAX@0@AEAPEAU10@@Z
	??$addressof@PEAU?$_List_node@U?$pair@$$CBV?$basic_string@DU?$char_traits@D@std@@V?$allocator@D@2@@std@@UInputProfile@vrc@@@std@@PEAX@std@@@std@@YAPEAPEAU?$_List_node@U?$pair@$$CBV?$basic_string@DU?$char_traits@D@std@@V?$allocator@D@2@@std@@UInputProfile@vrc@@@std@@PEAX@0@AEAPEAU10@@Z
	??$addressof@PEAU?$_List_node@U?$pair@$$CBV?$basic_string@DU?$char_traits@D@std@@V?$allocator@D@2@@std@@V?$function@$$A6AXXZ@2@@std@@PEAX@std@@@std@@YAPEAPEAU?$_List_node@U?$pair@$$CBV?$basic_string@DU?$char_traits@D@std@@V?$allocator@D@2@@std@@V?$function@$$A6AXXZ@2@@std@@PEAX@0@AEAPEAU10@@Z
	??$addressof@PEAU?$_List_node@U?$pair@$$CBW4InputAction@vrc@@M@std@@PEAX@std@@@std@@YAPEAPEAU?$_List_node@U?$pair@$$CBW4InputAction@vrc@@M@std@@PEAX@0@AEAPEAU10@@Z
	??$addressof@PEAU?$_Tree_node@U?$pair@$$CBV?$basic_string@DU?$char_traits@D@std@@V?$allocator@D@2@@std@@V?$basic_json@Vmap@std@@Vvector@2@V?$basic_string@DU?$char_traits@D@std@@V?$allocator@D@2@@2@_N_J_KNVallocator@2@Uadl_serializer@json_abi_v3_11_3@nlohmann@@V?$vector@EV?$allocator@E@std@@@2@X@json_abi_v3_11_3@nlohmann@@@std@@PEAX@std@@@std@@YAPEAPEAU?$_Tree_node@U?$pair@$$CBV?$basic_string@DU?$char_traits@D@std@@V?$allocator@D@2@@std@@V?$basic_json@Vmap@std@@Vvector@2@V?$basic_string@DU?$char_traits@D@std@@V?$allocator@D@2@@2@_N_J_KNVallocator@2@Uadl_serializer@json_abi_v3_11_3@nlohmann@@V?$vector@EV?$allocator@E@std@@@2@X@json_abi_v3_11_3@nlohmann@@@std@@PEAX@0@AEAPEAU10@@Z
	??$addressof@PEAULatencySnapshot@vrc@@@std@@YAPEAPEAULatencySnapshot@vrc@@AEAPEAU12@@Z
	??$addressof@PEAUPerfSample@vrc@@@std@@YAPEAPEAUPerfSample@vrc@@AEAPEAU12@@Z
	??$addressof@PEAURotationSample@LatencyCompensator@vrc@@@std@@YAPEAPEAURotationSample@LatencyCompensator@vrc@@AEAPEAU123@@Z
	??$addressof@PEAUTrackingSample@vrc@@@std@@YAPEAPEAUTrackingSample@vrc@@AEAPEAU12@@Z
	??$addressof@PEAV?$basic_json@Vmap@std@@Vvector@2@V?$basic_string@DU?$char_traits@D@std@@V?$allocator@D@2@@2@_N_J_KNVallocator@2@Uadl_serializer@json_abi_v3_11_3@nlohmann@@V?$vector@EV?$allocator@E@std@@@2@X@json_abi_v3_11_3@nlohmann@@@std@@YAPEAPEAV?$basic_json@Vmap@std@@Vvector@2@V?$basic_string@DU?$char_traits@D@std@@V?$allocator@D@2@@2@_N_J_KNVallocator@2@Uadl_serializer@json_abi_v3_11_3@nlohmann@@V?$vector@EV?$allocator@E@std@@@2@X@json_abi_v3_11_3@nlohmann@@AEAPEAV123@@Z
	??$addressof@PEAX@std@@YAPEAPEAXAEAPEAX@Z
	??$addressof@PEA_W@std@@YAPEAPEA_WAEAPEA_W@Z
	??$addressof@PEBD@std@@YAPEAPEBDAEAPEBD@Z
	??$addressof@QEBD@std@@YAPEBQEBDAEBQEBD@Z
	??$addressof@QEBX@std@@YAPEBQEBXAEBQEBX@Z
	??$addressof@U?$_Basic_format_specs@D@std@@@std@@YAPEAU?$_Basic_format_specs@D@0@AEAU10@@Z
	??$addressof@U?$pair@$$CBG_N@std@@@std@@YAPEAU?$pair@$$CBG_N@0@AEAU10@@Z
	??$addressof@U?$pair@$$CBV?$basic_string@DU?$char_traits@D@std@@V?$allocator@D@2@@std@@UConfigProfile@vrc@@@std@@@std@@YAPEAU?$pair@$$CBV?$basic_string@DU?$char_traits@D@std@@V?$allocator@D@2@@std@@UConfigProfile@vrc@@@0@AEAU10@@Z
	??$addressof@U?$pair@$$CBV?$basic_string@DU?$char_traits@D@std@@V?$allocator@D@2@@std@@UInputProfile@vrc@@@std@@@std@@YAPEAU?$pair@$$CBV?$basic_string@DU?$char_traits@D@std@@V?$allocator@D@2@@std@@UInputProfile@vrc@@@0@AEAU10@@Z
	??$addressof@U?$pair@$$CBV?$basic_string@DU?$char_traits@D@std@@V?$allocator@D@2@@std@@V?$basic_json@Vmap@std@@Vvector@2@V?$basic_string@DU?$char_traits@D@std@@V?$allocator@D@2@@2@_N_J_KNVallocator@2@Uadl_serializer@json_abi_v3_11_3@nlohmann@@V?$vector@EV?$allocator@E@std@@@2@X@json_abi_v3_11_3@nlohmann@@@std@@@std@@YAPEAU?$pair@$$CBV?$basic_string@DU?$char_traits@D@std@@V?$allocator@D@2@@std@@V?$basic_json@Vmap@std@@Vvector@2@V?$basic_string@DU?$char_traits@D@std@@V?$allocator@D@2@@2@_N_J_KNVallocator@2@Uadl_serializer@json_abi_v3_11_3@nlohmann@@V?$vector@EV?$allocator@E@std@@@2@X@json_abi_v3_11_3@nlohmann@@@0@AEAU10@@Z
	??$addressof@U?$pair@$$CBV?$basic_string@DU?$char_traits@D@std@@V?$allocator@D@2@@std@@V?$function@$$A6AXXZ@2@@std@@@std@@YAPEAU?$pair@$$CBV?$basic_string@DU?$char_traits@D@std@@V?$allocator@D@2@@std@@V?$function@$$A6AXXZ@2@@0@AEAU10@@Z
	??$addressof@U?$pair@$$CBW4InputAction@vrc@@M@std@@@std@@YAPEAU?$pair@$$CBW4InputAction@vrc@@M@0@AEAU10@@Z
	??$addressof@U?$pair@PEAXP6AJPEAUIDXGISwapChain@@II@Z@std@@@std@@YAPEAU?$pair@PEAXP6AJPEAUIDXGISwapChain@@II@Z@0@AEAU10@@Z
	??$addressof@UD3D12_CPU_DESCRIPTOR_HANDLE@@@std@@YAPEAUD3D12_CPU_DESCRIPTOR_HANDLE@@AEAU1@@Z
	??$addressof@ULatencySnapshot@vrc@@@std@@YAPEAULatencySnapshot@vrc@@AEAU12@@Z
	??$addressof@UXrActionSuggestedBinding@@@std@@YAPEAUXrActionSuggestedBinding@@AEAU1@@Z
	??$addressof@U_Container_proxy@std@@@std@@YAPEAU_Container_proxy@0@AEAU10@@Z
	??$addressof@V?$_Deque_val@U?$_Deque_simple_types@ULatencySnapshot@vrc@@@std@@@std@@@std@@YAPEAV?$_Deque_val@U?$_Deque_simple_types@ULatencySnapshot@vrc@@@std@@@0@AEAV10@@Z
	??$addressof@V?$_Fmt_buffer@D@std@@@std@@YAPEAV?$_Fmt_buffer@D@0@AEAV10@@Z
	??$addressof@V?$_List_unchecked_iterator@V?$_List_val@U?$_List_simple_types@U?$pair@$$CBG_N@std@@@std@@@std@@@std@@@std@@YAPEAV?$_List_unchecked_iterator@V?$_List_val@U?$_List_simple_types@U?$pair@$$CBG_N@std@@@std@@@std@@@0@AEAV10@@Z
	??$addressof@V?$_List_unchecked_iterator@V?$_List_val@U?$_List_simple_types@U?$pair@$$CBV?$basic_string@DU?$char_traits@D@std@@V?$allocator@D@2@@std@@UConfigProfile@vrc@@@std@@@std@@@std@@@std@@@std@@YAPEAV?$_List_unchecked_iterator@V?$_List_val@U?$_List_simple_types@U?$pair@$$CBV?$basic_string@DU?$char_traits@D@std@@V?$allocator@D@2@@std@@UConfigProfile@vrc@@@std@@@std@@@std@@@0@AEAV10@@Z
	??$addressof@V?$_List_unchecked_iterator@V?$_List_val@U?$_List_simple_types@U?$pair@$$CBV?$basic_string@DU?$char_traits@D@std@@V?$allocator@D@2@@std@@UInputProfile@vrc@@@std@@@std@@@std@@@std@@@std@@YAPEAV?$_List_unchecked_iterator@V?$_List_val@U?$_List_simple_types@U?$pair@$$CBV?$basic_string@DU?$char_traits@D@std@@V?$allocator@D@2@@std@@UInputProfile@vrc@@@std@@@std@@@std@@@0@AEAV10@@Z
	??$addressof@V?$_List_unchecked_iterator@V?$_List_val@U?$_List_simple_types@U?$pair@$$CBV?$basic_string@DU?$char_traits@D@std@@V?$allocator@D@2@@std@@V?$function@$$A6AXXZ@2@@std@@@std@@@std@@@std@@@std@@YAPEAV?$_List_unchecked_iterator@V?$_List_val@U?$_List_simple_types@U?$pair@$$CBV?$basic_string@DU?$char_traits@D@std@@V?$allocator@D@2@@std@@V?$function@$$A6AXXZ@2@@std@@@std@@@std@@@0@AEAV10@@Z
	??$addressof@V?$_List_unchecked_iterator@V?$_List_val@U?$_List_simple_types@U?$pair@$$CBW4InputAction@vrc@@M@std@@@std@@@std@@@std@@@std@@YAPEAV?$_List_unchecked_iterator@V?$_List_val@U?$_List_simple_types@U?$pair@$$CBW4InputAction@vrc@@M@std@@@std@@@std@@@0@AEAV10@@Z
	??$addressof@V?$_String_val@U?$_Simple_types@D@std@@@std@@@std@@YAPEAV?$_String_val@U?$_Simple_types@D@std@@@0@AEAV10@@Z
	??$addressof@V?$_Tree_val@U?$_Tree_simple_types@U?$pair@$$CBV?$basic_string@DU?$char_traits@D@std@@V?$allocator@D@2@@std@@V?$basic_json@Vmap@std@@Vvector@2@V?$basic_string@DU?$char_traits@D@std@@V?$allocator@D@2@@2@_N_J_KNVallocator@2@Uadl_serializer@json_abi_v3_11_3@nlohmann@@V?$vector@EV?$allocator@E@std@@@2@X@json_abi_v3_11_3@nlohmann@@@std@@@std@@@std@@@std@@YAPEAV?$_Tree_val@U?$_Tree_simple_types@U?$pair@$$CBV?$basic_string@DU?$char_traits@D@std@@V?$allocator@D@2@@std@@V?$basic_json@Vmap@std@@Vvector@2@V?$basic_string@DU?$char_traits@D@std@@V?$allocator@D@2@@2@_N_J_KNVallocator@2@Uadl_serializer@json_abi_v3_11_3@nlohmann@@V?$vector@EV?$allocator@E@std@@@2@X@json_abi_v3_11_3@nlohmann@@@std@@@std@@@0@AEAV10@@Z
	??$addressof@V?$_Vector_val@U?$_Simple_types@I@std@@@std@@@std@@YAPEAV?$_Vector_val@U?$_Simple_types@I@std@@@0@AEAV10@@Z
	??$addressof@V?$_Vector_val@U?$_Simple_types@N@std@@@std@@@std@@YAPEAV?$_Vector_val@U?$_Simple_types@N@std@@@0@AEAV10@@Z
	??$addressof@V?$_Vector_val@U?$_Simple_types@V?$basic_json@Vmap@std@@Vvector@2@V?$basic_string@DU?$char_traits@D@std@@V?$allocator@D@2@@2@_N_J_KNVallocator@2@Uadl_serializer@json_abi_v3_11_3@nlohmann@@V?$vector@EV?$allocator@E@std@@@2@X@json_abi_v3_11_3@nlohmann@@@std@@@std@@@std@@YAPEAV?$_Vector_val@U?$_Simple_types@V?$basic_json@Vmap@std@@Vvector@2@V?$basic_string@DU?$char_traits@D@std@@V?$allocator@D@2@@2@_N_J_KNVallocator@2@Uadl_serializer@json_abi_v3_11_3@nlohmann@@V?$vector@EV?$allocator@E@std@@@2@X@json_abi_v3_11_3@nlohmann@@@std@@@0@AEAV10@@Z
	??$addressof@V?$basic_filebuf@DU?$char_traits@D@std@@@std@@@std@@YAPEAV?$basic_filebuf@DU?$char_traits@D@std@@@0@AEAV10@@Z
	??$addressof@V?$basic_format_context@V?$back_insert_iterator@V?$_Fmt_buffer@D@std@@@std@@D@std@@@std@@YAPEAV?$basic_format_context@V?$back_insert_iterator@V?$_Fmt_buffer@D@std@@@std@@D@0@AEAV10@@Z
	??$addressof@V?$basic_json@Vmap@std@@Vvector@2@V?$basic_string@DU?$char_traits@D@std@@V?$allocator@D@2@@2@_N_J_KNVallocator@2@Uadl_serializer@json_abi_v3_11_3@nlohmann@@V?$vector@EV?$allocator@E@std@@@2@X@json_abi_v3_11_3@nlohmann@@@std@@YAPEAV?$basic_json@Vmap@std@@Vvector@2@V?$basic_string@DU?$char_traits@D@std@@V?$allocator@D@2@@2@_N_J_KNVallocator@2@Uadl_serializer@json_abi_v3_11_3@nlohmann@@V?$vector@EV?$allocator@E@std@@@2@X@json_abi_v3_11_3@nlohmann@@AEAV123@@Z
	??$addressof@V?$basic_ostream@DU?$char_traits@D@std@@@std@@@std@@YAPEAV?$basic_ostream@DU?$char_traits@D@std@@@0@AEAV10@@Z
	??$addressof@V?$basic_string@DU?$char_traits@D@std@@V?$allocator@D@2@@std@@@std@@YAPEAV?$basic_string@DU?$char_traits@D@std@@V?$allocator@D@2@@0@AEAV10@@Z
	??$addressof@V?$basic_stringbuf@DU?$char_traits@D@std@@V?$allocator@D@2@@std@@@std@@YAPEAV?$basic_stringbuf@DU?$char_traits@D@std@@V?$allocator@D@2@@0@AEAV10@@Z
	??$addressof@V?$output_string_adapter@DV?$basic_string@DU?$char_traits@D@std@@V?$allocator@D@2@@std@@@detail@json_abi_v3_11_3@nlohmann@@@std@@YAPEAV?$output_string_adapter@DV?$basic_string@DU?$char_traits@D@std@@V?$allocator@D@2@@std@@@detail@json_abi_v3_11_3@nlohmann@@AEAV1234@@Z
	??$addressof@V?$vector@V?$basic_json@Vmap@std@@Vvector@2@V?$basic_string@DU?$char_traits@D@std@@V?$allocator@D@2@@2@_N_J_KNVallocator@2@Uadl_serializer@json_abi_v3_11_3@nlohmann@@V?$vector@EV?$allocator@E@std@@@2@X@json_abi_v3_11_3@nlohmann@@V?$allocator@V?$basic_json@Vmap@std@@Vvector@2@V?$basic_string@DU?$char_traits@D@std@@V?$allocator@D@2@@2@_N_J_KNVallocator@2@Uadl_serializer@json_abi_v3_11_3@nlohmann@@V?$vector@EV?$allocator@E@std@@@2@X@json_abi_v3_11_3@nlohmann@@@std@@@std@@@std@@YAPEAV?$vector@V?$basic_json@Vmap@std@@Vvector@2@V?$basic_string@DU?$char_traits@D@std@@V?$allocator@D@2@@2@_N_J_KNVallocator@2@Uadl_serializer@json_abi_v3_11_3@nlohmann@@V?$vector@EV?$allocator@E@std@@@2@X@json_abi_v3_11_3@nlohmann@@V?$allocator@V?$basic_json@Vmap@std@@Vvector@2@V?$basic_string@DU?$char_traits@D@std@@V?$allocator@D@2@@2@_N_J_KNVallocator@2@Uadl_serializer@json_abi_v3_11_3@nlohmann@@V?$vector@EV?$allocator@E@std@@@2@X@json_abi_v3_11_3@nlohmann@@@std@@@0@AEAV10@@Z
	??$advance@PEBI_J@std@@YAXAEAPEBI_J@Z
	??$advance@PEB_K_J@std@@YAXAEAPEB_K_J@Z
	??$advance@PEB_U_J@std@@YAXAEAPEB_U_J@Z
	??$advance@V?$_Tree_const_iterator@V?$_Tree_val@U?$_Tree_simple_types@U?$pair@$$CBV?$basic_string@DU?$char_traits@D@std@@V?$allocator@D@2@@std@@V?$basic_json@Vmap@std@@Vvector@2@V?$basic_string@DU?$char_traits@D@std@@V?$allocator@D@2@@2@_N_J_KNVallocator@2@Uadl_serializer@json_abi_v3_11_3@nlohmann@@V?$vector@EV?$allocator@E@std@@@2@X@json_abi_v3_11_3@nlohmann@@@std@@@std@@@std@@@std@@_J@std@@YAXAEAV?$_Tree_const_iterator@V?$_Tree_val@U?$_Tree_simple_types@U?$pair@$$CBV?$basic_string@DU?$char_traits@D@std@@V?$allocator@D@2@@std@@V?$basic_json@Vmap@std@@Vvector@2@V?$basic_string@DU?$char_traits@D@std@@V?$allocator@D@2@@2@_N_J_KNVallocator@2@Uadl_serializer@json_abi_v3_11_3@nlohmann@@V?$vector@EV?$allocator@E@std@@@2@X@json_abi_v3_11_3@nlohmann@@@std@@@std@@@std@@@0@_J@Z
	??$advance@V?$_Tree_iterator@V?$_Tree_val@U?$_Tree_simple_types@U?$pair@$$CBV?$basic_string@DU?$char_traits@D@std@@V?$allocator@D@2@@std@@V?$basic_json@Vmap@std@@Vvector@2@V?$basic_string@DU?$char_traits@D@std@@V?$allocator@D@2@@2@_N_J_KNVallocator@2@Uadl_serializer@json_abi_v3_11_3@nlohmann@@V?$vector@EV?$allocator@E@std@@@2@X@json_abi_v3_11_3@nlohmann@@@std@@@std@@@std@@@std@@H@std@@YAXAEAV?$_Tree_iterator@V?$_Tree_val@U?$_Tree_simple_types@U?$pair@$$CBV?$basic_string@DU?$char_traits@D@std@@V?$allocator@D@2@@std@@V?$basic_json@Vmap@std@@Vvector@2@V?$basic_string@DU?$char_traits@D@std@@V?$allocator@D@2@@2@_N_J_KNVallocator@2@Uadl_serializer@json_abi_v3_11_3@nlohmann@@V?$vector@EV?$allocator@E@std@@@2@X@json_abi_v3_11_3@nlohmann@@@std@@@std@@@std@@@0@H@Z
	??$advance@V?$_Vector_iterator@V?$_Vector_val@U?$_Simple_types@V?$basic_json@Vmap@std@@Vvector@2@V?$basic_string@DU?$char_traits@D@std@@V?$allocator@D@2@@2@_N_J_KNVallocator@2@Uadl_serializer@json_abi_v3_11_3@nlohmann@@V?$vector@EV?$allocator@E@std@@@2@X@json_abi_v3_11_3@nlohmann@@@std@@@std@@@std@@H@std@@YAXAEAV?$_Vector_iterator@V?$_Vector_val@U?$_Simple_types@V?$basic_json@Vmap@std@@Vvector@2@V?$basic_string@DU?$char_traits@D@std@@V?$allocator@D@2@@2@_N_J_KNVallocator@2@Uadl_serializer@json_abi_v3_11_3@nlohmann@@V?$vector@EV?$allocator@E@std@@@2@X@json_abi_v3_11_3@nlohmann@@@std@@@std@@@0@H@Z
	??$all_of@PEBV?$json_ref@V?$basic_json@Vmap@std@@Vvector@2@V?$basic_string@DU?$char_traits@D@std@@V?$allocator@D@2@@2@_N_J_KNVallocator@2@Uadl_serializer@json_abi_v3_11_3@nlohmann@@V?$vector@EV?$allocator@E@std@@@2@X@json_abi_v3_11_3@nlohmann@@@detail@json_abi_v3_11_3@nlohmann@@V<lambda_1>@?1???0?$basic_json@Vmap@std@@Vvector@2@V?$basic_string@DU?$char_traits@D@std@@V?$allocator@D@2@@2@_N_J_KNVallocator@2@Uadl_serializer@json_abi_v3_11_3@nlohmann@@V?$vector@EV?$allocator@E@std@@@2@X@34@QEAA@V?$initializer_list@V?$json_ref@V?$basic_json@Vmap@std@@Vvector@2@V?$basic_string@DU?$char_traits@D@std@@V?$allocator@D@2@@2@_N_J_KNVallocator@2@Uadl_serializer@json_abi_v3_11_3@nlohmann@@V?$vector@EV?$allocator@E@std@@@2@X@json_abi_v3_11_3@nlohmann@@@detail@json_abi_v3_11_3@nlohmann@@@std@@_NW4value_t@234@@Z@@std@@YA_NPEBV?$json_ref@V?$basic_json@Vmap@std@@Vvector@2@V?$basic_string@DU?$char_traits@D@std@@V?$allocator@D@2@@2@_N_J_KNVallocator@2@Uadl_serializer@json_abi_v3_11_3@nlohmann@@V?$vector@EV?$allocator@E@std@@@2@X@json_abi_v3_11_3@nlohmann@@@detail@json_abi_v3_11_3@nlohmann@@0V<lambda_1>@?1???0?$basic_json@Vmap@std@@Vvector@2@V?$basic_string@DU?$char_traits@D@std@@V?$allocator@D@2@@2@_N_J_KNVallocator@2@Uadl_serializer@json_abi_v3_11_3@nlohmann@@V?$vector@EV?$allocator@E@std@@@2@X@34@QEAA@V?$initializer_list@V?$json_ref@V?$basic_json@Vmap@std@@Vvector@2@V?$basic_string@DU?$char_traits@D@std@@V?$allocator@D@2@@2@_N_J_KNVallocator@2@Uadl_serializer@json_abi_v3_11_3@nlohmann@@V?$vector@EV?$allocator@E@std@@@2@X@json_abi_v3_11_3@nlohmann@@@detail@json_abi_v3_11_3@nlohmann@@@0@_NW4value_t@234@@Z@@Z
	??$append@PEB_W$0A@@?$basic_string@_WU?$char_traits@_W@std@@V?$allocator@_W@2@@std@@QEAAAEAV01@QEB_W0@Z
	??$append@V?$basic_string_view@DU?$char_traits@D@std@@@std@@$0A@@?$basic_string@DU?$char_traits@D@std@@V?$allocator@D@2@@std@@QEAAAEAV01@AEBV?$basic_string_view@DU?$char_traits@D@std@@@1@@Z
	??$back_inserter@V?$vector@V?$basic_json@Vmap@std@@Vvector@2@V?$basic_string@DU?$char_traits@D@std@@V?$allocator@D@2@@2@_N_J_KNVallocator@2@Uadl_serializer@json_abi_v3_11_3@nlohmann@@V?$vector@EV?$allocator@E@std@@@2@X@json_abi_v3_11_3@nlohmann@@V?$allocator@V?$basic_json@Vmap@std@@Vvector@2@V?$basic_string@DU?$char_traits@D@std@@V?$allocator@D@2@@2@_N_J_KNVallocator@2@Uadl_serializer@json_abi_v3_11_3@nlohmann@@V?$vector@EV?$allocator@E@std@@@2@X@json_abi_v3_11_3@nlohmann@@@std@@@std@@@std@@YA?AV?$back_insert_iterator@V?$vector@V?$basic_json@Vmap@std@@Vvector@2@V?$basic_string@DU?$char_traits@D@std@@V?$allocator@D@2@@2@_N_J_KNVallocator@2@Uadl_serializer@json_abi_v3_11_3@nlohmann@@V?$vector@EV?$allocator@E@std@@@2@X@json_abi_v3_11_3@nlohmann@@V?$allocator@V?$basic_json@Vmap@std@@Vvector@2@V?$basic_string@DU?$char_traits@D@std@@V?$allocator@D@2@@2@_N_J_KNVallocator@2@Uadl_serializer@json_abi_v3_11_3@nlohmann@@V?$vector@EV?$allocator@E@std@@@2@X@json_abi_v3_11_3@nlohmann@@@std@@@std@@@0@AEAV?$vector@V?$basic_json@Vmap@std@@Vvector@2@V?$basic_string@DU?$char_traits@D@std@@V?$allocator@D@2@@2@_N_J_KNVallocator@2@Uadl_serializer@json_abi_v3_11_3@nlohmann@@V?$vector@EV?$allocator@E@std@@@2@X@json_abi_v3_11_3@nlohmann@@V?$allocator@V?$basic_json@Vmap@std@@Vvector@2@V?$basic_string@DU?$char_traits@D@std@@V?$allocator@D@2@@2@_N_J_KNVallocator@2@Uadl_serializer@json_abi_v3_11_3@nlohmann@@V?$vector@EV?$allocator@E@std@@@2@X@json_abi_v3_11_3@nlohmann@@@std@@@0@@Z
	??$bit_cast@D$$BY00E@std@@YADAEAY00$$CBE@Z
	??$bit_cast@H$$BY03E@std@@YAHAEAY03$$CBE@Z
	??$bit_cast@I$$BY03E@std@@YAIAEAY03$$CBE@Z
	??$bit_cast@M$$BY03E@std@@YAMAEAY03$$CBE@Z
	??$bit_cast@N$$BY07E@std@@YANAEAY07$$CBE@Z
	??$bit_cast@O$$BY07E@std@@YAOAEAY07$$CBE@Z
	??$bit_cast@PEBD$$BY07E@std@@YAPEBDAEAY07$$CBE@Z
	??$bit_cast@PEBX$$BY07E@std@@YAPEBXAEAY07$$CBE@Z
	??$bit_cast@V?$basic_string_view@DU?$char_traits@D@std@@@std@@$$BY0BA@E@std@@YA?AV?$basic_string_view@DU?$char_traits@D@std@@@0@AEAY0BA@$$CBE@Z
	??$bit_cast@Vhandle@?$basic_format_arg@V?$basic_format_context@V?$back_insert_iterator@V?$_Fmt_buffer@D@std@@@std@@D@std@@@std@@$$BY0BA@E@std@@YA?AVhandle@?$basic_format_arg@V?$basic_format_context@V?$back_insert_iterator@V?$_Fmt_buffer@D@std@@@std@@D@std@@@0@AEAY0BA@$$CBE@Z
	??$bit_cast@_J$$BY07E@std@@YA_JAEAY07$$CBE@Z
	??$bit_cast@_K$$BY07E@std@@YA_KAEAY07$$CBE@Z
	??$bit_cast@_N$$BY00E@std@@YA_NAEAY00$$CBE@Z
	??$clamp@M@std@@YAAEBMAEBM00@Z
	??$clamp@MU?$less@X@std@@@std@@YAAEBMAEBM00U?$less@X@0@@Z
	??$compute_boundaries@N@dtoa_impl@detail@json_abi_v3_11_3@nlohmann@@YA?AUboundaries@0123@N@Z
	??$concat@V?$basic_string@DU?$char_traits@D@std@@V?$allocator@D@2@@std@@AEAY09$$CBDV12@AEAY09$$CBDV12@@detail@json_abi_v3_11_3@nlohmann@@YA?AV?$basic_string@DU?$char_traits@D@std@@V?$allocator@D@2@@std@@AEAY09$$CBD$$QEAV34@01@Z
	??$concat@V?$basic_string@DU?$char_traits@D@std@@V?$allocator@D@2@@std@@AEAY0BB@$$CBDAEBV12@DV12@AEAY02$$CBD@detail@json_abi_v3_11_3@nlohmann@@YA?AV?$basic_string@DU?$char_traits@D@std@@V?$allocator@D@2@@std@@AEAY0BB@$$CBDAEBV34@$$QEAD$$QEAV34@AEAY02$$CBD@Z
	??$concat@V?$basic_string@DU?$char_traits@D@std@@V?$allocator@D@2@@std@@AEAY0BH@$$CBDV12@@detail@json_abi_v3_11_3@nlohmann@@YA?AV?$basic_string@DU?$char_traits@D@std@@V?$allocator@D@2@@std@@AEAY0BH@$$CBD$$QEAV34@@Z
	??$concat@V?$basic_string@DU?$char_traits@D@std@@V?$allocator@D@2@@std@@AEAY0BI@$$CBDV12@@detail@json_abi_v3_11_3@nlohmann@@YA?AV?$basic_string@DU?$char_traits@D@std@@V?$allocator@D@2@@std@@AEAY0BI@$$CBD$$QEAV34@@Z
	??$concat@V?$basic_string@DU?$char_traits@D@std@@V?$allocator@D@2@@std@@AEAY0BJ@$$CBDPEBD@detail@json_abi_v3_11_3@nlohmann@@YA?AV?$basic_string@DU?$char_traits@D@std@@V?$allocator@D@2@@std@@AEAY0BJ@$$CBD$$QEAPEBD@Z
	??$concat@V?$basic_string@DU?$char_traits@D@std@@V?$allocator@D@2@@std@@AEAY0BK@$$CBDV12@D@detail@json_abi_v3_11_3@nlohmann@@YA?AV?$basic_string@DU?$char_traits@D@std@@V?$allocator@D@2@@std@@AEAY0BK@$$CBD$$QEAV34@$$QEAD@Z
	??$concat@V?$basic_string@DU?$char_traits@D@std@@V?$allocator@D@2@@std@@AEAY0BN@$$CBDPEBD@detail@json_abi_v3_11_3@nlohmann@@YA?AV?$basic_string@DU?$char_traits@D@std@@V?$allocator@D@2@@std@@AEAY0BN@$$CBD$$QEAPEBD@Z
	??$concat@V?$basic_string@DU?$char_traits@D@std@@V?$allocator@D@2@@std@@AEAY0BN@$$CBDV12@AEAY04$$CBDV12@@detail@json_abi_v3_11_3@nlohmann@@YA?AV?$basic_string@DU?$char_traits@D@std@@V?$allocator@D@2@@std@@AEAY0BN@$$CBD$$QEAV34@AEAY04$$CBD1@Z
	??$concat@V?$basic_string@DU?$char_traits@D@std@@V?$allocator@D@2@@std@@AEAY0BO@$$CBDPEBD@detail@json_abi_v3_11_3@nlohmann@@YA?AV?$basic_string@DU?$char_traits@D@std@@V?$allocator@D@2@@std@@AEAY0BO@$$CBD$$QEAPEBD@Z
	??$concat@V?$basic_string@DU?$char_traits@D@std@@V?$allocator@D@2@@std@@AEAY0CH@$$CBDV12@@detail@json_abi_v3_11_3@nlohmann@@YA?AV?$basic_string@DU?$char_traits@D@std@@V?$allocator@D@2@@std@@AEAY0CH@$$CBD$$QEAV34@@Z
	??$concat@V?$basic_string@DU?$char_traits@D@std@@V?$allocator@D@2@@std@@AEAY0DD@$$CBDPEBD@detail@json_abi_v3_11_3@nlohmann@@YA?AV?$basic_string@DU?$char_traits@D@std@@V?$allocator@D@2@@std@@AEAY0DD@$$CBD$$QEAPEBD@Z
	??$concat@V?$basic_string@DU?$char_traits@D@std@@V?$allocator@D@2@@std@@AEAY0DE@$$CBDPEBD@detail@json_abi_v3_11_3@nlohmann@@YA?AV?$basic_string@DU?$char_traits@D@std@@V?$allocator@D@2@@std@@AEAY0DE@$$CBD$$QEAPEBD@Z
	??$concat@V?$basic_string@DU?$char_traits@D@std@@V?$allocator@D@2@@std@@AEAY0M@$$CBDPEBD@detail@json_abi_v3_11_3@nlohmann@@YA?AV?$basic_string@DU?$char_traits@D@std@@V?$allocator@D@2@@std@@AEAY0M@$$CBD$$QEAPEBD@Z
	??$concat@V?$basic_string@DU?$char_traits@D@std@@V?$allocator@D@2@@std@@AEAY0P@$$CBDAEBV12@D@detail@json_abi_v3_11_3@nlohmann@@YA?AV?$basic_string@DU?$char_traits@D@std@@V?$allocator@D@2@@std@@AEAY0P@$$CBDAEBV34@$$QEAD@Z
	??$concat@V?$basic_string@DU?$char_traits@D@std@@V?$allocator@D@2@@std@@PEBDAEAY0P@$$CBDV12@D@detail@json_abi_v3_11_3@nlohmann@@YA?AV?$basic_string@DU?$char_traits@D@std@@V?$allocator@D@2@@std@@$$QEAPEBDAEAY0P@$$CBD$$QEAV34@$$QEAD@Z
	??$concat@V?$basic_string@DU?$char_traits@D@std@@V?$allocator@D@2@@std@@V12@AEAY0M@$$CBDV12@AEAY02$$CBDV12@AEBV12@@detail@json_abi_v3_11_3@nlohmann@@YA?AV?$basic_string@DU?$char_traits@D@std@@V?$allocator@D@2@@std@@$$QEAV34@AEAY0M@$$CBD0AEAY02$$CBD0AEBV34@@Z
	??$concat@V?$basic_string@DU?$char_traits@D@std@@V?$allocator@D@2@@std@@V12@V12@AEBV12@@detail@json_abi_v3_11_3@nlohmann@@YA?AV?$basic_string@DU?$char_traits@D@std@@V?$allocator@D@2@@std@@$$QEAV34@0AEBV34@@Z
	??$concat_into@V?$basic_string@DU?$char_traits@D@std@@V?$allocator@D@2@@std@@@detail@json_abi_v3_11_3@nlohmann@@YAXAEAV?$basic_string@DU?$char_traits@D@std@@V?$allocator@D@2@@std@@@Z
	??$concat_into@V?$basic_string@DU?$char_traits@D@std@@V?$allocator@D@2@@std@@AEAY02$$CBD$$V$0A@@detail@json_abi_v3_11_3@nlohmann@@YAXAEAV?$basic_string@DU?$char_traits@D@std@@V?$allocator@D@2@@std@@AEAY02$$CBD@Z
	??$concat_into@V?$basic_string@DU?$char_traits@D@std@@V?$allocator@D@2@@std@@AEAY02$$CBDV12@AEBV12@$0A@@detail@json_abi_v3_11_3@nlohmann@@YAXAEAV?$basic_string@DU?$char_traits@D@std@@V?$allocator@D@2@@std@@AEAY02$$CBD$$QEAV34@AEBV34@@Z
	??$concat_into@V?$basic_string@DU?$char_traits@D@std@@V?$allocator@D@2@@std@@AEAY04$$CBDV12@$0A@@detail@json_abi_v3_11_3@nlohmann@@YAXAEAV?$basic_string@DU?$char_traits@D@std@@V?$allocator@D@2@@std@@AEAY04$$CBD$$QEAV34@@Z
	??$concat_into@V?$basic_string@DU?$char_traits@D@std@@V?$allocator@D@2@@std@@AEAY09$$CBDV12@$0A@@detail@json_abi_v3_11_3@nlohmann@@YAXAEAV?$basic_string@DU?$char_traits@D@std@@V?$allocator@D@2@@std@@AEAY09$$CBD$$QEAV34@@Z
	??$concat_into@V?$basic_string@DU?$char_traits@D@std@@V?$allocator@D@2@@std@@AEAY09$$CBDV12@AEAY09$$CBDV12@$0A@@detail@json_abi_v3_11_3@nlohmann@@YAXAEAV?$basic_string@DU?$char_traits@D@std@@V?$allocator@D@2@@std@@AEAY09$$CBD$$QEAV34@12@Z
	??$concat_into@V?$basic_string@DU?$char_traits@D@std@@V?$allocator@D@2@@std@@AEAY0BB@$$CBDAEBV12@DV12@AEAY02$$CBD$0A@@detail@json_abi_v3_11_3@nlohmann@@YAXAEAV?$basic_string@DU?$char_traits@D@std@@V?$allocator@D@2@@std@@AEAY0BB@$$CBDAEBV34@$$QEAD$$QEAV34@AEAY02$$CBD@Z
	??$concat_into@V?$basic_string@DU?$char_traits@D@std@@V?$allocator@D@2@@std@@AEAY0BH@$$CBDV12@$0A@@detail@json_abi_v3_11_3@nlohmann@@YAXAEAV?$basic_string@DU?$char_traits@D@std@@V?$allocator@D@2@@std@@AEAY0BH@$$CBD$$QEAV34@@Z
	??$concat_into@V?$basic_string@DU?$char_traits@D@std@@V?$allocator@D@2@@std@@AEAY0BI@$$CBDV12@$0A@@detail@json_abi_v3_11_3@nlohmann@@YAXAEAV?$basic_string@DU?$char_traits@D@std@@V?$allocator@D@2@@std@@AEAY0BI@$$CBD$$QEAV34@@Z
	??$concat_into@V?$basic_string@DU?$char_traits@D@std@@V?$allocator@D@2@@std@@AEAY0BJ@$$CBDPEBD$0A@@detail@json_abi_v3_11_3@nlohmann@@YAXAEAV?$basic_string@DU?$char_traits@D@std@@V?$allocator@D@2@@std@@AEAY0BJ@$$CBD$$QEAPEBD@Z
	??$concat_into@V?$basic_string@DU?$char_traits@D@std@@V?$allocator@D@2@@std@@AEAY0BK@$$CBDV12@D$0A@@detail@json_abi_v3_11_3@nlohmann@@YAXAEAV?$basic_string@DU?$char_traits@D@std@@V?$allocator@D@2@@std@@AEAY0BK@$$CBD$$QEAV34@$$QEAD@Z
	??$concat_into@V?$basic_string@DU?$char_traits@D@std@@V?$allocator@D@2@@std@@AEAY0BN@$$CBDPEBD$0A@@detail@json_abi_v3_11_3@nlohmann@@YAXAEAV?$basic_string@DU?$char_traits@D@std@@V?$allocator@D@2@@std@@AEAY0BN@$$CBD$$QEAPEBD@Z
	??$concat_into@V?$basic_string@DU?$char_traits@D@std@@V?$allocator@D@2@@std@@AEAY0BN@$$CBDV12@AEAY04$$CBDV12@$0A@@detail@json_abi_v3_11_3@nlohmann@@YAXAEAV?$basic_string@DU?$char_traits@D@std@@V?$allocator@D@2@@std@@AEAY0BN@$$CBD$$QEAV34@AEAY04$$CBD2@Z
	??$concat_into@V?$basic_string@DU?$char_traits@D@std@@V?$allocator@D@2@@std@@AEAY0BO@$$CBDPEBD$0A@@detail@json_abi_v3_11_3@nlohmann@@YAXAEAV?$basic_string@DU?$char_traits@D@std@@V?$allocator@D@2@@std@@AEAY0BO@$$CBD$$QEAPEBD@Z
	??$concat_into@V?$basic_string@DU?$char_traits@D@std@@V?$allocator@D@2@@std@@AEAY0CH@$$CBDV12@$0A@@detail@json_abi_v3_11_3@nlohmann@@YAXAEAV?$basic_string@DU?$char_traits@D@std@@V?$allocator@D@2@@std@@AEAY0CH@$$CBD$$QEAV34@@Z
	??$concat_into@V?$basic_string@DU?$char_traits@D@std@@V?$allocator@D@2@@std@@AEAY0DD@$$CBDPEBD$0A@@detail@json_abi_v3_11_3@nlohmann@@YAXAEAV?$basic_string@DU?$char_traits@D@std@@V?$allocator@D@2@@std@@AEAY0DD@$$CBD$$QEAPEBD@Z
	??$concat_into@V?$basic_string@DU?$char_traits@D@std@@V?$allocator@D@2@@std@@AEAY0DE@$$CBDPEBD$0A@@detail@json_abi_v3_11_3@nlohmann@@YAXAEAV?$basic_string@DU?$char_traits@D@std@@V?$allocator@D@2@@std@@AEAY0DE@$$CBD$$QEAPEBD@Z
	??$concat_into@V?$basic_string@DU?$char_traits@D@std@@V?$allocator@D@2@@std@@AEAY0M@$$CBDPEBD$0A@@detail@json_abi_v3_11_3@nlohmann@@YAXAEAV?$basic_string@DU?$char_traits@D@std@@V?$allocator@D@2@@std@@AEAY0M@$$CBD$$QEAPEBD@Z
	??$concat_into@V?$basic_string@DU?$char_traits@D@std@@V?$allocator@D@2@@std@@AEAY0M@$$CBDV12@AEAY02$$CBDV12@AEBV12@$0A@@detail@json_abi_v3_11_3@nlohmann@@YAXAEAV?$basic_string@DU?$char_traits@D@std@@V?$allocator@D@2@@std@@AEAY0M@$$CBD$$QEAV34@AEAY02$$CBD2AEBV34@@Z
	??$concat_into@V?$basic_string@DU?$char_traits@D@std@@V?$allocator@D@2@@std@@AEAY0P@$$CBDAEBV12@D$0A@@detail@json_abi_v3_11_3@nlohmann@@YAXAEAV?$basic_string@DU?$char_traits@D@std@@V?$allocator@D@2@@std@@AEAY0P@$$CBDAEBV34@$$QEAD@Z
	??$concat_into@V?$basic_string@DU?$char_traits@D@std@@V?$allocator@D@2@@std@@AEAY0P@$$CBDV12@D$0A@@detail@json_abi_v3_11_3@nlohmann@@YAXAEAV?$basic_string@DU?$char_traits@D@std@@V?$allocator@D@2@@std@@AEAY0P@$$CBD$$QEAV34@$$QEAD@Z
	??$concat_into@V?$basic_string@DU?$char_traits@D@std@@V?$allocator@D@2@@std@@AEBV12@$$V$0A@@detail@json_abi_v3_11_3@nlohmann@@YAXAEAV?$basic_string@DU?$char_traits@D@std@@V?$allocator@D@2@@std@@AEBV34@@Z
	??$concat_into@V?$basic_string@DU?$char_traits@D@std@@V?$allocator@D@2@@std@@AEBV12@D$0A@@detail@json_abi_v3_11_3@nlohmann@@YAXAEAV?$basic_string@DU?$char_traits@D@std@@V?$allocator@D@2@@std@@AEBV34@$$QEAD@Z
	??$concat_into@V?$basic_string@DU?$char_traits@D@std@@V?$allocator@D@2@@std@@AEBV12@DV12@AEAY02$$CBD$0A@@detail@json_abi_v3_11_3@nlohmann@@YAXAEAV?$basic_string@DU?$char_traits@D@std@@V?$allocator@D@2@@std@@AEBV34@$$QEAD$$QEAV34@AEAY02$$CBD@Z
	??$concat_into@V?$basic_string@DU?$char_traits@D@std@@V?$allocator@D@2@@std@@D$$V$0A@@detail@json_abi_v3_11_3@nlohmann@@YAXAEAV?$basic_string@DU?$char_traits@D@std@@V?$allocator@D@2@@std@@$$QEAD@Z
	??$concat_into@V?$basic_string@DU?$char_traits@D@std@@V?$allocator@D@2@@std@@DV12@AEAY02$$CBD$0A@@detail@json_abi_v3_11_3@nlohmann@@YAXAEAV?$basic_string@DU?$char_traits@D@std@@V?$allocator@D@2@@std@@$$QEAD$$QEAV34@AEAY02$$CBD@Z
	??$concat_into@V?$basic_string@DU?$char_traits@D@std@@V?$allocator@D@2@@std@@PEBD$$V$0A@@detail@json_abi_v3_11_3@nlohmann@@YAXAEAV?$basic_string@DU?$char_traits@D@std@@V?$allocator@D@2@@std@@$$QEAPEBD@Z
	??$concat_into@V?$basic_string@DU?$char_traits@D@std@@V?$allocator@D@2@@std@@PEBDAEAY0P@$$CBDV12@D$0A@@detail@json_abi_v3_11_3@nlohmann@@YAXAEAV?$basic_string@DU?$char_traits@D@std@@V?$allocator@D@2@@std@@$$QEAPEBDAEAY0P@$$CBD$$QEAV34@$$QEAD@Z
	??$concat_into@V?$basic_string@DU?$char_traits@D@std@@V?$allocator@D@2@@std@@V12@$$V$0A@@detail@json_abi_v3_11_3@nlohmann@@YAXAEAV?$basic_string@DU?$char_traits@D@std@@V?$allocator@D@2@@std@@$$QEAV34@@Z
	??$concat_into@V?$basic_string@DU?$char_traits@D@std@@V?$allocator@D@2@@std@@V12@AEAY02$$CBD$0A@@detail@json_abi_v3_11_3@nlohmann@@YAXAEAV?$basic_string@DU?$char_traits@D@std@@V?$allocator@D@2@@std@@$$QEAV34@AEAY02$$CBD@Z
	??$concat_into@V?$basic_string@DU?$char_traits@D@std@@V?$allocator@D@2@@std@@V12@AEAY02$$CBDV12@AEBV12@$0A@@detail@json_abi_v3_11_3@nlohmann@@YAXAEAV?$basic_string@DU?$char_traits@D@std@@V?$allocator@D@2@@std@@$$QEAV34@AEAY02$$CBD1AEBV34@@Z
	??$concat_into@V?$basic_string@DU?$char_traits@D@std@@V?$allocator@D@2@@std@@V12@AEAY04$$CBDV12@$0A@@detail@json_abi_v3_11_3@nlohmann@@YAXAEAV?$basic_string@DU?$char_traits@D@std@@V?$allocator@D@2@@std@@$$QEAV34@AEAY04$$CBD1@Z
	??$concat_into@V?$basic_string@DU?$char_traits@D@std@@V?$allocator@D@2@@std@@V12@AEAY09$$CBDV12@$0A@@detail@json_abi_v3_11_3@nlohmann@@YAXAEAV?$basic_string@DU?$char_traits@D@std@@V?$allocator@D@2@@std@@$$QEAV34@AEAY09$$CBD1@Z
	??$concat_into@V?$basic_string@DU?$char_traits@D@std@@V?$allocator@D@2@@std@@V12@AEAY0M@$$CBDV12@AEAY02$$CBDV12@AEBV12@$0A@@detail@json_abi_v3_11_3@nlohmann@@YAXAEAV?$basic_string@DU?$char_traits@D@std@@V?$allocator@D@2@@std@@$$QEAV34@AEAY0M@$$CBD1AEAY02$$CBD1AEBV34@@Z
	??$concat_into@V?$basic_string@DU?$char_traits@D@std@@V?$allocator@D@2@@std@@V12@AEBV12@$0A@@detail@json_abi_v3_11_3@nlohmann@@YAXAEAV?$basic_string@DU?$char_traits@D@std@@V?$allocator@D@2@@std@@$$QEAV34@AEBV34@@Z
	??$concat_into@V?$basic_string@DU?$char_traits@D@std@@V?$allocator@D@2@@std@@V12@D$0A@@detail@json_abi_v3_11_3@nlohmann@@YAXAEAV?$basic_string@DU?$char_traits@D@std@@V?$allocator@D@2@@std@@$$QEAV34@$$QEAD@Z
	??$concat_into@V?$basic_string@DU?$char_traits@D@std@@V?$allocator@D@2@@std@@V12@V12@AEBV12@$0A@@detail@json_abi_v3_11_3@nlohmann@@YAXAEAV?$basic_string@DU?$char_traits@D@std@@V?$allocator@D@2@@std@@$$QEAV34@1AEBV34@@Z
	??$concat_length@$$BY0P@DV?$basic_string@DU?$char_traits@D@std@@V?$allocator@D@2@@std@@D@detail@json_abi_v3_11_3@nlohmann@@YA_KPEBDAEAY0P@$$CBDAEBV?$basic_string@DU?$char_traits@D@std@@V?$allocator@D@2@@std@@AEBD@Z
	??$concat_length@$$V@detail@json_abi_v3_11_3@nlohmann@@YA_KD@Z
	??$concat_length@$$V@detail@json_abi_v3_11_3@nlohmann@@YA_KPEBD@Z
	??$concat_length@PEBD@detail@json_abi_v3_11_3@nlohmann@@YA_KPEBDAEBQEBD@Z
	??$concat_length@V?$basic_string@DU?$char_traits@D@std@@V?$allocator@D@2@@std@@$$BY02D@detail@json_abi_v3_11_3@nlohmann@@YA_KAEBV?$basic_string@DU?$char_traits@D@std@@V?$allocator@D@2@@std@@AEAY02$$CBD@Z
	??$concat_length@V?$basic_string@DU?$char_traits@D@std@@V?$allocator@D@2@@std@@$$BY02D@detail@json_abi_v3_11_3@nlohmann@@YA_KDAEBV?$basic_string@DU?$char_traits@D@std@@V?$allocator@D@2@@std@@AEAY02$$CBD@Z
	??$concat_length@V?$basic_string@DU?$char_traits@D@std@@V?$allocator@D@2@@std@@$$BY02DV12@V12@@detail@json_abi_v3_11_3@nlohmann@@YA_KAEBV?$basic_string@DU?$char_traits@D@std@@V?$allocator@D@2@@std@@AEAY02$$CBD00@Z
	??$concat_length@V?$basic_string@DU?$char_traits@D@std@@V?$allocator@D@2@@std@@$$BY02DV12@V12@@detail@json_abi_v3_11_3@nlohmann@@YA_KPEBDAEBV?$basic_string@DU?$char_traits@D@std@@V?$allocator@D@2@@std@@AEAY02$$CBD11@Z
	??$concat_length@V?$basic_string@DU?$char_traits@D@std@@V?$allocator@D@2@@std@@$$BY04DV12@@detail@json_abi_v3_11_3@nlohmann@@YA_KAEBV?$basic_string@DU?$char_traits@D@std@@V?$allocator@D@2@@std@@AEAY04$$CBD0@Z
	??$concat_length@V?$basic_string@DU?$char_traits@D@std@@V?$allocator@D@2@@std@@$$BY04DV12@@detail@json_abi_v3_11_3@nlohmann@@YA_KPEBDAEBV?$basic_string@DU?$char_traits@D@std@@V?$allocator@D@2@@std@@AEAY04$$CBD1@Z
	??$concat_length@V?$basic_string@DU?$char_traits@D@std@@V?$allocator@D@2@@std@@$$BY09DV12@@detail@json_abi_v3_11_3@nlohmann@@YA_KAEBV?$basic_string@DU?$char_traits@D@std@@V?$allocator@D@2@@std@@AEAY09$$CBD0@Z
	??$concat_length@V?$basic_string@DU?$char_traits@D@std@@V?$allocator@D@2@@std@@$$BY09DV12@@detail@json_abi_v3_11_3@nlohmann@@YA_KPEBDAEBV?$basic_string@DU?$char_traits@D@std@@V?$allocator@D@2@@std@@AEAY09$$CBD1@Z
	??$concat_length@V?$basic_string@DU?$char_traits@D@std@@V?$allocator@D@2@@std@@$$BY0M@DV12@$$BY02DV12@V12@@detail@json_abi_v3_11_3@nlohmann@@YA_KAEBV?$basic_string@DU?$char_traits@D@std@@V?$allocator@D@2@@std@@AEAY0M@$$CBD0AEAY02$$CBD00@Z
	??$concat_length@V?$basic_string@DU?$char_traits@D@std@@V?$allocator@D@2@@std@@$$V@detail@json_abi_v3_11_3@nlohmann@@YA_KAEBV?$basic_string@DU?$char_traits@D@std@@V?$allocator@D@2@@std@@@Z
	??$concat_length@V?$basic_string@DU?$char_traits@D@std@@V?$allocator@D@2@@std@@@detail@json_abi_v3_11_3@nlohmann@@YA_KPEBDAEBV?$basic_string@DU?$char_traits@D@std@@V?$allocator@D@2@@std@@@Z
	??$concat_length@V?$basic_string@DU?$char_traits@D@std@@V?$allocator@D@2@@std@@D@detail@json_abi_v3_11_3@nlohmann@@YA_KAEBV?$basic_string@DU?$char_traits@D@std@@V?$allocator@D@2@@std@@AEBD@Z
	??$concat_length@V?$basic_string@DU?$char_traits@D@std@@V?$allocator@D@2@@std@@D@detail@json_abi_v3_11_3@nlohmann@@YA_KPEBDAEBV?$basic_string@DU?$char_traits@D@std@@V?$allocator@D@2@@std@@AEBD@Z
	??$concat_length@V?$basic_string@DU?$char_traits@D@std@@V?$allocator@D@2@@std@@DV12@$$BY02D@detail@json_abi_v3_11_3@nlohmann@@YA_KAEBV?$basic_string@DU?$char_traits@D@std@@V?$allocator@D@2@@std@@AEBD0AEAY02$$CBD@Z
	??$concat_length@V?$basic_string@DU?$char_traits@D@std@@V?$allocator@D@2@@std@@DV12@$$BY02D@detail@json_abi_v3_11_3@nlohmann@@YA_KPEBDAEBV?$basic_string@DU?$char_traits@D@std@@V?$allocator@D@2@@std@@AEBD1AEAY02$$CBD@Z
	??$concat_length@V?$basic_string@DU?$char_traits@D@std@@V?$allocator@D@2@@std@@V12@@detail@json_abi_v3_11_3@nlohmann@@YA_KAEBV?$basic_string@DU?$char_traits@D@std@@V?$allocator@D@2@@std@@0@Z
	??$concat_length@V?$basic_string@DU?$char_traits@D@std@@V?$allocator@D@2@@std@@V12@@detail@json_abi_v3_11_3@nlohmann@@YA_KPEBDAEBV?$basic_string@DU?$char_traits@D@std@@V?$allocator@D@2@@std@@1@Z
	??$concat_length@V?$basic_string@DU?$char_traits@D@std@@V?$allocator@D@2@@std@@V12@V12@@detail@json_abi_v3_11_3@nlohmann@@YA_KAEBV?$basic_string@DU?$char_traits@D@std@@V?$allocator@D@2@@std@@00@Z
	??$construct@DD@?$_Default_allocator_traits@V?$allocator@D@std@@@std@@SAXAEAV?$allocator@D@1@QEAD$$QEAD@Z
	??$construct@EAEAE@?$_Default_allocator_traits@V?$allocator@E@std@@@std@@SAXAEAV?$allocator@E@1@QEAEAEAE@Z
	??$construct@IAEBI@?$_Default_allocator_traits@V?$allocator@I@std@@@std@@SAXAEAV?$allocator@I@1@QEAIAEBI@Z
	??$construct@II@?$_Default_allocator_traits@V?$allocator@I@std@@@std@@SAXAEAV?$allocator@I@1@QEAI$$QEAI@Z
	??$construct@NAEBN@?$_Default_allocator_traits@V?$allocator@N@std@@@std@@SAXAEAV?$allocator@N@1@QEANAEBN@Z
	??$construct@NN@?$_Default_allocator_traits@V?$allocator@N@std@@@std@@SAXAEAV?$allocator@N@1@QEAN$$QEAN@Z
	??$construct@PEAV?$basic_json@Vmap@std@@Vvector@2@V?$basic_string@DU?$char_traits@D@std@@V?$allocator@D@2@@2@_N_J_KNVallocator@2@Uadl_serializer@json_abi_v3_11_3@nlohmann@@V?$vector@EV?$allocator@E@std@@@2@X@json_abi_v3_11_3@nlohmann@@AEBQEAV123@@?$_Default_allocator_traits@V?$allocator@PEAV?$basic_json@Vmap@std@@Vvector@2@V?$basic_string@DU?$char_traits@D@std@@V?$allocator@D@2@@2@_N_J_KNVallocator@2@Uadl_serializer@json_abi_v3_11_3@nlohmann@@V?$vector@EV?$allocator@E@std@@@2@X@json_abi_v3_11_3@nlohmann@@@std@@@std@@SAXAEAV?$allocator@PEAV?$basic_json@Vmap@std@@Vvector@2@V?$basic_string@DU?$char_traits@D@std@@V?$allocator@D@2@@2@_N_J_KNVallocator@2@Uadl_serializer@json_abi_v3_11_3@nlohmann@@V?$vector@EV?$allocator@E@std@@@2@X@json_abi_v3_11_3@nlohmann@@@1@QEAPEAV?$basic_json@Vmap@std@@Vvector@2@V?$basic_string@DU?$char_traits@D@std@@V?$allocator@D@2@@2@_N_J_KNVallocator@2@Uadl_serializer@json_abi_v3_11_3@nlohmann@@V?$vector@EV?$allocator@E@std@@@2@X@json_abi_v3_11_3@nlohmann@@AEBQEAV345@@Z
	??$construct@PEAV?$basic_json@Vmap@std@@Vvector@2@V?$basic_string@DU?$char_traits@D@std@@V?$allocator@D@2@@2@_N_J_KNVallocator@2@Uadl_serializer@json_abi_v3_11_3@nlohmann@@V?$vector@EV?$allocator@E@std@@@2@X@json_abi_v3_11_3@nlohmann@@PEAV123@@?$_Default_allocator_traits@V?$allocator@PEAV?$basic_json@Vmap@std@@Vvector@2@V?$basic_string@DU?$char_traits@D@std@@V?$allocator@D@2@@2@_N_J_KNVallocator@2@Uadl_serializer@json_abi_v3_11_3@nlohmann@@V?$vector@EV?$allocator@E@std@@@2@X@json_abi_v3_11_3@nlohmann@@@std@@@std@@SAXAEAV?$allocator@PEAV?$basic_json@Vmap@std@@Vvector@2@V?$basic_string@DU?$char_traits@D@std@@V?$allocator@D@2@@2@_N_J_KNVallocator@2@Uadl_serializer@json_abi_v3_11_3@nlohmann@@V?$vector@EV?$allocator@E@std@@@2@X@json_abi_v3_11_3@nlohmann@@@1@QEAPEAV?$basic_json@Vmap@std@@Vvector@2@V?$basic_string@DU?$char_traits@D@std@@V?$allocator@D@2@@2@_N_J_KNVallocator@2@Uadl_serializer@json_abi_v3_11_3@nlohmann@@V?$vector@EV?$allocator@E@std@@@2@X@json_abi_v3_11_3@nlohmann@@$$QEAPEAV345@@Z
	??$construct@PEAXPEAX@?$_Default_allocator_traits@V?$allocator@PEAX@std@@@std@@SAXAEAV?$allocator@PEAX@1@QEAPEAX$$QEAPEAX@Z
	??$construct@PEBDPEBD@?$_Default_allocator_traits@V?$allocator@PEBD@std@@@std@@SAXAEAV?$allocator@PEBD@1@QEAPEBD$$QEAPEBD@Z
	??$construct@U?$pair@$$CBG_N@std@@AEBUpiecewise_construct_t@2@V?$tuple@AEBG@2@V?$tuple@$$V@2@@?$_Default_allocator_traits@V?$allocator@U?$_List_node@U?$pair@$$CBG_N@std@@PEAX@std@@@std@@@std@@SAXAEAV?$allocator@U?$_List_node@U?$pair@$$CBG_N@std@@PEAX@std@@@1@QEAU?$pair@$$CBG_N@1@AEBUpiecewise_construct_t@1@$$QEAV?$tuple@AEBG@1@$$QEAV?$tuple@$$V@1@@Z
	??$construct@U?$pair@$$CBV?$basic_string@DU?$char_traits@D@std@@V?$allocator@D@2@@std@@UConfigProfile@vrc@@@std@@AEBUpiecewise_construct_t@2@V?$tuple@$$QEAV?$basic_string@DU?$char_traits@D@std@@V?$allocator@D@2@@std@@@2@V?$tuple@$$V@2@@?$_Default_allocator_traits@V?$allocator@U?$_List_node@U?$pair@$$CBV?$basic_string@DU?$char_traits@D@std@@V?$allocator@D@2@@std@@UConfigProfile@vrc@@@std@@PEAX@std@@@std@@@std@@SAXAEAV?$allocator@U?$_List_node@U?$pair@$$CBV?$basic_string@DU?$char_traits@D@std@@V?$allocator@D@2@@std@@UConfigProfile@vrc@@@std@@PEAX@std@@@1@QEAU?$pair@$$CBV?$basic_string@DU?$char_traits@D@std@@V?$allocator@D@2@@std@@UConfigProfile@vrc@@@1@AEBUpiecewise_construct_t@1@$$QEAV?$tuple@$$QEAV?$basic_string@DU?$char_traits@D@std@@V?$allocator@D@2@@std@@@1@$$QEAV?$tuple@$$V@1@@Z
	??$construct@U?$pair@$$CBV?$basic_string@DU?$char_traits@D@std@@V?$allocator@D@2@@std@@UConfigProfile@vrc@@@std@@AEBUpiecewise_construct_t@2@V?$tuple@AEBV?$basic_string@DU?$char_traits@D@std@@V?$allocator@D@2@@std@@@2@V?$tuple@$$V@2@@?$_Default_allocator_traits@V?$allocator@U?$_List_node@U?$pair@$$CBV?$basic_string@DU?$char_traits@D@std@@V?$allocator@D@2@@std@@UConfigProfile@vrc@@@std@@PEAX@std@@@std@@@std@@SAXAEAV?$allocator@U?$_List_node@U?$pair@$$CBV?$basic_string@DU?$char_traits@D@std@@V?$allocator@D@2@@std@@UConfigProfile@vrc@@@std@@PEAX@std@@@1@QEAU?$pair@$$CBV?$basic_string@DU?$char_traits@D@std@@V?$allocator@D@2@@std@@UConfigProfile@vrc@@@1@AEBUpiecewise_construct_t@1@$$QEAV?$tuple@AEBV?$basic_string@DU?$char_traits@D@std@@V?$allocator@D@2@@std@@@1@$$QEAV?$tuple@$$V@1@@Z
	??$construct@U?$pair@$$CBV?$basic_string@DU?$char_traits@D@std@@V?$allocator@D@2@@std@@UInputProfile@vrc@@@std@@AEBUpiecewise_construct_t@2@V?$tuple@AEBV?$basic_string@DU?$char_traits@D@std@@V?$allocator@D@2@@std@@@2@V?$tuple@$$V@2@@?$_Default_allocator_traits@V?$allocator@U?$_List_node@U?$pair@$$CBV?$basic_string@DU?$char_traits@D@std@@V?$allocator@D@2@@std@@UInputProfile@vrc@@@std@@PEAX@std@@@std@@@std@@SAXAEAV?$allocator@U?$_List_node@U?$pair@$$CBV?$basic_string@DU?$char_traits@D@std@@V?$allocator@D@2@@std@@UInputProfile@vrc@@@std@@PEAX@std@@@1@QEAU?$pair@$$CBV?$basic_string@DU?$char_traits@D@std@@V?$allocator@D@2@@std@@UInputProfile@vrc@@@1@AEBUpiecewise_construct_t@1@$$QEAV?$tuple@AEBV?$basic_string@DU?$char_traits@D@std@@V?$allocator@D@2@@std@@@1@$$QEAV?$tuple@$$V@1@@Z
	??$construct@U?$pair@$$CBV?$basic_string@DU?$char_traits@D@std@@V?$allocator@D@2@@std@@V?$basic_json@Vmap@std@@Vvector@2@V?$basic_string@DU?$char_traits@D@std@@V?$allocator@D@2@@2@_N_J_KNVallocator@2@Uadl_serializer@json_abi_v3_11_3@nlohmann@@V?$vector@EV?$allocator@E@std@@@2@X@json_abi_v3_11_3@nlohmann@@@std@@AEAU12@@?$_Default_allocator_traits@V?$allocator@U?$_Tree_node@U?$pair@$$CBV?$basic_string@DU?$char_traits@D@std@@V?$allocator@D@2@@std@@V?$basic_json@Vmap@std@@Vvector@2@V?$basic_string@DU?$char_traits@D@std@@V?$allocator@D@2@@2@_N_J_KNVallocator@2@Uadl_serializer@json_abi_v3_11_3@nlohmann@@V?$vector@EV?$allocator@E@std@@@2@X@json_abi_v3_11_3@nlohmann@@@std@@PEAX@std@@@std@@@std@@SAXAEAV?$allocator@U?$_Tree_node@U?$pair@$$CBV?$basic_string@DU?$char_traits@D@std@@V?$allocator@D@2@@std@@V?$basic_json@Vmap@std@@Vvector@2@V?$basic_string@DU?$char_traits@D@std@@V?$allocator@D@2@@2@_N_J_KNVallocator@2@Uadl_serializer@json_abi_v3_11_3@nlohmann@@V?$vector@EV?$allocator@E@std@@@2@X@json_abi_v3_11_3@nlohmann@@@std@@PEAX@std@@@1@QEAU?$pair@$$CBV?$basic_string@DU?$char_traits@D@std@@V?$allocator@D@2@@std@@V?$basic_json@Vmap@std@@Vvector@2@V?$basic_string@DU?$char_traits@D@std@@V?$allocator@D@2@@2@_N_J_KNVallocator@2@Uadl_serializer@json_abi_v3_11_3@nlohmann@@V?$vector@EV?$allocator@E@std@@@2@X@json_abi_v3_11_3@nlohmann@@@1@AEAU31@@Z
	??$construct@U?$pair@$$CBV?$basic_string@DU?$char_traits@D@std@@V?$allocator@D@2@@std@@V?$basic_json@Vmap@std@@Vvector@2@V?$basic_string@DU?$char_traits@D@std@@V?$allocator@D@2@@2@_N_J_KNVallocator@2@Uadl_serializer@json_abi_v3_11_3@nlohmann@@V?$vector@EV?$allocator@E@std@@@2@X@json_abi_v3_11_3@nlohmann@@@std@@AEBUpiecewise_construct_t@2@V?$tuple@AEBV?$basic_string@DU?$char_traits@D@std@@V?$allocator@D@2@@std@@@2@V?$tuple@$$V@2@@?$_Default_allocator_traits@V?$allocator@U?$_Tree_node@U?$pair@$$CBV?$basic_string@DU?$char_traits@D@std@@V?$allocator@D@2@@std@@V?$basic_json@Vmap@std@@Vvector@2@V?$basic_string@DU?$char_traits@D@std@@V?$allocator@D@2@@2@_N_J_KNVallocator@2@Uadl_serializer@json_abi_v3_11_3@nlohmann@@V?$vector@EV?$allocator@E@std@@@2@X@json_abi_v3_11_3@nlohmann@@@std@@PEAX@std@@@std@@@std@@SAXAEAV?$allocator@U?$_Tree_node@U?$pair@$$CBV?$basic_string@DU?$char_traits@D@std@@V?$allocator@D@2@@std@@V?$basic_json@Vmap@std@@Vvector@2@V?$basic_string@DU?$char_traits@D@std@@V?$allocator@D@2@@2@_N_J_KNVallocator@2@Uadl_serializer@json_abi_v3_11_3@nlohmann@@V?$vector@EV?$allocator@E@std@@@2@X@json_abi_v3_11_3@nlohmann@@@std@@PEAX@std@@@1@QEAU?$pair@$$CBV?$basic_string@DU?$char_traits@D@std@@V?$allocator@D@2@@std@@V?$basic_json@Vmap@std@@Vvector@2@V?$basic_string@DU?$char_traits@D@std@@V?$allocator@D@2@@2@_N_J_KNVallocator@2@Uadl_serializer@json_abi_v3_11_3@nlohmann@@V?$vector@EV?$allocator@E@std@@@2@X@json_abi_v3_11_3@nlohmann@@@1@AEBUpiecewise_construct_t@1@$$QEAV?$tuple@AEBV?$basic_string@DU?$char_traits@D@std@@V?$allocator@D@2@@std@@@1@$$QEAV?$tuple@$$V@1@@Z
	??$construct@U?$pair@$$CBV?$basic_string@DU?$char_traits@D@std@@V?$allocator@D@2@@std@@V?$basic_json@Vmap@std@@Vvector@2@V?$basic_string@DU?$char_traits@D@std@@V?$allocator@D@2@@2@_N_J_KNVallocator@2@Uadl_serializer@json_abi_v3_11_3@nlohmann@@V?$vector@EV?$allocator@E@std@@@2@X@json_abi_v3_11_3@nlohmann@@@std@@V?$basic_string@DU?$char_traits@D@std@@V?$allocator@D@2@@2@$$T@?$_Default_allocator_traits@V?$allocator@U?$_Tree_node@U?$pair@$$CBV?$basic_string@DU?$char_traits@D@std@@V?$allocator@D@2@@std@@V?$basic_json@Vmap@std@@Vvector@2@V?$basic_string@DU?$char_traits@D@std@@V?$allocator@D@2@@2@_N_J_KNVallocator@2@Uadl_serializer@json_abi_v3_11_3@nlohmann@@V?$vector@EV?$allocator@E@std@@@2@X@json_abi_v3_11_3@nlohmann@@@std@@PEAX@std@@@std@@@std@@SAXAEAV?$allocator@U?$_Tree_node@U?$pair@$$CBV?$basic_string@DU?$char_traits@D@std@@V?$allocator@D@2@@std@@V?$basic_json@Vmap@std@@Vvector@2@V?$basic_string@DU?$char_traits@D@std@@V?$allocator@D@2@@2@_N_J_KNVallocator@2@Uadl_serializer@json_abi_v3_11_3@nlohmann@@V?$vector@EV?$allocator@E@std@@@2@X@json_abi_v3_11_3@nlohmann@@@std@@PEAX@std@@@1@QEAU?$pair@$$CBV?$basic_string@DU?$char_traits@D@std@@V?$allocator@D@2@@std@@V?$basic_json@Vmap@std@@Vvector@2@V?$basic_string@DU?$char_traits@D@std@@V?$allocator@D@2@@2@_N_J_KNVallocator@2@Uadl_serializer@json_abi_v3_11_3@nlohmann@@V?$vector@EV?$allocator@E@std@@@2@X@json_abi_v3_11_3@nlohmann@@@1@$$QEAV?$basic_string@DU?$char_traits@D@std@@V?$allocator@D@2@@1@$$QEA$$T@Z
	??$construct@U?$pair@$$CBV?$basic_string@DU?$char_traits@D@std@@V?$allocator@D@2@@std@@V?$basic_json@Vmap@std@@Vvector@2@V?$basic_string@DU?$char_traits@D@std@@V?$allocator@D@2@@2@_N_J_KNVallocator@2@Uadl_serializer@json_abi_v3_11_3@nlohmann@@V?$vector@EV?$allocator@E@std@@@2@X@json_abi_v3_11_3@nlohmann@@@std@@V?$basic_string@DU?$char_traits@D@std@@V?$allocator@D@2@@2@V?$basic_json@Vmap@std@@Vvector@2@V?$basic_string@DU?$char_traits@D@std@@V?$allocator@D@2@@2@_N_J_KNVallocator@2@Uadl_serializer@json_abi_v3_11_3@nlohmann@@V?$vector@EV?$allocator@E@std@@@2@X@json_abi_v3_11_3@nlohmann@@@?$_Default_allocator_traits@V?$allocator@U?$_Tree_node@U?$pair@$$CBV?$basic_string@DU?$char_traits@D@std@@V?$allocator@D@2@@std@@V?$basic_json@Vmap@std@@Vvector@2@V?$basic_string@DU?$char_traits@D@std@@V?$allocator@D@2@@2@_N_J_KNVallocator@2@Uadl_serializer@json_abi_v3_11_3@nlohmann@@V?$vector@EV?$allocator@E@std@@@2@X@json_abi_v3_11_3@nlohmann@@@std@@PEAX@std@@@std@@@std@@SAXAEAV?$allocator@U?$_Tree_node@U?$pair@$$CBV?$basic_string@DU?$char_traits@D@std@@V?$allocator@D@2@@std@@V?$basic_json@Vmap@std@@Vvector@2@V?$basic_string@DU?$char_traits@D@std@@V?$allocator@D@2@@2@_N_J_KNVallocator@2@Uadl_serializer@json_abi_v3_11_3@nlohmann@@V?$vector@EV?$allocator@E@std@@@2@X@json_abi_v3_11_3@nlohmann@@@std@@PEAX@std@@@1@QEAU?$pair@$$CBV?$basic_string@DU?$char_traits@D@std@@V?$allocator@D@2@@std@@V?$basic_json@Vmap@std@@Vvector@2@V?$basic_string@DU?$char_traits@D@std@@V?$allocator@D@2@@2@_N_J_KNVallocator@2@Uadl_serializer@json_abi_v3_11_3@nlohmann@@V?$vector@EV?$allocator@E@std@@@2@X@json_abi_v3_11_3@nlohmann@@@1@$$QEAV?$basic_string@DU?$char_traits@D@std@@V?$allocator@D@2@@1@$$QEAV?$basic_json@Vmap@std@@Vvector@2@V?$basic_string@DU?$char_traits@D@std@@V?$allocator@D@2@@2@_N_J_KNVallocator@2@Uadl_serializer@json_abi_v3_11_3@nlohmann@@V?$vector@EV?$allocator@E@std@@@2@X@json_abi_v3_11_3@nlohmann@@@Z
	??$construct@U?$pair@$$CBV?$basic_string@DU?$char_traits@D@std@@V?$allocator@D@2@@std@@V?$function@$$A6AXXZ@2@@std@@AEBUpiecewise_construct_t@2@V?$tuple@AEBV?$basic_string@DU?$char_traits@D@std@@V?$allocator@D@2@@std@@@2@V?$tuple@$$V@2@@?$_Default_allocator_traits@V?$allocator@U?$_List_node@U?$pair@$$CBV?$basic_string@DU?$char_traits@D@std@@V?$allocator@D@2@@std@@V?$function@$$A6AXXZ@2@@std@@PEAX@std@@@std@@@std@@SAXAEAV?$allocator@U?$_List_node@U?$pair@$$CBV?$basic_string@DU?$char_traits@D@std@@V?$allocator@D@2@@std@@V?$function@$$A6AXXZ@2@@std@@PEAX@std@@@1@QEAU?$pair@$$CBV?$basic_string@DU?$char_traits@D@std@@V?$allocator@D@2@@std@@V?$function@$$A6AXXZ@2@@1@AEBUpiecewise_construct_t@1@$$QEAV?$tuple@AEBV?$basic_string@DU?$char_traits@D@std@@V?$allocator@D@2@@std@@@1@$$QEAV?$tuple@$$V@1@@Z
	??$construct@U?$pair@$$CBW4InputAction@vrc@@M@std@@AEBUpiecewise_construct_t@2@V?$tuple@$$QEAW4InputAction@vrc@@@2@V?$tuple@$$V@2@@?$_Default_allocator_traits@V?$allocator@U?$_List_node@U?$pair@$$CBW4InputAction@vrc@@M@std@@PEAX@std@@@std@@@std@@SAXAEAV?$allocator@U?$_List_node@U?$pair@$$CBW4InputAction@vrc@@M@std@@PEAX@std@@@1@QEAU?$pair@$$CBW4InputAction@vrc@@M@1@AEBUpiecewise_construct_t@1@$$QEAV?$tuple@$$QEAW4InputAction@vrc@@@1@$$QEAV?$tuple@$$V@1@@Z
	??$construct@U?$pair@$$CBW4InputAction@vrc@@M@std@@AEBUpiecewise_construct_t@2@V?$tuple@AEBW4InputAction@vrc@@@2@V?$tuple@$$V@2@@?$_Default_allocator_traits@V?$allocator@U?$_List_node@U?$pair@$$CBW4InputAction@vrc@@M@std@@PEAX@std@@@std@@@std@@SAXAEAV?$allocator@U?$_List_node@U?$pair@$$CBW4InputAction@vrc@@M@std@@PEAX@std@@@1@QEAU?$pair@$$CBW4InputAction@vrc@@M@1@AEBUpiecewise_construct_t@1@$$QEAV?$tuple@AEBW4InputAction@vrc@@@1@$$QEAV?$tuple@$$V@1@@Z
	??$construct@U?$pair@PEAXP6AJPEAUIDXGISwapChain@@II@Z@std@@U12@@?$_Default_allocator_traits@V?$allocator@U?$pair@PEAXP6AJPEAUIDXGISwapChain@@II@Z@std@@@std@@@std@@SAXAEAV?$allocator@U?$pair@PEAXP6AJPEAUIDXGISwapChain@@II@Z@std@@@1@QEAU?$pair@PEAXP6AJPEAUIDXGISwapChain@@II@Z@1@$$QEAU31@@Z
	??$construct@UBinding@vrc@@AEAU12@@?$_Default_allocator_traits@V?$allocator@UBinding@vrc@@@std@@@std@@SAXAEAV?$allocator@UBinding@vrc@@@1@QEAUBinding@vrc@@AEAU34@@Z
	??$construct@UBinding@vrc@@AEBU12@@?$_Default_allocator_traits@V?$allocator@UBinding@vrc@@@std@@@std@@SAXAEAV?$allocator@UBinding@vrc@@@1@QEAUBinding@vrc@@AEBU34@@Z
	??$construct@UBinding@vrc@@U12@@?$_Default_allocator_traits@V?$allocator@UBinding@vrc@@@std@@@std@@SAXAEAV?$allocator@UBinding@vrc@@@1@QEAUBinding@vrc@@$$QEAU34@@Z
	??$construct@UD3D12_CPU_DESCRIPTOR_HANDLE@@AEBU1@@?$_Default_allocator_traits@V?$allocator@UD3D12_CPU_DESCRIPTOR_HANDLE@@@std@@@std@@SAXAEAV?$allocator@UD3D12_CPU_DESCRIPTOR_HANDLE@@@1@QEAUD3D12_CPU_DESCRIPTOR_HANDLE@@AEBU3@@Z
	??$construct@UD3D12_CPU_DESCRIPTOR_HANDLE@@U1@@?$_Default_allocator_traits@V?$allocator@UD3D12_CPU_DESCRIPTOR_HANDLE@@@std@@@std@@SAXAEAV?$allocator@UD3D12_CPU_DESCRIPTOR_HANDLE@@@1@QEAUD3D12_CPU_DESCRIPTOR_HANDLE@@$$QEAU3@@Z
	??$construct@ULatencySnapshot@vrc@@AEBU12@@?$_Default_allocator_traits@V?$allocator@ULatencySnapshot@vrc@@@std@@@std@@SAXAEAV?$allocator@ULatencySnapshot@vrc@@@1@QEAULatencySnapshot@vrc@@AEBU34@@Z
	??$construct@UPerfSample@vrc@@AEBU12@@?$_Default_allocator_traits@V?$allocator@UPerfSample@vrc@@@std@@@std@@SAXAEAV?$allocator@UPerfSample@vrc@@@1@QEAUPerfSample@vrc@@AEBU34@@Z
	??$construct@URotationSample@LatencyCompensator@vrc@@U123@@?$_Default_allocator_traits@V?$allocator@URotationSample@LatencyCompensator@vrc@@@std@@@std@@SAXAEAV?$allocator@URotationSample@LatencyCompensator@vrc@@@1@QEAURotationSample@LatencyCompensator@vrc@@$$QEAU345@@Z
	??$construct@UTrackingSample@vrc@@AEBU12@@?$_Default_allocator_traits@V?$allocator@UTrackingSample@vrc@@@std@@@std@@SAXAEAV?$allocator@UTrackingSample@vrc@@@1@QEAUTrackingSample@vrc@@AEBU34@@Z
	??$construct@UXrActionSuggestedBinding@@U1@@?$_Default_allocator_traits@V?$allocator@UXrActionSuggestedBinding@@@std@@@std@@SAXAEAV?$allocator@UXrActionSuggestedBinding@@@1@QEAUXrActionSuggestedBinding@@$$QEAU3@@Z
	??$construct@UXrExtensionProperties@@AEBU1@@?$_Default_allocator_traits@V?$allocator@UXrExtensionProperties@@@std@@@std@@SAXAEAV?$allocator@UXrExtensionProperties@@@1@QEAUXrExtensionProperties@@AEBU3@@Z
	??$construct@UXrSwapchainImageD3D11KHR@@AEBU1@@?$_Default_allocator_traits@V?$allocator@UXrSwapchainImageD3D11KHR@@@std@@@std@@SAXAEAV?$allocator@UXrSwapchainImageD3D11KHR@@@1@QEAUXrSwapchainImageD3D11KHR@@AEBU3@@Z
	??$construct@UXrSwapchainImageD3D11KHR@@U1@@?$_Default_allocator_traits@V?$allocator@UXrSwapchainImageD3D11KHR@@@std@@@std@@SAXAEAV?$allocator@UXrSwapchainImageD3D11KHR@@@1@QEAUXrSwapchainImageD3D11KHR@@$$QEAU3@@Z
	??$construct@UXrSwapchainImageD3D12KHR@@AEBU1@@?$_Default_allocator_traits@V?$allocator@UXrSwapchainImageD3D12KHR@@@std@@@std@@SAXAEAV?$allocator@UXrSwapchainImageD3D12KHR@@@1@QEAUXrSwapchainImageD3D12KHR@@AEBU3@@Z
	??$construct@UXrSwapchainImageD3D12KHR@@U1@@?$_Default_allocator_traits@V?$allocator@UXrSwapchainImageD3D12KHR@@@std@@@std@@SAXAEAV?$allocator@UXrSwapchainImageD3D12KHR@@@1@QEAUXrSwapchainImageD3D12KHR@@$$QEAU3@@Z
	??$construct@UXrViewConfigurationView@@AEBU1@@?$_Default_allocator_traits@V?$allocator@UXrViewConfigurationView@@@std@@@std@@SAXAEAV?$allocator@UXrViewConfigurationView@@@1@QEAUXrViewConfigurationView@@AEBU3@@Z
	??$construct@V?$basic_json@Vmap@std@@Vvector@2@V?$basic_string@DU?$char_traits@D@std@@V?$allocator@D@2@@2@_N_J_KNVallocator@2@Uadl_serializer@json_abi_v3_11_3@nlohmann@@V?$vector@EV?$allocator@E@std@@@2@X@json_abi_v3_11_3@nlohmann@@$$T@?$_Default_allocator_traits@V?$allocator@V?$basic_json@Vmap@std@@Vvector@2@V?$basic_string@DU?$char_traits@D@std@@V?$allocator@D@2@@2@_N_J_KNVallocator@2@Uadl_serializer@json_abi_v3_11_3@nlohmann@@V?$vector@EV?$allocator@E@std@@@2@X@json_abi_v3_11_3@nlohmann@@@std@@@std@@SAXAEAV?$allocator@V?$basic_json@Vmap@std@@Vvector@2@V?$basic_string@DU?$char_traits@D@std@@V?$allocator@D@2@@2@_N_J_KNVallocator@2@Uadl_serializer@json_abi_v3_11_3@nlohmann@@V?$vector@EV?$allocator@E@std@@@2@X@json_abi_v3_11_3@nlohmann@@@1@QEAV?$basic_json@Vmap@std@@Vvector@2@V?$basic_string@DU?$char_traits@D@std@@V?$allocator@D@2@@2@_N_J_KNVallocator@2@Uadl_serializer@json_abi_v3_11_3@nlohmann@@V?$vector@EV?$allocator@E@std@@@2@X@json_abi_v3_11_3@nlohmann@@$$QEA$$T@Z
	??$construct@V?$basic_json@Vmap@std@@Vvector@2@V?$basic_string@DU?$char_traits@D@std@@V?$allocator@D@2@@2@_N_J_KNVallocator@2@Uadl_serializer@json_abi_v3_11_3@nlohmann@@V?$vector@EV?$allocator@E@std@@@2@X@json_abi_v3_11_3@nlohmann@@@?$external_constructor@$02@detail@json_abi_v3_11_3@nlohmann@@SAXAEAV?$basic_json@Vmap@std@@Vvector@2@V?$basic_string@DU?$char_traits@D@std@@V?$allocator@D@2@@2@_N_J_KNVallocator@2@Uadl_serializer@json_abi_v3_11_3@nlohmann@@V?$vector@EV?$allocator@E@std@@@2@X@23@AEBV?$basic_string@DU?$char_traits@D@std@@V?$allocator@D@2@@std@@@Z
	??$construct@V?$basic_json@Vmap@std@@Vvector@2@V?$basic_string@DU?$char_traits@D@std@@V?$allocator@D@2@@2@_N_J_KNVallocator@2@Uadl_serializer@json_abi_v3_11_3@nlohmann@@V?$vector@EV?$allocator@E@std@@@2@X@json_abi_v3_11_3@nlohmann@@@?$external_constructor@$03@detail@json_abi_v3_11_3@nlohmann@@SAXAEAV?$basic_json@Vmap@std@@Vvector@2@V?$basic_string@DU?$char_traits@D@std@@V?$allocator@D@2@@2@_N_J_KNVallocator@2@Uadl_serializer@json_abi_v3_11_3@nlohmann@@V?$vector@EV?$allocator@E@std@@@2@X@23@_N@Z
	??$construct@V?$basic_json@Vmap@std@@Vvector@2@V?$basic_string@DU?$char_traits@D@std@@V?$allocator@D@2@@2@_N_J_KNVallocator@2@Uadl_serializer@json_abi_v3_11_3@nlohmann@@V?$vector@EV?$allocator@E@std@@@2@X@json_abi_v3_11_3@nlohmann@@@?$external_constructor@$04@detail@json_abi_v3_11_3@nlohmann@@SAXAEAV?$basic_json@Vmap@std@@Vvector@2@V?$basic_string@DU?$char_traits@D@std@@V?$allocator@D@2@@2@_N_J_KNVallocator@2@Uadl_serializer@json_abi_v3_11_3@nlohmann@@V?$vector@EV?$allocator@E@std@@@2@X@23@_J@Z
	??$construct@V?$basic_json@Vmap@std@@Vvector@2@V?$basic_string@DU?$char_traits@D@std@@V?$allocator@D@2@@2@_N_J_KNVallocator@2@Uadl_serializer@json_abi_v3_11_3@nlohmann@@V?$vector@EV?$allocator@E@std@@@2@X@json_abi_v3_11_3@nlohmann@@@?$external_constructor@$05@detail@json_abi_v3_11_3@nlohmann@@SAXAEAV?$basic_json@Vmap@std@@Vvector@2@V?$basic_string@DU?$char_traits@D@std@@V?$allocator@D@2@@2@_N_J_KNVallocator@2@Uadl_serializer@json_abi_v3_11_3@nlohmann@@V?$vector@EV?$allocator@E@std@@@2@X@23@_K@Z
	??$construct@V?$basic_json@Vmap@std@@Vvector@2@V?$basic_string@DU?$char_traits@D@std@@V?$allocator@D@2@@2@_N_J_KNVallocator@2@Uadl_serializer@json_abi_v3_11_3@nlohmann@@V?$vector@EV?$allocator@E@std@@@2@X@json_abi_v3_11_3@nlohmann@@@?$external_constructor@$06@detail@json_abi_v3_11_3@nlohmann@@SAXAEAV?$basic_json@Vmap@std@@Vvector@2@V?$basic_string@DU?$char_traits@D@std@@V?$allocator@D@2@@2@_N_J_KNVallocator@2@Uadl_serializer@json_abi_v3_11_3@nlohmann@@V?$vector@EV?$allocator@E@std@@@2@X@23@N@Z
	??$construct@V?$basic_json@Vmap@std@@Vvector@2@V?$basic_string@DU?$char_traits@D@std@@V?$allocator@D@2@@2@_N_J_KNVallocator@2@Uadl_serializer@json_abi_v3_11_3@nlohmann@@V?$vector@EV?$allocator@E@std@@@2@X@json_abi_v3_11_3@nlohmann@@AEAN@?$_Default_allocator_traits@V?$allocator@V?$basic_json@Vmap@std@@Vvector@2@V?$basic_string@DU?$char_traits@D@std@@V?$allocator@D@2@@2@_N_J_KNVallocator@2@Uadl_serializer@json_abi_v3_11_3@nlohmann@@V?$vector@EV?$allocator@E@std@@@2@X@json_abi_v3_11_3@nlohmann@@@std@@@std@@SAXAEAV?$allocator@V?$basic_json@Vmap@std@@Vvector@2@V?$basic_string@DU?$char_traits@D@std@@V?$allocator@D@2@@2@_N_J_KNVallocator@2@Uadl_serializer@json_abi_v3_11_3@nlohmann@@V?$vector@EV?$allocator@E@std@@@2@X@json_abi_v3_11_3@nlohmann@@@1@QEAV?$basic_json@Vmap@std@@Vvector@2@V?$basic_string@DU?$char_traits@D@std@@V?$allocator@D@2@@2@_N_J_KNVallocator@2@Uadl_serializer@json_abi_v3_11_3@nlohmann@@V?$vector@EV?$allocator@E@std@@@2@X@json_abi_v3_11_3@nlohmann@@AEAN@Z
	??$construct@V?$basic_json@Vmap@std@@Vvector@2@V?$basic_string@DU?$char_traits@D@std@@V?$allocator@D@2@@2@_N_J_KNVallocator@2@Uadl_serializer@json_abi_v3_11_3@nlohmann@@V?$vector@EV?$allocator@E@std@@@2@X@json_abi_v3_11_3@nlohmann@@AEAV123@@?$_Default_allocator_traits@V?$allocator@V?$basic_json@Vmap@std@@Vvector@2@V?$basic_string@DU?$char_traits@D@std@@V?$allocator@D@2@@2@_N_J_KNVallocator@2@Uadl_serializer@json_abi_v3_11_3@nlohmann@@V?$vector@EV?$allocator@E@std@@@2@X@json_abi_v3_11_3@nlohmann@@@std@@@std@@SAXAEAV?$allocator@V?$basic_json@Vmap@std@@Vvector@2@V?$basic_string@DU?$char_traits@D@std@@V?$allocator@D@2@@2@_N_J_KNVallocator@2@Uadl_serializer@json_abi_v3_11_3@nlohmann@@V?$vector@EV?$allocator@E@std@@@2@X@json_abi_v3_11_3@nlohmann@@@1@QEAV?$basic_json@Vmap@std@@Vvector@2@V?$basic_string@DU?$char_traits@D@std@@V?$allocator@D@2@@2@_N_J_KNVallocator@2@Uadl_serializer@json_abi_v3_11_3@nlohmann@@V?$vector@EV?$allocator@E@std@@@2@X@json_abi_v3_11_3@nlohmann@@AEAV345@@Z
	??$construct@V?$basic_json@Vmap@std@@Vvector@2@V?$basic_string@DU?$char_traits@D@std@@V?$allocator@D@2@@2@_N_J_KNVallocator@2@Uadl_serializer@json_abi_v3_11_3@nlohmann@@V?$vector@EV?$allocator@E@std@@@2@X@json_abi_v3_11_3@nlohmann@@AEAV?$basic_string@DU?$char_traits@D@std@@V?$allocator@D@2@@std@@@?$_Default_allocator_traits@V?$allocator@V?$basic_json@Vmap@std@@Vvector@2@V?$basic_string@DU?$char_traits@D@std@@V?$allocator@D@2@@2@_N_J_KNVallocator@2@Uadl_serializer@json_abi_v3_11_3@nlohmann@@V?$vector@EV?$allocator@E@std@@@2@X@json_abi_v3_11_3@nlohmann@@@std@@@std@@SAXAEAV?$allocator@V?$basic_json@Vmap@std@@Vvector@2@V?$basic_string@DU?$char_traits@D@std@@V?$allocator@D@2@@2@_N_J_KNVallocator@2@Uadl_serializer@json_abi_v3_11_3@nlohmann@@V?$vector@EV?$allocator@E@std@@@2@X@json_abi_v3_11_3@nlohmann@@@1@QEAV?$basic_json@Vmap@std@@Vvector@2@V?$basic_string@DU?$char_traits@D@std@@V?$allocator@D@2@@2@_N_J_KNVallocator@2@Uadl_serializer@json_abi_v3_11_3@nlohmann@@V?$vector@EV?$allocator@E@std@@@2@X@json_abi_v3_11_3@nlohmann@@AEAV?$basic_string@DU?$char_traits@D@std@@V?$allocator@D@2@@1@@Z
	??$construct@V?$basic_json@Vmap@std@@Vvector@2@V?$basic_string@DU?$char_traits@D@std@@V?$allocator@D@2@@2@_N_J_KNVallocator@2@Uadl_serializer@json_abi_v3_11_3@nlohmann@@V?$vector@EV?$allocator@E@std@@@2@X@json_abi_v3_11_3@nlohmann@@AEA_J@?$_Default_allocator_traits@V?$allocator@V?$basic_json@Vmap@std@@Vvector@2@V?$basic_string@DU?$char_traits@D@std@@V?$allocator@D@2@@2@_N_J_KNVallocator@2@Uadl_serializer@json_abi_v3_11_3@nlohmann@@V?$vector@EV?$allocator@E@std@@@2@X@json_abi_v3_11_3@nlohmann@@@std@@@std@@SAXAEAV?$allocator@V?$basic_json@Vmap@std@@Vvector@2@V?$basic_string@DU?$char_traits@D@std@@V?$allocator@D@2@@2@_N_J_KNVallocator@2@Uadl_serializer@json_abi_v3_11_3@nlohmann@@V?$vector@EV?$allocator@E@std@@@2@X@json_abi_v3_11_3@nlohmann@@@1@QEAV?$basic_json@Vmap@std@@Vvector@2@V?$basic_string@DU?$char_traits@D@std@@V?$allocator@D@2@@2@_N_J_KNVallocator@2@Uadl_serializer@json_abi_v3_11_3@nlohmann@@V?$vector@EV?$allocator@E@std@@@2@X@json_abi_v3_11_3@nlohmann@@AEA_J@Z
	??$construct@V?$basic_json@Vmap@std@@Vvector@2@V?$basic_string@DU?$char_traits@D@std@@V?$allocator@D@2@@2@_N_J_KNVallocator@2@Uadl_serializer@json_abi_v3_11_3@nlohmann@@V?$vector@EV?$allocator@E@std@@@2@X@json_abi_v3_11_3@nlohmann@@AEA_K@?$_Default_allocator_traits@V?$allocator@V?$basic_json@Vmap@std@@Vvector@2@V?$basic_string@DU?$char_traits@D@std@@V?$allocator@D@2@@2@_N_J_KNVallocator@2@Uadl_serializer@json_abi_v3_11_3@nlohmann@@V?$vector@EV?$allocator@E@std@@@2@X@json_abi_v3_11_3@nlohmann@@@std@@@std@@SAXAEAV?$allocator@V?$basic_json@Vmap@std@@Vvector@2@V?$basic_string@DU?$char_traits@D@std@@V?$allocator@D@2@@2@_N_J_KNVallocator@2@Uadl_serializer@json_abi_v3_11_3@nlohmann@@V?$vector@EV?$allocator@E@std@@@2@X@json_abi_v3_11_3@nlohmann@@@1@QEAV?$basic_json@Vmap@std@@Vvector@2@V?$basic_string@DU?$char_traits@D@std@@V?$allocator@D@2@@2@_N_J_KNVallocator@2@Uadl_serializer@json_abi_v3_11_3@nlohmann@@V?$vector@EV?$allocator@E@std@@@2@X@json_abi_v3_11_3@nlohmann@@AEA_K@Z
	??$construct@V?$basic_json@Vmap@std@@Vvector@2@V?$basic_string@DU?$char_traits@D@std@@V?$allocator@D@2@@2@_N_J_KNVallocator@2@Uadl_serializer@json_abi_v3_11_3@nlohmann@@V?$vector@EV?$allocator@E@std@@@2@X@json_abi_v3_11_3@nlohmann@@AEA_N@?$_Default_allocator_traits@V?$allocator@V?$basic_json@Vmap@std@@Vvector@2@V?$basic_string@DU?$char_traits@D@std@@V?$allocator@D@2@@2@_N_J_KNVallocator@2@Uadl_serializer@json_abi_v3_11_3@nlohmann@@V?$vector@EV?$allocator@E@std@@@2@X@json_abi_v3_11_3@nlohmann@@@std@@@std@@SAXAEAV?$allocator@V?$basic_json@Vmap@std@@Vvector@2@V?$basic_string@DU?$char_traits@D@std@@V?$allocator@D@2@@2@_N_J_KNVallocator@2@Uadl_serializer@json_abi_v3_11_3@nlohmann@@V?$vector@EV?$allocator@E@std@@@2@X@json_abi_v3_11_3@nlohmann@@@1@QEAV?$basic_json@Vmap@std@@Vvector@2@V?$basic_string@DU?$char_traits@D@std@@V?$allocator@D@2@@2@_N_J_KNVallocator@2@Uadl_serializer@json_abi_v3_11_3@nlohmann@@V?$vector@EV?$allocator@E@std@@@2@X@json_abi_v3_11_3@nlohmann@@AEA_N@Z
	??$construct@V?$basic_json@Vmap@std@@Vvector@2@V?$basic_string@DU?$char_traits@D@std@@V?$allocator@D@2@@2@_N_J_KNVallocator@2@Uadl_serializer@json_abi_v3_11_3@nlohmann@@V?$vector@EV?$allocator@E@std@@@2@X@json_abi_v3_11_3@nlohmann@@AEBV123@@?$_Default_allocator_traits@V?$allocator@V?$basic_json@Vmap@std@@Vvector@2@V?$basic_string@DU?$char_traits@D@std@@V?$allocator@D@2@@2@_N_J_KNVallocator@2@Uadl_serializer@json_abi_v3_11_3@nlohmann@@V?$vector@EV?$allocator@E@std@@@2@X@json_abi_v3_11_3@nlohmann@@@std@@@std@@SAXAEAV?$allocator@V?$basic_json@Vmap@std@@Vvector@2@V?$basic_string@DU?$char_traits@D@std@@V?$allocator@D@2@@2@_N_J_KNVallocator@2@Uadl_serializer@json_abi_v3_11_3@nlohmann@@V?$vector@EV?$allocator@E@std@@@2@X@json_abi_v3_11_3@nlohmann@@@1@QEAV?$basic_json@Vmap@std@@Vvector@2@V?$basic_string@DU?$char_traits@D@std@@V?$allocator@D@2@@2@_N_J_KNVallocator@2@Uadl_serializer@json_abi_v3_11_3@nlohmann@@V?$vector@EV?$allocator@E@std@@@2@X@json_abi_v3_11_3@nlohmann@@AEBV345@@Z
	??$construct@V?$basic_json@Vmap@std@@Vvector@2@V?$basic_string@DU?$char_traits@D@std@@V?$allocator@D@2@@2@_N_J_KNVallocator@2@Uadl_serializer@json_abi_v3_11_3@nlohmann@@V?$vector@EV?$allocator@E@std@@@2@X@json_abi_v3_11_3@nlohmann@@AEBV?$json_ref@V?$basic_json@Vmap@std@@Vvector@2@V?$basic_string@DU?$char_traits@D@std@@V?$allocator@D@2@@2@_N_J_KNVallocator@2@Uadl_serializer@json_abi_v3_11_3@nlohmann@@V?$vector@EV?$allocator@E@std@@@2@X@json_abi_v3_11_3@nlohmann@@@detail@23@@?$_Default_allocator_traits@V?$allocator@V?$basic_json@Vmap@std@@Vvector@2@V?$basic_string@DU?$char_traits@D@std@@V?$allocator@D@2@@2@_N_J_KNVallocator@2@Uadl_serializer@json_abi_v3_11_3@nlohmann@@V?$vector@EV?$allocator@E@std@@@2@X@json_abi_v3_11_3@nlohmann@@@std@@@std@@SAXAEAV?$allocator@V?$basic_json@Vmap@std@@Vvector@2@V?$basic_string@DU?$char_traits@D@std@@V?$allocator@D@2@@2@_N_J_KNVallocator@2@Uadl_serializer@json_abi_v3_11_3@nlohmann@@V?$vector@EV?$allocator@E@std@@@2@X@json_abi_v3_11_3@nlohmann@@@1@QEAV?$basic_json@Vmap@std@@Vvector@2@V?$basic_string@DU?$char_traits@D@std@@V?$allocator@D@2@@2@_N_J_KNVallocator@2@Uadl_serializer@json_abi_v3_11_3@nlohmann@@V?$vector@EV?$allocator@E@std@@@2@X@json_abi_v3_11_3@nlohmann@@AEBV?$json_ref@V?$basic_json@Vmap@std@@Vvector@2@V?$basic_string@DU?$char_traits@D@std@@V?$allocator@D@2@@2@_N_J_KNVallocator@2@Uadl_serializer@json_abi_v3_11_3@nlohmann@@V?$vector@EV?$allocator@E@std@@@2@X@json_abi_v3_11_3@nlohmann@@@detail@45@@Z
	??$construct@V?$basic_json@Vmap@std@@Vvector@2@V?$basic_string@DU?$char_traits@D@std@@V?$allocator@D@2@@2@_N_J_KNVallocator@2@Uadl_serializer@json_abi_v3_11_3@nlohmann@@V?$vector@EV?$allocator@E@std@@@2@X@json_abi_v3_11_3@nlohmann@@V123@@?$_Default_allocator_traits@V?$allocator@V?$basic_json@Vmap@std@@Vvector@2@V?$basic_string@DU?$char_traits@D@std@@V?$allocator@D@2@@2@_N_J_KNVallocator@2@Uadl_serializer@json_abi_v3_11_3@nlohmann@@V?$vector@EV?$allocator@E@std@@@2@X@json_abi_v3_11_3@nlohmann@@@std@@@std@@SAXAEAV?$allocator@V?$basic_json@Vmap@std@@Vvector@2@V?$basic_string@DU?$char_traits@D@std@@V?$allocator@D@2@@2@_N_J_KNVallocator@2@Uadl_serializer@json_abi_v3_11_3@nlohmann@@V?$vector@EV?$allocator@E@std@@@2@X@json_abi_v3_11_3@nlohmann@@@1@QEAV?$basic_json@Vmap@std@@Vvector@2@V?$basic_string@DU?$char_traits@D@std@@V?$allocator@D@2@@2@_N_J_KNVallocator@2@Uadl_serializer@json_abi_v3_11_3@nlohmann@@V?$vector@EV?$allocator@E@std@@@2@X@json_abi_v3_11_3@nlohmann@@$$QEAV345@@Z
	??$construct@V?$basic_json@Vmap@std@@Vvector@2@V?$basic_string@DU?$char_traits@D@std@@V?$allocator@D@2@@2@_N_J_KNVallocator@2@Uadl_serializer@json_abi_v3_11_3@nlohmann@@V?$vector@EV?$allocator@E@std@@@2@X@json_abi_v3_11_3@nlohmann@@W4value_t@detail@23@@?$_Default_allocator_traits@V?$allocator@V?$basic_json@Vmap@std@@Vvector@2@V?$basic_string@DU?$char_traits@D@std@@V?$allocator@D@2@@2@_N_J_KNVallocator@2@Uadl_serializer@json_abi_v3_11_3@nlohmann@@V?$vector@EV?$allocator@E@std@@@2@X@json_abi_v3_11_3@nlohmann@@@std@@@std@@SAXAEAV?$allocator@V?$basic_json@Vmap@std@@Vvector@2@V?$basic_string@DU?$char_traits@D@std@@V?$allocator@D@2@@2@_N_J_KNVallocator@2@Uadl_serializer@json_abi_v3_11_3@nlohmann@@V?$vector@EV?$allocator@E@std@@@2@X@json_abi_v3_11_3@nlohmann@@@1@QEAV?$basic_json@Vmap@std@@Vvector@2@V?$basic_string@DU?$char_traits@D@std@@V?$allocator@D@2@@2@_N_J_KNVallocator@2@Uadl_serializer@json_abi_v3_11_3@nlohmann@@V?$vector@EV?$allocator@E@std@@@2@X@json_abi_v3_11_3@nlohmann@@$$QEAW4value_t@detail@45@@Z
	??$construct@V?$basic_string@DU?$char_traits@D@std@@V?$allocator@D@2@@std@@AEAY00$$CBD@?$_Default_allocator_traits@V?$allocator@V?$basic_string@DU?$char_traits@D@std@@V?$allocator@D@2@@std@@@std@@@std@@SAXAEAV?$allocator@V?$basic_string@DU?$char_traits@D@std@@V?$allocator@D@2@@std@@@1@QEAV?$basic_string@DU?$char_traits@D@std@@V?$allocator@D@2@@1@AEAY00$$CBD@Z
	??$construct@V?$basic_string@DU?$char_traits@D@std@@V?$allocator@D@2@@std@@AEBV12@@?$_Default_allocator_traits@V?$allocator@V?$basic_string@DU?$char_traits@D@std@@V?$allocator@D@2@@std@@@std@@@std@@SAXAEAV?$allocator@V?$basic_string@DU?$char_traits@D@std@@V?$allocator@D@2@@std@@@1@QEAV?$basic_string@DU?$char_traits@D@std@@V?$allocator@D@2@@1@AEBV31@@Z
	??$construct@V?$basic_string@DU?$char_traits@D@std@@V?$allocator@D@2@@std@@V12@@?$_Default_allocator_traits@V?$allocator@V?$basic_string@DU?$char_traits@D@std@@V?$allocator@D@2@@std@@@std@@@std@@SAXAEAV?$allocator@V?$basic_string@DU?$char_traits@D@std@@V?$allocator@D@2@@std@@@1@QEAV?$basic_string@DU?$char_traits@D@std@@V?$allocator@D@2@@1@$$QEAV31@@Z
	??$construct@V?$byte_container_with_subtype@V?$vector@EV?$allocator@E@std@@@std@@@json_abi_v3_11_3@nlohmann@@$$V@?$_Default_allocator_traits@V?$allocator@V?$byte_container_with_subtype@V?$vector@EV?$allocator@E@std@@@std@@@json_abi_v3_11_3@nlohmann@@@std@@@std@@SAXAEAV?$allocator@V?$byte_container_with_subtype@V?$vector@EV?$allocator@E@std@@@std@@@json_abi_v3_11_3@nlohmann@@@1@QEAV?$byte_container_with_subtype@V?$vector@EV?$allocator@E@std@@@std@@@json_abi_v3_11_3@nlohmann@@@Z
	??$construct@V?$byte_container_with_subtype@V?$vector@EV?$allocator@E@std@@@std@@@json_abi_v3_11_3@nlohmann@@AEBV123@@?$_Default_allocator_traits@V?$allocator@V?$byte_container_with_subtype@V?$vector@EV?$allocator@E@std@@@std@@@json_abi_v3_11_3@nlohmann@@@std@@@std@@SAXAEAV?$allocator@V?$byte_container_with_subtype@V?$vector@EV?$allocator@E@std@@@std@@@json_abi_v3_11_3@nlohmann@@@1@QEAV?$byte_container_with_subtype@V?$vector@EV?$allocator@E@std@@@std@@@json_abi_v3_11_3@nlohmann@@AEBV345@@Z
	??$construct@V?$map@V?$basic_string@DU?$char_traits@D@std@@V?$allocator@D@2@@std@@V?$basic_json@Vmap@std@@Vvector@2@V?$basic_string@DU?$char_traits@D@std@@V?$allocator@D@2@@2@_N_J_KNVallocator@2@Uadl_serializer@json_abi_v3_11_3@nlohmann@@V?$vector@EV?$allocator@E@std@@@2@X@json_abi_v3_11_3@nlohmann@@U?$less@X@2@V?$allocator@U?$pair@$$CBV?$basic_string@DU?$char_traits@D@std@@V?$allocator@D@2@@std@@V?$basic_json@Vmap@std@@Vvector@2@V?$basic_string@DU?$char_traits@D@std@@V?$allocator@D@2@@2@_N_J_KNVallocator@2@Uadl_serializer@json_abi_v3_11_3@nlohmann@@V?$vector@EV?$allocator@E@std@@@2@X@json_abi_v3_11_3@nlohmann@@@std@@@2@@std@@$$V@?$_Default_allocator_traits@V?$allocator@V?$map@V?$basic_string@DU?$char_traits@D@std@@V?$allocator@D@2@@std@@V?$basic_json@Vmap@std@@Vvector@2@V?$basic_string@DU?$char_traits@D@std@@V?$allocator@D@2@@2@_N_J_KNVallocator@2@Uadl_serializer@json_abi_v3_11_3@nlohmann@@V?$vector@EV?$allocator@E@std@@@2@X@json_abi_v3_11_3@nlohmann@@U?$less@X@2@V?$allocator@U?$pair@$$CBV?$basic_string@DU?$char_traits@D@std@@V?$allocator@D@2@@std@@V?$basic_json@Vmap@std@@Vvector@2@V?$basic_string@DU?$char_traits@D@std@@V?$allocator@D@2@@2@_N_J_KNVallocator@2@Uadl_serializer@json_abi_v3_11_3@nlohmann@@V?$vector@EV?$allocator@E@std@@@2@X@json_abi_v3_11_3@nlohmann@@@std@@@2@@std@@@std@@@std@@SAXAEAV?$allocator@V?$map@V?$basic_string@DU?$char_traits@D@std@@V?$allocator@D@2@@std@@V?$basic_json@Vmap@std@@Vvector@2@V?$basic_string@DU?$char_traits@D@std@@V?$allocator@D@2@@2@_N_J_KNVallocator@2@Uadl_serializer@json_abi_v3_11_3@nlohmann@@V?$vector@EV?$allocator@E@std@@@2@X@json_abi_v3_11_3@nlohmann@@U?$less@X@2@V?$allocator@U?$pair@$$CBV?$basic_string@DU?$char_traits@D@std@@V?$allocator@D@2@@std@@V?$basic_json@Vmap@std@@Vvector@2@V?$basic_string@DU?$char_traits@D@std@@V?$allocator@D@2@@2@_N_J_KNVallocator@2@Uadl_serializer@json_abi_v3_11_3@nlohmann@@V?$vector@EV?$allocator@E@std@@@2@X@json_abi_v3_11_3@nlohmann@@@std@@@2@@std@@@1@QEAV?$map@V?$basic_string@DU?$char_traits@D@std@@V?$allocator@D@2@@std@@V?$basic_json@Vmap@std@@Vvector@2@V?$basic_string@DU?$char_traits@D@std@@V?$allocator@D@2@@2@_N_J_KNVallocator@2@Uadl_serializer@json_abi_v3_11_3@nlohmann@@V?$vector@EV?$allocator@E@std@@@2@X@json_abi_v3_11_3@nlohmann@@U?$less@X@2@V?$allocator@U?$pair@$$CBV?$basic_string@DU?$char_traits@D@std@@V?$allocator@D@2@@std@@V?$basic_json@Vmap@std@@Vvector@2@V?$basic_string@DU?$char_traits@D@std@@V?$allocator@D@2@@2@_N_J_KNVallocator@2@Uadl_serializer@json_abi_v3_11_3@nlohmann@@V?$vector@EV?$allocator@E@std@@@2@X@json_abi_v3_11_3@nlohmann@@@std@@@2@@1@@Z
